
pwm.elf:     file format elf32-littlearm


Disassembly of section .text:

40008000 <_start>:
40008000:	ea00000d 	b	4000803c <reset>
40008004:	e59ff014 	ldr	pc, [pc, #20]	; 40008020 <_undefined_instruction>
40008008:	e59ff014 	ldr	pc, [pc, #20]	; 40008024 <_software_interrupt>
4000800c:	e59ff014 	ldr	pc, [pc, #20]	; 40008028 <_prefetch_abort>
40008010:	e59ff014 	ldr	pc, [pc, #20]	; 4000802c <_data_abort>
40008014:	e59ff014 	ldr	pc, [pc, #20]	; 40008030 <_not_used>
40008018:	e59ff014 	ldr	pc, [pc, #20]	; 40008034 <_irq>
4000801c:	e59ff014 	ldr	pc, [pc, #20]	; 40008038 <_fiq>

40008020 <_undefined_instruction>:
40008020:	40008020 	andmi	r8, r0, r0, lsr #32

40008024 <_software_interrupt>:
40008024:	40008024 	andmi	r8, r0, r4, lsr #32

40008028 <_prefetch_abort>:
40008028:	40008028 	andmi	r8, r0, r8, lsr #32

4000802c <_data_abort>:
4000802c:	4000802c 	andmi	r8, r0, ip, lsr #32

40008030 <_not_used>:
40008030:	40008030 	andmi	r8, r0, r0, lsr r0

40008034 <_irq>:
40008034:	400080e0 	andmi	r8, r0, r0, ror #1

40008038 <_fiq>:
40008038:	40008038 	andmi	r8, r0, r8, lsr r0

4000803c <reset>:
4000803c:	e59f00ac 	ldr	r0, [pc, #172]	; 400080f0 <stacktop+0x4>
40008040:	ee0c0f10 	mcr	15, 0, r0, cr12, cr0, {0}
40008044:	e10f0000 	mrs	r0, CPSR
40008048:	e3c0001f 	bic	r0, r0, #31
4000804c:	e38000d3 	orr	r0, r0, #211	; 0xd3
40008050:	e129f000 	msr	CPSR_fc, r0
40008054:	e3e0020f 	mvn	r0, #-268435456	; 0xf0000000
40008058:	ee010f50 	mcr	15, 0, r0, cr1, cr0, {2}
4000805c:	e3a00000 	mov	r0, #0
40008060:	ee080f17 	mcr	15, 0, r0, cr8, cr7, {0}
40008064:	ee070f15 	mcr	15, 0, r0, cr7, cr5, {0}
40008068:	e3a03101 	mov	r3, #1073741824	; 0x40000000
4000806c:	eee83a10 	vmsr	fpexc, r3
40008070:	ee110f10 	mrc	15, 0, r0, cr1, cr0, {0}
40008074:	e3c00a02 	bic	r0, r0, #8192	; 0x2000
40008078:	e3c00007 	bic	r0, r0, #7
4000807c:	e3800a01 	orr	r0, r0, #4096	; 0x1000
40008080:	e3800002 	orr	r0, r0, #2
40008084:	e3800b02 	orr	r0, r0, #2048	; 0x800
40008088:	ee010f10 	mcr	15, 0, r0, cr1, cr0, {0}

4000808c <init_stack>:
4000808c:	e59f0058 	ldr	r0, [pc, #88]	; 400080ec <stacktop>
40008090:	e1a0d000 	mov	sp, r0
40008094:	e2400c02 	sub	r0, r0, #512	; 0x200
40008098:	e329f0d2 	msr	CPSR_fc, #210	; 0xd2
4000809c:	e1a0d000 	mov	sp, r0
400080a0:	e2400c02 	sub	r0, r0, #512	; 0x200
400080a4:	e329f0d1 	msr	CPSR_fc, #209	; 0xd1
400080a8:	e1a0d000 	mov	sp, r0
400080ac:	e2400000 	sub	r0, r0, #0
400080b0:	e329f0d7 	msr	CPSR_fc, #215	; 0xd7
400080b4:	e1a0d000 	mov	sp, r0
400080b8:	e2400000 	sub	r0, r0, #0
400080bc:	e329f0db 	msr	CPSR_fc, #219	; 0xdb
400080c0:	e1a0d000 	mov	sp, r0
400080c4:	e2400000 	sub	r0, r0, #0
400080c8:	e329f010 	msr	CPSR_fc, #16
400080cc:	e1a0d000 	mov	sp, r0

400080d0 <led_test>:
400080d0:	ea000116 	b	40008530 <main>
400080d4:	e320f000 	nop	{0}
400080d8:	e320f000 	nop	{0}
400080dc:	e320f000 	nop	{0}

400080e0 <irq_handler>:
400080e0:	e24ee004 	sub	lr, lr, #4
400080e4:	e92d5fff 	push	{r0, r1, r2, r3, r4, r5, r6, r7, r8, r9, sl, fp, ip, lr}
400080e8:	e8fd9fff 	ldm	sp!, {r0, r1, r2, r3, r4, r5, r6, r7, r8, r9, sl, fp, ip, pc}^

400080ec <stacktop>:
400080ec:	4000b040 	andmi	fp, r0, r0, asr #32
400080f0:	40008000 	andmi	r8, r0, r0
400080f4:	e320f000 	nop	{0}
400080f8:	e320f000 	nop	{0}
400080fc:	e320f000 	nop	{0}

40008100 <adc_init>:
40008100:	e52db004 	push	{fp}		; (str fp, [sp, #-4]!)
40008104:	e28db000 	add	fp, sp, #0
40008108:	e59f3064 	ldr	r3, [pc, #100]	; 40008174 <adc_init+0x74>
4000810c:	e59f2060 	ldr	r2, [pc, #96]	; 40008174 <adc_init+0x74>
40008110:	e5922000 	ldr	r2, [r2]
40008114:	e3822801 	orr	r2, r2, #65536	; 0x10000
40008118:	e5832000 	str	r2, [r3]
4000811c:	e59f3050 	ldr	r3, [pc, #80]	; 40008174 <adc_init+0x74>
40008120:	e59f204c 	ldr	r2, [pc, #76]	; 40008174 <adc_init+0x74>
40008124:	e5922000 	ldr	r2, [r2]
40008128:	e3822901 	orr	r2, r2, #16384	; 0x4000
4000812c:	e5832000 	str	r2, [r3]
40008130:	e59f303c 	ldr	r3, [pc, #60]	; 40008174 <adc_init+0x74>
40008134:	e59f2038 	ldr	r2, [pc, #56]	; 40008174 <adc_init+0x74>
40008138:	e5922000 	ldr	r2, [r2]
4000813c:	e3c22dff 	bic	r2, r2, #16320	; 0x3fc0
40008140:	e3822d13 	orr	r2, r2, #1216	; 0x4c0
40008144:	e5832000 	str	r2, [r3]
40008148:	e59f3024 	ldr	r3, [pc, #36]	; 40008174 <adc_init+0x74>
4000814c:	e59f2020 	ldr	r2, [pc, #32]	; 40008174 <adc_init+0x74>
40008150:	e5922000 	ldr	r2, [r2]
40008154:	e3c22006 	bic	r2, r2, #6
40008158:	e5832000 	str	r2, [r3]
4000815c:	e59f3014 	ldr	r3, [pc, #20]	; 40008178 <adc_init+0x78>
40008160:	e3a02003 	mov	r2, #3
40008164:	e5832000 	str	r2, [r3]
40008168:	e28bd000 	add	sp, fp, #0
4000816c:	e8bd0800 	ldmfd	sp!, {fp}
40008170:	e12fff1e 	bx	lr
40008174:	126c0000 	rsbne	r0, ip, #0
40008178:	126c001c 	rsbne	r0, ip, #28

4000817c <get_adc_data>:
4000817c:	e52db004 	push	{fp}		; (str fp, [sp, #-4]!)
40008180:	e28db000 	add	fp, sp, #0
40008184:	e24dd004 	sub	sp, sp, #4
40008188:	e59f3050 	ldr	r3, [pc, #80]	; 400081e0 <get_adc_data+0x64>
4000818c:	e59f204c 	ldr	r2, [pc, #76]	; 400081e0 <get_adc_data+0x64>
40008190:	e5922000 	ldr	r2, [r2]
40008194:	e3822001 	orr	r2, r2, #1
40008198:	e5832000 	str	r2, [r3]
4000819c:	e1a00000 	nop			; (mov r0, r0)
400081a0:	e59f3038 	ldr	r3, [pc, #56]	; 400081e0 <get_adc_data+0x64>
400081a4:	e5933000 	ldr	r3, [r3]
400081a8:	e2033902 	and	r3, r3, #32768	; 0x8000
400081ac:	e3530000 	cmp	r3, #0
400081b0:	0afffffa 	beq	400081a0 <get_adc_data+0x24>
400081b4:	e59f3028 	ldr	r3, [pc, #40]	; 400081e4 <get_adc_data+0x68>
400081b8:	e5933000 	ldr	r3, [r3]
400081bc:	e6ff3073 	uxth	r3, r3
400081c0:	e1a03a03 	lsl	r3, r3, #20
400081c4:	e1a03a23 	lsr	r3, r3, #20
400081c8:	e14b30b2 	strh	r3, [fp, #-2]
400081cc:	e15b30b2 	ldrh	r3, [fp, #-2]
400081d0:	e1a00003 	mov	r0, r3
400081d4:	e28bd000 	add	sp, fp, #0
400081d8:	e8bd0800 	ldmfd	sp!, {fp}
400081dc:	e12fff1e 	bx	lr
400081e0:	126c0000 	rsbne	r0, ip, #0
400081e4:	126c000c 	rsbne	r0, ip, #12

400081e8 <led_init>:
400081e8:	e52db004 	push	{fp}		; (str fp, [sp, #-4]!)
400081ec:	e28db000 	add	fp, sp, #0
400081f0:	e59f304c 	ldr	r3, [pc, #76]	; 40008244 <led_init+0x5c>
400081f4:	e59f2048 	ldr	r2, [pc, #72]	; 40008244 <led_init+0x5c>
400081f8:	e5922000 	ldr	r2, [r2]
400081fc:	e3c2220f 	bic	r2, r2, #-268435456	; 0xf0000000
40008200:	e3822201 	orr	r2, r2, #268435456	; 0x10000000
40008204:	e5832000 	str	r2, [r3]
40008208:	e59f3038 	ldr	r3, [pc, #56]	; 40008248 <led_init+0x60>
4000820c:	e59f2034 	ldr	r2, [pc, #52]	; 40008248 <led_init+0x60>
40008210:	e5922000 	ldr	r2, [r2]
40008214:	e3c2200f 	bic	r2, r2, #15
40008218:	e3822001 	orr	r2, r2, #1
4000821c:	e5832000 	str	r2, [r3]
40008220:	e59f3024 	ldr	r3, [pc, #36]	; 4000824c <led_init+0x64>
40008224:	e59f2020 	ldr	r2, [pc, #32]	; 4000824c <led_init+0x64>
40008228:	e5922000 	ldr	r2, [r2]
4000822c:	e3c228ff 	bic	r2, r2, #16711680	; 0xff0000
40008230:	e3822811 	orr	r2, r2, #1114112	; 0x110000
40008234:	e5832000 	str	r2, [r3]
40008238:	e28bd000 	add	sp, fp, #0
4000823c:	e8bd0800 	ldmfd	sp!, {fp}
40008240:	e12fff1e 	bx	lr
40008244:	11000c40 	tstne	r0, r0, asr #24
40008248:	11000c20 	tstne	r0, r0, lsr #24
4000824c:	114001e0 	smlalttne	r0, r0, r0, r1	; <UNPREDICTABLE>

40008250 <led>:
40008250:	e52db004 	push	{fp}		; (str fp, [sp, #-4]!)
40008254:	e28db000 	add	fp, sp, #0
40008258:	e24dd008 	sub	sp, sp, #8
4000825c:	e1a02000 	mov	r2, r0
40008260:	e1a03001 	mov	r3, r1
40008264:	e54b2004 	strb	r2, [fp, #-4]
40008268:	e54b3008 	strb	r3, [fp, #-8]
4000826c:	e55b3008 	ldrb	r3, [fp, #-8]
40008270:	e3530000 	cmp	r3, #0
40008274:	0a000025 	beq	40008310 <led+0xc0>
40008278:	e55b3004 	ldrb	r3, [fp, #-4]
4000827c:	e2033001 	and	r3, r3, #1
40008280:	e6ef3073 	uxtb	r3, r3
40008284:	e3530000 	cmp	r3, #0
40008288:	0a000004 	beq	400082a0 <led+0x50>
4000828c:	e59f3118 	ldr	r3, [pc, #280]	; 400083ac <led+0x15c>
40008290:	e59f2114 	ldr	r2, [pc, #276]	; 400083ac <led+0x15c>
40008294:	e5922004 	ldr	r2, [r2, #4]
40008298:	e3822080 	orr	r2, r2, #128	; 0x80
4000829c:	e5832004 	str	r2, [r3, #4]
400082a0:	e55b3004 	ldrb	r3, [fp, #-4]
400082a4:	e2033002 	and	r3, r3, #2
400082a8:	e3530000 	cmp	r3, #0
400082ac:	0a000004 	beq	400082c4 <led+0x74>
400082b0:	e59f30f8 	ldr	r3, [pc, #248]	; 400083b0 <led+0x160>
400082b4:	e59f20f4 	ldr	r2, [pc, #244]	; 400083b0 <led+0x160>
400082b8:	e5922004 	ldr	r2, [r2, #4]
400082bc:	e3822001 	orr	r2, r2, #1
400082c0:	e5832004 	str	r2, [r3, #4]
400082c4:	e55b3004 	ldrb	r3, [fp, #-4]
400082c8:	e2033004 	and	r3, r3, #4
400082cc:	e3530000 	cmp	r3, #0
400082d0:	0a000004 	beq	400082e8 <led+0x98>
400082d4:	e59f30d8 	ldr	r3, [pc, #216]	; 400083b4 <led+0x164>
400082d8:	e59f20d4 	ldr	r2, [pc, #212]	; 400083b4 <led+0x164>
400082dc:	e5922004 	ldr	r2, [r2, #4]
400082e0:	e3822010 	orr	r2, r2, #16
400082e4:	e5832004 	str	r2, [r3, #4]
400082e8:	e55b3004 	ldrb	r3, [fp, #-4]
400082ec:	e2033008 	and	r3, r3, #8
400082f0:	e3530000 	cmp	r3, #0
400082f4:	0a000029 	beq	400083a0 <led+0x150>
400082f8:	e59f30b4 	ldr	r3, [pc, #180]	; 400083b4 <led+0x164>
400082fc:	e59f20b0 	ldr	r2, [pc, #176]	; 400083b4 <led+0x164>
40008300:	e5922004 	ldr	r2, [r2, #4]
40008304:	e3822020 	orr	r2, r2, #32
40008308:	e5832004 	str	r2, [r3, #4]
4000830c:	ea000023 	b	400083a0 <led+0x150>
40008310:	e55b3004 	ldrb	r3, [fp, #-4]
40008314:	e2033001 	and	r3, r3, #1
40008318:	e3530000 	cmp	r3, #0
4000831c:	1a000004 	bne	40008334 <led+0xe4>
40008320:	e59f3084 	ldr	r3, [pc, #132]	; 400083ac <led+0x15c>
40008324:	e59f2080 	ldr	r2, [pc, #128]	; 400083ac <led+0x15c>
40008328:	e5922004 	ldr	r2, [r2, #4]
4000832c:	e3c22080 	bic	r2, r2, #128	; 0x80
40008330:	e5832004 	str	r2, [r3, #4]
40008334:	e55b3004 	ldrb	r3, [fp, #-4]
40008338:	e2033002 	and	r3, r3, #2
4000833c:	e3530000 	cmp	r3, #0
40008340:	1a000004 	bne	40008358 <led+0x108>
40008344:	e59f3064 	ldr	r3, [pc, #100]	; 400083b0 <led+0x160>
40008348:	e59f2060 	ldr	r2, [pc, #96]	; 400083b0 <led+0x160>
4000834c:	e5922004 	ldr	r2, [r2, #4]
40008350:	e3c22001 	bic	r2, r2, #1
40008354:	e5832004 	str	r2, [r3, #4]
40008358:	e55b3004 	ldrb	r3, [fp, #-4]
4000835c:	e2033004 	and	r3, r3, #4
40008360:	e3530000 	cmp	r3, #0
40008364:	1a000004 	bne	4000837c <led+0x12c>
40008368:	e59f3044 	ldr	r3, [pc, #68]	; 400083b4 <led+0x164>
4000836c:	e59f2040 	ldr	r2, [pc, #64]	; 400083b4 <led+0x164>
40008370:	e5922004 	ldr	r2, [r2, #4]
40008374:	e3c22010 	bic	r2, r2, #16
40008378:	e5832004 	str	r2, [r3, #4]
4000837c:	e55b3004 	ldrb	r3, [fp, #-4]
40008380:	e2033008 	and	r3, r3, #8
40008384:	e3530000 	cmp	r3, #0
40008388:	1a000004 	bne	400083a0 <led+0x150>
4000838c:	e59f3020 	ldr	r3, [pc, #32]	; 400083b4 <led+0x164>
40008390:	e59f201c 	ldr	r2, [pc, #28]	; 400083b4 <led+0x164>
40008394:	e5922004 	ldr	r2, [r2, #4]
40008398:	e3c22020 	bic	r2, r2, #32
4000839c:	e5832004 	str	r2, [r3, #4]
400083a0:	e28bd000 	add	sp, fp, #0
400083a4:	e8bd0800 	ldmfd	sp!, {fp}
400083a8:	e12fff1e 	bx	lr
400083ac:	11000c40 	tstne	r0, r0, asr #24
400083b0:	11000c20 	tstne	r0, r0, lsr #24
400083b4:	114001e0 	smlalttne	r0, r0, r0, r1	; <UNPREDICTABLE>

400083b8 <get_led_flag>:
400083b8:	e52db004 	push	{fp}		; (str fp, [sp, #-4]!)
400083bc:	e28db000 	add	fp, sp, #0
400083c0:	e24dd004 	sub	sp, sp, #4
400083c4:	e3a03000 	mov	r3, #0
400083c8:	e54b3001 	strb	r3, [fp, #-1]
400083cc:	e59f3090 	ldr	r3, [pc, #144]	; 40008464 <get_led_flag+0xac>
400083d0:	e5933004 	ldr	r3, [r3, #4]
400083d4:	e2033080 	and	r3, r3, #128	; 0x80
400083d8:	e3530000 	cmp	r3, #0
400083dc:	0a000002 	beq	400083ec <get_led_flag+0x34>
400083e0:	e55b3001 	ldrb	r3, [fp, #-1]
400083e4:	e3833001 	orr	r3, r3, #1
400083e8:	e54b3001 	strb	r3, [fp, #-1]
400083ec:	e59f3074 	ldr	r3, [pc, #116]	; 40008468 <get_led_flag+0xb0>
400083f0:	e5933004 	ldr	r3, [r3, #4]
400083f4:	e2033001 	and	r3, r3, #1
400083f8:	e6ef3073 	uxtb	r3, r3
400083fc:	e3530000 	cmp	r3, #0
40008400:	0a000002 	beq	40008410 <get_led_flag+0x58>
40008404:	e55b3001 	ldrb	r3, [fp, #-1]
40008408:	e3833002 	orr	r3, r3, #2
4000840c:	e54b3001 	strb	r3, [fp, #-1]
40008410:	e59f3054 	ldr	r3, [pc, #84]	; 4000846c <get_led_flag+0xb4>
40008414:	e5933004 	ldr	r3, [r3, #4]
40008418:	e2033010 	and	r3, r3, #16
4000841c:	e3530000 	cmp	r3, #0
40008420:	0a000002 	beq	40008430 <get_led_flag+0x78>
40008424:	e55b3001 	ldrb	r3, [fp, #-1]
40008428:	e3833004 	orr	r3, r3, #4
4000842c:	e54b3001 	strb	r3, [fp, #-1]
40008430:	e59f3034 	ldr	r3, [pc, #52]	; 4000846c <get_led_flag+0xb4>
40008434:	e5933004 	ldr	r3, [r3, #4]
40008438:	e2033020 	and	r3, r3, #32
4000843c:	e3530000 	cmp	r3, #0
40008440:	0a000002 	beq	40008450 <get_led_flag+0x98>
40008444:	e55b3001 	ldrb	r3, [fp, #-1]
40008448:	e3833008 	orr	r3, r3, #8
4000844c:	e54b3001 	strb	r3, [fp, #-1]
40008450:	e55b3001 	ldrb	r3, [fp, #-1]
40008454:	e1a00003 	mov	r0, r3
40008458:	e28bd000 	add	sp, fp, #0
4000845c:	e8bd0800 	ldmfd	sp!, {fp}
40008460:	e12fff1e 	bx	lr
40008464:	11000c40 	tstne	r0, r0, asr #24
40008468:	11000c20 	tstne	r0, r0, lsr #24
4000846c:	114001e0 	smlalttne	r0, r0, r0, r1	; <UNPREDICTABLE>

40008470 <led_dj>:
40008470:	e92d4800 	push	{fp, lr}
40008474:	e28db004 	add	fp, sp, #4
40008478:	e24dd004 	sub	sp, sp, #4
4000847c:	e50b0008 	str	r0, [fp, #-8]
40008480:	e51b3008 	ldr	r3, [fp, #-8]
40008484:	e3530018 	cmp	r3, #24
40008488:	ca000006 	bgt	400084a8 <led_dj+0x38>
4000848c:	e3a000f0 	mov	r0, #240	; 0xf0
40008490:	e3a01000 	mov	r1, #0
40008494:	ebffff6d 	bl	40008250 <led>
40008498:	e3a00008 	mov	r0, #8
4000849c:	e3a01001 	mov	r1, #1
400084a0:	ebffff6a 	bl	40008250 <led>
400084a4:	ea00001f 	b	40008528 <led_dj+0xb8>
400084a8:	e51b3008 	ldr	r3, [fp, #-8]
400084ac:	e3530019 	cmp	r3, #25
400084b0:	da000009 	ble	400084dc <led_dj+0x6c>
400084b4:	e51b3008 	ldr	r3, [fp, #-8]
400084b8:	e3530031 	cmp	r3, #49	; 0x31
400084bc:	ca000006 	bgt	400084dc <led_dj+0x6c>
400084c0:	e3a000f0 	mov	r0, #240	; 0xf0
400084c4:	e3a01000 	mov	r1, #0
400084c8:	ebffff60 	bl	40008250 <led>
400084cc:	e3a00004 	mov	r0, #4
400084d0:	e3a01001 	mov	r1, #1
400084d4:	ebffff5d 	bl	40008250 <led>
400084d8:	ea000012 	b	40008528 <led_dj+0xb8>
400084dc:	e51b3008 	ldr	r3, [fp, #-8]
400084e0:	e3530032 	cmp	r3, #50	; 0x32
400084e4:	da000009 	ble	40008510 <led_dj+0xa0>
400084e8:	e51b3008 	ldr	r3, [fp, #-8]
400084ec:	e353004a 	cmp	r3, #74	; 0x4a
400084f0:	ca000006 	bgt	40008510 <led_dj+0xa0>
400084f4:	e3a000f0 	mov	r0, #240	; 0xf0
400084f8:	e3a01000 	mov	r1, #0
400084fc:	ebffff53 	bl	40008250 <led>
40008500:	e3a00002 	mov	r0, #2
40008504:	e3a01001 	mov	r1, #1
40008508:	ebffff50 	bl	40008250 <led>
4000850c:	ea000005 	b	40008528 <led_dj+0xb8>
40008510:	e3a000f0 	mov	r0, #240	; 0xf0
40008514:	e3a01000 	mov	r1, #0
40008518:	ebffff4c 	bl	40008250 <led>
4000851c:	e3a00001 	mov	r0, #1
40008520:	e3a01001 	mov	r1, #1
40008524:	ebffff49 	bl	40008250 <led>
40008528:	e24bd004 	sub	sp, fp, #4
4000852c:	e8bd8800 	pop	{fp, pc}

40008530 <main>:
40008530:	e92d4800 	push	{fp, lr}
40008534:	e28db004 	add	fp, sp, #4
40008538:	e24dd018 	sub	sp, sp, #24
4000853c:	e3a03001 	mov	r3, #1
40008540:	e50b3014 	str	r3, [fp, #-20]
40008544:	e3a03000 	mov	r3, #0
40008548:	e50b301c 	str	r3, [fp, #-28]
4000854c:	eb00059e 	bl	40009bcc <uart_init>
40008550:	eb000519 	bl	400099bc <delay_init>
40008554:	ebfffee9 	bl	40008100 <adc_init>
40008558:	eb000517 	bl	400099bc <delay_init>
4000855c:	ebffff21 	bl	400081e8 <led_init>
40008560:	e59f3264 	ldr	r3, [pc, #612]	; 400087cc <main+0x29c>
40008564:	e5933004 	ldr	r3, [r3, #4]
40008568:	e2033002 	and	r3, r3, #2
4000856c:	e3530000 	cmp	r3, #0
40008570:	1a000003 	bne	40008584 <main+0x54>
40008574:	e3a03001 	mov	r3, #1
40008578:	e50b3014 	str	r3, [fp, #-20]
4000857c:	e3a03000 	mov	r3, #0
40008580:	e50b3008 	str	r3, [fp, #-8]
40008584:	e59f3240 	ldr	r3, [pc, #576]	; 400087cc <main+0x29c>
40008588:	e5933004 	ldr	r3, [r3, #4]
4000858c:	e2033004 	and	r3, r3, #4
40008590:	e3530000 	cmp	r3, #0
40008594:	1a000003 	bne	400085a8 <main+0x78>
40008598:	e3a03002 	mov	r3, #2
4000859c:	e50b3014 	str	r3, [fp, #-20]
400085a0:	e3a03000 	mov	r3, #0
400085a4:	e50b3008 	str	r3, [fp, #-8]
400085a8:	e59f3220 	ldr	r3, [pc, #544]	; 400087d0 <main+0x2a0>
400085ac:	e5933004 	ldr	r3, [r3, #4]
400085b0:	e2033004 	and	r3, r3, #4
400085b4:	e3530000 	cmp	r3, #0
400085b8:	1a00001e 	bne	40008638 <main+0x108>
400085bc:	eb000562 	bl	40009b4c <pwm_stop>
400085c0:	e3a03003 	mov	r3, #3
400085c4:	e50b3014 	str	r3, [fp, #-20]
400085c8:	e3a00002 	mov	r0, #2
400085cc:	eb000569 	bl	40009b78 <delayms>
400085d0:	e59f01fc 	ldr	r0, [pc, #508]	; 400087d4 <main+0x2a4>
400085d4:	e51b1018 	ldr	r1, [fp, #-24]
400085d8:	e51b2014 	ldr	r2, [fp, #-20]
400085dc:	eb0004e0 	bl	40009964 <printf>
400085e0:	ea000000 	b	400085e8 <main+0xb8>
400085e4:	e1a00000 	nop			; (mov r0, r0)
400085e8:	e59f31dc 	ldr	r3, [pc, #476]	; 400087cc <main+0x29c>
400085ec:	e5933004 	ldr	r3, [r3, #4]
400085f0:	e2033002 	and	r3, r3, #2
400085f4:	e3530000 	cmp	r3, #0
400085f8:	1a000004 	bne	40008610 <main+0xe0>
400085fc:	e3a03001 	mov	r3, #1
40008600:	e50b3014 	str	r3, [fp, #-20]
40008604:	e3a03000 	mov	r3, #0
40008608:	e50b3008 	str	r3, [fp, #-8]
4000860c:	ea000009 	b	40008638 <main+0x108>
40008610:	e59f31b4 	ldr	r3, [pc, #436]	; 400087cc <main+0x29c>
40008614:	e5933004 	ldr	r3, [r3, #4]
40008618:	e2033004 	and	r3, r3, #4
4000861c:	e3530000 	cmp	r3, #0
40008620:	1affffef 	bne	400085e4 <main+0xb4>
40008624:	e3a03001 	mov	r3, #1
40008628:	e50b3014 	str	r3, [fp, #-20]
4000862c:	e3a03000 	mov	r3, #0
40008630:	e50b3008 	str	r3, [fp, #-8]
40008634:	e1a00000 	nop			; (mov r0, r0)
40008638:	e3a03000 	mov	r3, #0
4000863c:	e50b301c 	str	r3, [fp, #-28]
40008640:	e59f1190 	ldr	r1, [pc, #400]	; 400087d8 <main+0x2a8>
40008644:	e51b2008 	ldr	r2, [fp, #-8]
40008648:	e3a03002 	mov	r3, #2
4000864c:	e1a02102 	lsl	r2, r2, #2
40008650:	e0812002 	add	r2, r1, r2
40008654:	e0823003 	add	r3, r2, r3
40008658:	e1d330b0 	ldrh	r3, [r3]
4000865c:	e3530000 	cmp	r3, #0
40008660:	1a000001 	bne	4000866c <main+0x13c>
40008664:	e3a03000 	mov	r3, #0
40008668:	e50b3008 	str	r3, [fp, #-8]
4000866c:	e59f1168 	ldr	r1, [pc, #360]	; 400087dc <main+0x2ac>
40008670:	e51b2008 	ldr	r2, [fp, #-8]
40008674:	e3a03002 	mov	r3, #2
40008678:	e1a02102 	lsl	r2, r2, #2
4000867c:	e0812002 	add	r2, r1, r2
40008680:	e0823003 	add	r3, r2, r3
40008684:	e1d330b0 	ldrh	r3, [r3]
40008688:	e3530000 	cmp	r3, #0
4000868c:	1a000001 	bne	40008698 <main+0x168>
40008690:	e3a03000 	mov	r3, #0
40008694:	e50b3008 	str	r3, [fp, #-8]
40008698:	ebfffeb7 	bl	4000817c <get_adc_data>
4000869c:	e1a03000 	mov	r3, r0
400086a0:	e50b3018 	str	r3, [fp, #-24]
400086a4:	e51b2018 	ldr	r2, [fp, #-24]
400086a8:	e59f3130 	ldr	r3, [pc, #304]	; 400087e0 <main+0x2b0>
400086ac:	e0831293 	umull	r1, r3, r3, r2
400086b0:	e1a032a3 	lsr	r3, r3, #5
400086b4:	e50b3018 	str	r3, [fp, #-24]
400086b8:	e59f0114 	ldr	r0, [pc, #276]	; 400087d4 <main+0x2a4>
400086bc:	e51b1018 	ldr	r1, [fp, #-24]
400086c0:	e51b2014 	ldr	r2, [fp, #-20]
400086c4:	eb0004a6 	bl	40009964 <printf>
400086c8:	e51b3014 	ldr	r3, [fp, #-20]
400086cc:	e3530001 	cmp	r3, #1
400086d0:	1a000015 	bne	4000872c <main+0x1fc>
400086d4:	e59f20fc 	ldr	r2, [pc, #252]	; 400087d8 <main+0x2a8>
400086d8:	e51b3008 	ldr	r3, [fp, #-8]
400086dc:	e1a03103 	lsl	r3, r3, #2
400086e0:	e0823003 	add	r3, r2, r3
400086e4:	e1d330b0 	ldrh	r3, [r3]
400086e8:	e6bf3073 	sxth	r3, r3
400086ec:	e2832003 	add	r2, r3, #3
400086f0:	e3530000 	cmp	r3, #0
400086f4:	b1a03002 	movlt	r3, r2
400086f8:	e1a03143 	asr	r3, r3, #2
400086fc:	e6ff3073 	uxth	r3, r3
40008700:	e6bf3073 	sxth	r3, r3
40008704:	e50b300c 	str	r3, [fp, #-12]
40008708:	e59f10c8 	ldr	r1, [pc, #200]	; 400087d8 <main+0x2a8>
4000870c:	e51b2008 	ldr	r2, [fp, #-8]
40008710:	e3a03002 	mov	r3, #2
40008714:	e1a02102 	lsl	r2, r2, #2
40008718:	e0812002 	add	r2, r1, r2
4000871c:	e0823003 	add	r3, r2, r3
40008720:	e1d330b0 	ldrh	r3, [r3]
40008724:	e6bf3073 	sxth	r3, r3
40008728:	e50b3010 	str	r3, [fp, #-16]
4000872c:	e51b3014 	ldr	r3, [fp, #-20]
40008730:	e3530002 	cmp	r3, #2
40008734:	1a000015 	bne	40008790 <main+0x260>
40008738:	e59f209c 	ldr	r2, [pc, #156]	; 400087dc <main+0x2ac>
4000873c:	e51b3008 	ldr	r3, [fp, #-8]
40008740:	e1a03103 	lsl	r3, r3, #2
40008744:	e0823003 	add	r3, r2, r3
40008748:	e1d330b0 	ldrh	r3, [r3]
4000874c:	e6bf3073 	sxth	r3, r3
40008750:	e2832003 	add	r2, r3, #3
40008754:	e3530000 	cmp	r3, #0
40008758:	b1a03002 	movlt	r3, r2
4000875c:	e1a03143 	asr	r3, r3, #2
40008760:	e6ff3073 	uxth	r3, r3
40008764:	e6bf3073 	sxth	r3, r3
40008768:	e50b300c 	str	r3, [fp, #-12]
4000876c:	e59f1068 	ldr	r1, [pc, #104]	; 400087dc <main+0x2ac>
40008770:	e51b2008 	ldr	r2, [fp, #-8]
40008774:	e3a03002 	mov	r3, #2
40008778:	e1a02102 	lsl	r2, r2, #2
4000877c:	e0812002 	add	r2, r1, r2
40008780:	e0823003 	add	r3, r2, r3
40008784:	e1d330b0 	ldrh	r3, [r3]
40008788:	e6bf3073 	sxth	r3, r3
4000878c:	e50b3010 	str	r3, [fp, #-16]
40008790:	e51b300c 	ldr	r3, [fp, #-12]
40008794:	e1a00003 	mov	r0, r3
40008798:	e51b1018 	ldr	r1, [fp, #-24]
4000879c:	eb0004ae 	bl	40009a5c <pwm_init>
400087a0:	e51b3018 	ldr	r3, [fp, #-24]
400087a4:	e1a00003 	mov	r0, r3
400087a8:	ebffff30 	bl	40008470 <led_dj>
400087ac:	e51b3010 	ldr	r3, [fp, #-16]
400087b0:	e1a00003 	mov	r0, r3
400087b4:	eb0004ef 	bl	40009b78 <delayms>
400087b8:	e51b3008 	ldr	r3, [fp, #-8]
400087bc:	e2833001 	add	r3, r3, #1
400087c0:	e50b3008 	str	r3, [fp, #-8]
400087c4:	eb0004d5 	bl	40009b20 <pwm_start>
400087c8:	eaffff64 	b	40008560 <main+0x30>
400087cc:	11000c20 	tstne	r0, r0, lsr #24
400087d0:	11000c60 	tstne	r0, r0, ror #24
400087d4:	4000a6d4 	ldrdmi	sl, [r0], -r4
400087d8:	40009e04 	andmi	r9, r0, r4, lsl #28
400087dc:	4000a29c 	mulmi	r0, ip, r2
400087e0:	cccccccd 	stclgt	12, cr12, [ip], {205}	; 0xcd

400087e4 <__toupper>:
400087e4:	e52db004 	push	{fp}		; (str fp, [sp, #-4]!)
400087e8:	e28db000 	add	fp, sp, #0
400087ec:	e24dd004 	sub	sp, sp, #4
400087f0:	e1a03000 	mov	r3, r0
400087f4:	e54b3004 	strb	r3, [fp, #-4]
400087f8:	e55b3004 	ldrb	r3, [fp, #-4]
400087fc:	e59f202c 	ldr	r2, [pc, #44]	; 40008830 <__toupper+0x4c>
40008800:	e7d23003 	ldrb	r3, [r2, r3]
40008804:	e2033002 	and	r3, r3, #2
40008808:	e3530000 	cmp	r3, #0
4000880c:	0a000002 	beq	4000881c <__toupper+0x38>
40008810:	e55b3004 	ldrb	r3, [fp, #-4]
40008814:	e2433020 	sub	r3, r3, #32
40008818:	e54b3004 	strb	r3, [fp, #-4]
4000881c:	e55b3004 	ldrb	r3, [fp, #-4]
40008820:	e1a00003 	mov	r0, r3
40008824:	e28bd000 	add	sp, fp, #0
40008828:	e8bd0800 	ldmfd	sp!, {fp}
4000882c:	e12fff1e 	bx	lr
40008830:	4000a740 	andmi	sl, r0, r0, asr #14

40008834 <simple_strtoul>:
40008834:	e92d4800 	push	{fp, lr}
40008838:	e28db004 	add	fp, sp, #4
4000883c:	e24dd014 	sub	sp, sp, #20
40008840:	e50b0010 	str	r0, [fp, #-16]
40008844:	e50b1014 	str	r1, [fp, #-20]
40008848:	e50b2018 	str	r2, [fp, #-24]
4000884c:	e3a03000 	mov	r3, #0
40008850:	e50b3008 	str	r3, [fp, #-8]
40008854:	e51b3010 	ldr	r3, [fp, #-16]
40008858:	e5d33000 	ldrb	r3, [r3]
4000885c:	e3530030 	cmp	r3, #48	; 0x30
40008860:	1a000018 	bne	400088c8 <simple_strtoul+0x94>
40008864:	e51b3010 	ldr	r3, [fp, #-16]
40008868:	e2833001 	add	r3, r3, #1
4000886c:	e50b3010 	str	r3, [fp, #-16]
40008870:	e51b3010 	ldr	r3, [fp, #-16]
40008874:	e5d33000 	ldrb	r3, [r3]
40008878:	e3530078 	cmp	r3, #120	; 0x78
4000887c:	1a00000c 	bne	400088b4 <simple_strtoul+0x80>
40008880:	e51b3010 	ldr	r3, [fp, #-16]
40008884:	e2833001 	add	r3, r3, #1
40008888:	e5d33000 	ldrb	r3, [r3]
4000888c:	e59f2140 	ldr	r2, [pc, #320]	; 400089d4 <simple_strtoul+0x1a0>
40008890:	e7d23003 	ldrb	r3, [r2, r3]
40008894:	e2033044 	and	r3, r3, #68	; 0x44
40008898:	e3530000 	cmp	r3, #0
4000889c:	0a000004 	beq	400088b4 <simple_strtoul+0x80>
400088a0:	e3a03010 	mov	r3, #16
400088a4:	e50b3018 	str	r3, [fp, #-24]
400088a8:	e51b3010 	ldr	r3, [fp, #-16]
400088ac:	e2833001 	add	r3, r3, #1
400088b0:	e50b3010 	str	r3, [fp, #-16]
400088b4:	e51b3018 	ldr	r3, [fp, #-24]
400088b8:	e3530000 	cmp	r3, #0
400088bc:	1a000001 	bne	400088c8 <simple_strtoul+0x94>
400088c0:	e3a03008 	mov	r3, #8
400088c4:	e50b3018 	str	r3, [fp, #-24]
400088c8:	e51b3018 	ldr	r3, [fp, #-24]
400088cc:	e3530000 	cmp	r3, #0
400088d0:	1a00000c 	bne	40008908 <simple_strtoul+0xd4>
400088d4:	e3a0300a 	mov	r3, #10
400088d8:	e50b3018 	str	r3, [fp, #-24]
400088dc:	ea000009 	b	40008908 <simple_strtoul+0xd4>
400088e0:	e51b3008 	ldr	r3, [fp, #-8]
400088e4:	e51b2018 	ldr	r2, [fp, #-24]
400088e8:	e0020392 	mul	r2, r2, r3
400088ec:	e51b300c 	ldr	r3, [fp, #-12]
400088f0:	e0823003 	add	r3, r2, r3
400088f4:	e50b3008 	str	r3, [fp, #-8]
400088f8:	e51b3010 	ldr	r3, [fp, #-16]
400088fc:	e2833001 	add	r3, r3, #1
40008900:	e50b3010 	str	r3, [fp, #-16]
40008904:	ea000000 	b	4000890c <simple_strtoul+0xd8>
40008908:	e1a00000 	nop			; (mov r0, r0)
4000890c:	e51b3010 	ldr	r3, [fp, #-16]
40008910:	e5d33000 	ldrb	r3, [r3]
40008914:	e59f20b8 	ldr	r2, [pc, #184]	; 400089d4 <simple_strtoul+0x1a0>
40008918:	e7d23003 	ldrb	r3, [r2, r3]
4000891c:	e2033044 	and	r3, r3, #68	; 0x44
40008920:	e3530000 	cmp	r3, #0
40008924:	0a000020 	beq	400089ac <simple_strtoul+0x178>
40008928:	e51b3010 	ldr	r3, [fp, #-16]
4000892c:	e5d33000 	ldrb	r3, [r3]
40008930:	e59f209c 	ldr	r2, [pc, #156]	; 400089d4 <simple_strtoul+0x1a0>
40008934:	e7d23003 	ldrb	r3, [r2, r3]
40008938:	e2033004 	and	r3, r3, #4
4000893c:	e3530000 	cmp	r3, #0
40008940:	0a000003 	beq	40008954 <simple_strtoul+0x120>
40008944:	e51b3010 	ldr	r3, [fp, #-16]
40008948:	e5d33000 	ldrb	r3, [r3]
4000894c:	e2433030 	sub	r3, r3, #48	; 0x30
40008950:	ea000010 	b	40008998 <simple_strtoul+0x164>
40008954:	e51b3010 	ldr	r3, [fp, #-16]
40008958:	e5d33000 	ldrb	r3, [r3]
4000895c:	e59f2070 	ldr	r2, [pc, #112]	; 400089d4 <simple_strtoul+0x1a0>
40008960:	e7d23003 	ldrb	r3, [r2, r3]
40008964:	e2033002 	and	r3, r3, #2
40008968:	e3530000 	cmp	r3, #0
4000896c:	0a000006 	beq	4000898c <simple_strtoul+0x158>
40008970:	e51b3010 	ldr	r3, [fp, #-16]
40008974:	e5d33000 	ldrb	r3, [r3]
40008978:	e1a00003 	mov	r0, r3
4000897c:	ebffff98 	bl	400087e4 <__toupper>
40008980:	e1a03000 	mov	r3, r0
40008984:	e2433037 	sub	r3, r3, #55	; 0x37
40008988:	ea000002 	b	40008998 <simple_strtoul+0x164>
4000898c:	e51b3010 	ldr	r3, [fp, #-16]
40008990:	e5d33000 	ldrb	r3, [r3]
40008994:	e2433037 	sub	r3, r3, #55	; 0x37
40008998:	e50b300c 	str	r3, [fp, #-12]
4000899c:	e51b200c 	ldr	r2, [fp, #-12]
400089a0:	e51b3018 	ldr	r3, [fp, #-24]
400089a4:	e1520003 	cmp	r2, r3
400089a8:	3affffcc 	bcc	400088e0 <simple_strtoul+0xac>
400089ac:	e51b3014 	ldr	r3, [fp, #-20]
400089b0:	e3530000 	cmp	r3, #0
400089b4:	0a000002 	beq	400089c4 <simple_strtoul+0x190>
400089b8:	e51b3014 	ldr	r3, [fp, #-20]
400089bc:	e51b2010 	ldr	r2, [fp, #-16]
400089c0:	e5832000 	str	r2, [r3]
400089c4:	e51b3008 	ldr	r3, [fp, #-8]
400089c8:	e1a00003 	mov	r0, r3
400089cc:	e24bd004 	sub	sp, fp, #4
400089d0:	e8bd8800 	pop	{fp, pc}
400089d4:	4000a740 	andmi	sl, r0, r0, asr #14

400089d8 <simple_strtol>:
400089d8:	e92d4800 	push	{fp, lr}
400089dc:	e28db004 	add	fp, sp, #4
400089e0:	e24dd00c 	sub	sp, sp, #12
400089e4:	e50b0008 	str	r0, [fp, #-8]
400089e8:	e50b100c 	str	r1, [fp, #-12]
400089ec:	e50b2010 	str	r2, [fp, #-16]
400089f0:	e51b3008 	ldr	r3, [fp, #-8]
400089f4:	e5d33000 	ldrb	r3, [r3]
400089f8:	e353002d 	cmp	r3, #45	; 0x2d
400089fc:	1a000008 	bne	40008a24 <simple_strtol+0x4c>
40008a00:	e51b3008 	ldr	r3, [fp, #-8]
40008a04:	e2833001 	add	r3, r3, #1
40008a08:	e1a00003 	mov	r0, r3
40008a0c:	e51b100c 	ldr	r1, [fp, #-12]
40008a10:	e51b2010 	ldr	r2, [fp, #-16]
40008a14:	ebffff86 	bl	40008834 <simple_strtoul>
40008a18:	e1a03000 	mov	r3, r0
40008a1c:	e2633000 	rsb	r3, r3, #0
40008a20:	ea000004 	b	40008a38 <simple_strtol+0x60>
40008a24:	e51b0008 	ldr	r0, [fp, #-8]
40008a28:	e51b100c 	ldr	r1, [fp, #-12]
40008a2c:	e51b2010 	ldr	r2, [fp, #-16]
40008a30:	ebffff7f 	bl	40008834 <simple_strtoul>
40008a34:	e1a03000 	mov	r3, r0
40008a38:	e1a00003 	mov	r0, r3
40008a3c:	e24bd004 	sub	sp, fp, #4
40008a40:	e8bd8800 	pop	{fp, pc}

40008a44 <skip_atoi>:
40008a44:	e52db004 	push	{fp}		; (str fp, [sp, #-4]!)
40008a48:	e28db000 	add	fp, sp, #0
40008a4c:	e24dd008 	sub	sp, sp, #8
40008a50:	e50b0008 	str	r0, [fp, #-8]
40008a54:	e3a03000 	mov	r3, #0
40008a58:	e50b3004 	str	r3, [fp, #-4]
40008a5c:	ea00000e 	b	40008a9c <skip_atoi+0x58>
40008a60:	e51b2004 	ldr	r2, [fp, #-4]
40008a64:	e1a03002 	mov	r3, r2
40008a68:	e1a03103 	lsl	r3, r3, #2
40008a6c:	e0833002 	add	r3, r3, r2
40008a70:	e1a03083 	lsl	r3, r3, #1
40008a74:	e1a01003 	mov	r1, r3
40008a78:	e51b3008 	ldr	r3, [fp, #-8]
40008a7c:	e5933000 	ldr	r3, [r3]
40008a80:	e5d32000 	ldrb	r2, [r3]
40008a84:	e0812002 	add	r2, r1, r2
40008a88:	e2422030 	sub	r2, r2, #48	; 0x30
40008a8c:	e50b2004 	str	r2, [fp, #-4]
40008a90:	e2832001 	add	r2, r3, #1
40008a94:	e51b3008 	ldr	r3, [fp, #-8]
40008a98:	e5832000 	str	r2, [r3]
40008a9c:	e51b3008 	ldr	r3, [fp, #-8]
40008aa0:	e5933000 	ldr	r3, [r3]
40008aa4:	e5d33000 	ldrb	r3, [r3]
40008aa8:	e353002f 	cmp	r3, #47	; 0x2f
40008aac:	9a000004 	bls	40008ac4 <skip_atoi+0x80>
40008ab0:	e51b3008 	ldr	r3, [fp, #-8]
40008ab4:	e5933000 	ldr	r3, [r3]
40008ab8:	e5d33000 	ldrb	r3, [r3]
40008abc:	e3530039 	cmp	r3, #57	; 0x39
40008ac0:	9affffe6 	bls	40008a60 <skip_atoi+0x1c>
40008ac4:	e51b3004 	ldr	r3, [fp, #-4]
40008ac8:	e1a00003 	mov	r0, r3
40008acc:	e28bd000 	add	sp, fp, #0
40008ad0:	e8bd0800 	ldmfd	sp!, {fp}
40008ad4:	e12fff1e 	bx	lr

40008ad8 <number>:
40008ad8:	e92d4800 	push	{fp, lr}
40008adc:	e28db004 	add	fp, sp, #4
40008ae0:	e24dd068 	sub	sp, sp, #104	; 0x68
40008ae4:	e50b0060 	str	r0, [fp, #-96]	; 0x60
40008ae8:	e50b1064 	str	r1, [fp, #-100]	; 0x64
40008aec:	e50b2068 	str	r2, [fp, #-104]	; 0x68
40008af0:	e50b306c 	str	r3, [fp, #-108]	; 0x6c
40008af4:	e59f3468 	ldr	r3, [pc, #1128]	; 40008f64 <number+0x48c>
40008af8:	e50b300c 	str	r3, [fp, #-12]
40008afc:	e59b3008 	ldr	r3, [fp, #8]
40008b00:	e2033040 	and	r3, r3, #64	; 0x40
40008b04:	e3530000 	cmp	r3, #0
40008b08:	0a000001 	beq	40008b14 <number+0x3c>
40008b0c:	e59f3454 	ldr	r3, [pc, #1108]	; 40008f68 <number+0x490>
40008b10:	e50b300c 	str	r3, [fp, #-12]
40008b14:	e59b3008 	ldr	r3, [fp, #8]
40008b18:	e2033010 	and	r3, r3, #16
40008b1c:	e3530000 	cmp	r3, #0
40008b20:	0a000002 	beq	40008b30 <number+0x58>
40008b24:	e59b3008 	ldr	r3, [fp, #8]
40008b28:	e3c33001 	bic	r3, r3, #1
40008b2c:	e58b3008 	str	r3, [fp, #8]
40008b30:	e51b3068 	ldr	r3, [fp, #-104]	; 0x68
40008b34:	e3530001 	cmp	r3, #1
40008b38:	9a000002 	bls	40008b48 <number+0x70>
40008b3c:	e51b3068 	ldr	r3, [fp, #-104]	; 0x68
40008b40:	e3530024 	cmp	r3, #36	; 0x24
40008b44:	9a000001 	bls	40008b50 <number+0x78>
40008b48:	e3a03000 	mov	r3, #0
40008b4c:	ea000101 	b	40008f58 <number+0x480>
40008b50:	e59b3008 	ldr	r3, [fp, #8]
40008b54:	e2033001 	and	r3, r3, #1
40008b58:	e6ef3073 	uxtb	r3, r3
40008b5c:	e3530000 	cmp	r3, #0
40008b60:	0a000001 	beq	40008b6c <number+0x94>
40008b64:	e3a03030 	mov	r3, #48	; 0x30
40008b68:	ea000000 	b	40008b70 <number+0x98>
40008b6c:	e3a03020 	mov	r3, #32
40008b70:	e54b3011 	strb	r3, [fp, #-17]
40008b74:	e3a03000 	mov	r3, #0
40008b78:	e54b3005 	strb	r3, [fp, #-5]
40008b7c:	e59b3008 	ldr	r3, [fp, #8]
40008b80:	e2033002 	and	r3, r3, #2
40008b84:	e3530000 	cmp	r3, #0
40008b88:	0a00001e 	beq	40008c08 <number+0x130>
40008b8c:	e51b3064 	ldr	r3, [fp, #-100]	; 0x64
40008b90:	e3530000 	cmp	r3, #0
40008b94:	aa000008 	bge	40008bbc <number+0xe4>
40008b98:	e3a0302d 	mov	r3, #45	; 0x2d
40008b9c:	e54b3005 	strb	r3, [fp, #-5]
40008ba0:	e51b3064 	ldr	r3, [fp, #-100]	; 0x64
40008ba4:	e2633000 	rsb	r3, r3, #0
40008ba8:	e50b3064 	str	r3, [fp, #-100]	; 0x64
40008bac:	e51b306c 	ldr	r3, [fp, #-108]	; 0x6c
40008bb0:	e2433001 	sub	r3, r3, #1
40008bb4:	e50b306c 	str	r3, [fp, #-108]	; 0x6c
40008bb8:	ea000012 	b	40008c08 <number+0x130>
40008bbc:	e59b3008 	ldr	r3, [fp, #8]
40008bc0:	e2033004 	and	r3, r3, #4
40008bc4:	e3530000 	cmp	r3, #0
40008bc8:	0a000005 	beq	40008be4 <number+0x10c>
40008bcc:	e3a0302b 	mov	r3, #43	; 0x2b
40008bd0:	e54b3005 	strb	r3, [fp, #-5]
40008bd4:	e51b306c 	ldr	r3, [fp, #-108]	; 0x6c
40008bd8:	e2433001 	sub	r3, r3, #1
40008bdc:	e50b306c 	str	r3, [fp, #-108]	; 0x6c
40008be0:	ea000008 	b	40008c08 <number+0x130>
40008be4:	e59b3008 	ldr	r3, [fp, #8]
40008be8:	e2033008 	and	r3, r3, #8
40008bec:	e3530000 	cmp	r3, #0
40008bf0:	0a000004 	beq	40008c08 <number+0x130>
40008bf4:	e3a03020 	mov	r3, #32
40008bf8:	e54b3005 	strb	r3, [fp, #-5]
40008bfc:	e51b306c 	ldr	r3, [fp, #-108]	; 0x6c
40008c00:	e2433001 	sub	r3, r3, #1
40008c04:	e50b306c 	str	r3, [fp, #-108]	; 0x6c
40008c08:	e59b3008 	ldr	r3, [fp, #8]
40008c0c:	e2033020 	and	r3, r3, #32
40008c10:	e3530000 	cmp	r3, #0
40008c14:	0a00000c 	beq	40008c4c <number+0x174>
40008c18:	e51b3068 	ldr	r3, [fp, #-104]	; 0x68
40008c1c:	e3530010 	cmp	r3, #16
40008c20:	1a000003 	bne	40008c34 <number+0x15c>
40008c24:	e51b306c 	ldr	r3, [fp, #-108]	; 0x6c
40008c28:	e2433002 	sub	r3, r3, #2
40008c2c:	e50b306c 	str	r3, [fp, #-108]	; 0x6c
40008c30:	ea000005 	b	40008c4c <number+0x174>
40008c34:	e51b3068 	ldr	r3, [fp, #-104]	; 0x68
40008c38:	e3530008 	cmp	r3, #8
40008c3c:	1a000002 	bne	40008c4c <number+0x174>
40008c40:	e51b306c 	ldr	r3, [fp, #-108]	; 0x6c
40008c44:	e2433001 	sub	r3, r3, #1
40008c48:	e50b306c 	str	r3, [fp, #-108]	; 0x6c
40008c4c:	e3a03000 	mov	r3, #0
40008c50:	e50b3010 	str	r3, [fp, #-16]
40008c54:	e51b3064 	ldr	r3, [fp, #-100]	; 0x64
40008c58:	e3530000 	cmp	r3, #0
40008c5c:	1a000027 	bne	40008d00 <number+0x228>
40008c60:	e3e03057 	mvn	r3, #87	; 0x57
40008c64:	e51b2010 	ldr	r2, [fp, #-16]
40008c68:	e24b0004 	sub	r0, fp, #4
40008c6c:	e0802002 	add	r2, r0, r2
40008c70:	e0823003 	add	r3, r2, r3
40008c74:	e3a02030 	mov	r2, #48	; 0x30
40008c78:	e5c32000 	strb	r2, [r3]
40008c7c:	e51b3010 	ldr	r3, [fp, #-16]
40008c80:	e2833001 	add	r3, r3, #1
40008c84:	e50b3010 	str	r3, [fp, #-16]
40008c88:	ea00001f 	b	40008d0c <number+0x234>
40008c8c:	e51b2010 	ldr	r2, [fp, #-16]
40008c90:	e59b3004 	ldr	r3, [fp, #4]
40008c94:	e1520003 	cmp	r2, r3
40008c98:	da000018 	ble	40008d00 <number+0x228>
40008c9c:	e51b3064 	ldr	r3, [fp, #-100]	; 0x64
40008ca0:	e1a00003 	mov	r0, r3
40008ca4:	e51b1068 	ldr	r1, [fp, #-104]	; 0x68
40008ca8:	eb000429 	bl	40009d54 <__umodsi3>
40008cac:	e1a03000 	mov	r3, r0
40008cb0:	e50b3018 	str	r3, [fp, #-24]
40008cb4:	e51b3064 	ldr	r3, [fp, #-100]	; 0x64
40008cb8:	e1a00003 	mov	r0, r3
40008cbc:	e51b1068 	ldr	r1, [fp, #-104]	; 0x68
40008cc0:	eb0003fe 	bl	40009cc0 <__udivsi3>
40008cc4:	e1a03000 	mov	r3, r0
40008cc8:	e50b3064 	str	r3, [fp, #-100]	; 0x64
40008ccc:	e51b3018 	ldr	r3, [fp, #-24]
40008cd0:	e51b200c 	ldr	r2, [fp, #-12]
40008cd4:	e0823003 	add	r3, r2, r3
40008cd8:	e5d32000 	ldrb	r2, [r3]
40008cdc:	e3e03057 	mvn	r3, #87	; 0x57
40008ce0:	e51b1010 	ldr	r1, [fp, #-16]
40008ce4:	e24b0004 	sub	r0, fp, #4
40008ce8:	e0801001 	add	r1, r0, r1
40008cec:	e0813003 	add	r3, r1, r3
40008cf0:	e5c32000 	strb	r2, [r3]
40008cf4:	e51b3010 	ldr	r3, [fp, #-16]
40008cf8:	e2833001 	add	r3, r3, #1
40008cfc:	e50b3010 	str	r3, [fp, #-16]
40008d00:	e51b3064 	ldr	r3, [fp, #-100]	; 0x64
40008d04:	e3530000 	cmp	r3, #0
40008d08:	1affffdf 	bne	40008c8c <number+0x1b4>
40008d0c:	e51b3010 	ldr	r3, [fp, #-16]
40008d10:	e58b3004 	str	r3, [fp, #4]
40008d14:	e51b206c 	ldr	r2, [fp, #-108]	; 0x6c
40008d18:	e59b3004 	ldr	r3, [fp, #4]
40008d1c:	e0633002 	rsb	r3, r3, r2
40008d20:	e50b306c 	str	r3, [fp, #-108]	; 0x6c
40008d24:	e59b3008 	ldr	r3, [fp, #8]
40008d28:	e2033011 	and	r3, r3, #17
40008d2c:	e3530000 	cmp	r3, #0
40008d30:	1a000010 	bne	40008d78 <number+0x2a0>
40008d34:	ea000005 	b	40008d50 <number+0x278>
40008d38:	e51b3060 	ldr	r3, [fp, #-96]	; 0x60
40008d3c:	e3a02020 	mov	r2, #32
40008d40:	e5c32000 	strb	r2, [r3]
40008d44:	e51b3060 	ldr	r3, [fp, #-96]	; 0x60
40008d48:	e2833001 	add	r3, r3, #1
40008d4c:	e50b3060 	str	r3, [fp, #-96]	; 0x60
40008d50:	e51b306c 	ldr	r3, [fp, #-108]	; 0x6c
40008d54:	e3530000 	cmp	r3, #0
40008d58:	d3a03000 	movle	r3, #0
40008d5c:	c3a03001 	movgt	r3, #1
40008d60:	e6ef3073 	uxtb	r3, r3
40008d64:	e51b206c 	ldr	r2, [fp, #-108]	; 0x6c
40008d68:	e2422001 	sub	r2, r2, #1
40008d6c:	e50b206c 	str	r2, [fp, #-108]	; 0x6c
40008d70:	e3530000 	cmp	r3, #0
40008d74:	1affffef 	bne	40008d38 <number+0x260>
40008d78:	e55b3005 	ldrb	r3, [fp, #-5]
40008d7c:	e3530000 	cmp	r3, #0
40008d80:	0a000005 	beq	40008d9c <number+0x2c4>
40008d84:	e51b3060 	ldr	r3, [fp, #-96]	; 0x60
40008d88:	e55b2005 	ldrb	r2, [fp, #-5]
40008d8c:	e5c32000 	strb	r2, [r3]
40008d90:	e51b3060 	ldr	r3, [fp, #-96]	; 0x60
40008d94:	e2833001 	add	r3, r3, #1
40008d98:	e50b3060 	str	r3, [fp, #-96]	; 0x60
40008d9c:	e59b3008 	ldr	r3, [fp, #8]
40008da0:	e2033020 	and	r3, r3, #32
40008da4:	e3530000 	cmp	r3, #0
40008da8:	0a000019 	beq	40008e14 <number+0x33c>
40008dac:	e51b3068 	ldr	r3, [fp, #-104]	; 0x68
40008db0:	e3530008 	cmp	r3, #8
40008db4:	1a000006 	bne	40008dd4 <number+0x2fc>
40008db8:	e51b3060 	ldr	r3, [fp, #-96]	; 0x60
40008dbc:	e3a02030 	mov	r2, #48	; 0x30
40008dc0:	e5c32000 	strb	r2, [r3]
40008dc4:	e51b3060 	ldr	r3, [fp, #-96]	; 0x60
40008dc8:	e2833001 	add	r3, r3, #1
40008dcc:	e50b3060 	str	r3, [fp, #-96]	; 0x60
40008dd0:	ea00000f 	b	40008e14 <number+0x33c>
40008dd4:	e51b3068 	ldr	r3, [fp, #-104]	; 0x68
40008dd8:	e3530010 	cmp	r3, #16
40008ddc:	1a00000c 	bne	40008e14 <number+0x33c>
40008de0:	e51b3060 	ldr	r3, [fp, #-96]	; 0x60
40008de4:	e3a02030 	mov	r2, #48	; 0x30
40008de8:	e5c32000 	strb	r2, [r3]
40008dec:	e51b3060 	ldr	r3, [fp, #-96]	; 0x60
40008df0:	e2833001 	add	r3, r3, #1
40008df4:	e50b3060 	str	r3, [fp, #-96]	; 0x60
40008df8:	e51b300c 	ldr	r3, [fp, #-12]
40008dfc:	e5d32021 	ldrb	r2, [r3, #33]	; 0x21
40008e00:	e51b3060 	ldr	r3, [fp, #-96]	; 0x60
40008e04:	e5c32000 	strb	r2, [r3]
40008e08:	e51b3060 	ldr	r3, [fp, #-96]	; 0x60
40008e0c:	e2833001 	add	r3, r3, #1
40008e10:	e50b3060 	str	r3, [fp, #-96]	; 0x60
40008e14:	e59b3008 	ldr	r3, [fp, #8]
40008e18:	e2033010 	and	r3, r3, #16
40008e1c:	e3530000 	cmp	r3, #0
40008e20:	1a000018 	bne	40008e88 <number+0x3b0>
40008e24:	ea000005 	b	40008e40 <number+0x368>
40008e28:	e51b3060 	ldr	r3, [fp, #-96]	; 0x60
40008e2c:	e55b2011 	ldrb	r2, [fp, #-17]
40008e30:	e5c32000 	strb	r2, [r3]
40008e34:	e51b3060 	ldr	r3, [fp, #-96]	; 0x60
40008e38:	e2833001 	add	r3, r3, #1
40008e3c:	e50b3060 	str	r3, [fp, #-96]	; 0x60
40008e40:	e51b306c 	ldr	r3, [fp, #-108]	; 0x6c
40008e44:	e3530000 	cmp	r3, #0
40008e48:	d3a03000 	movle	r3, #0
40008e4c:	c3a03001 	movgt	r3, #1
40008e50:	e6ef3073 	uxtb	r3, r3
40008e54:	e51b206c 	ldr	r2, [fp, #-108]	; 0x6c
40008e58:	e2422001 	sub	r2, r2, #1
40008e5c:	e50b206c 	str	r2, [fp, #-108]	; 0x6c
40008e60:	e3530000 	cmp	r3, #0
40008e64:	1affffef 	bne	40008e28 <number+0x350>
40008e68:	ea000006 	b	40008e88 <number+0x3b0>
40008e6c:	e51b3060 	ldr	r3, [fp, #-96]	; 0x60
40008e70:	e3a02030 	mov	r2, #48	; 0x30
40008e74:	e5c32000 	strb	r2, [r3]
40008e78:	e51b3060 	ldr	r3, [fp, #-96]	; 0x60
40008e7c:	e2833001 	add	r3, r3, #1
40008e80:	e50b3060 	str	r3, [fp, #-96]	; 0x60
40008e84:	ea000000 	b	40008e8c <number+0x3b4>
40008e88:	e1a00000 	nop			; (mov r0, r0)
40008e8c:	e59b2004 	ldr	r2, [fp, #4]
40008e90:	e51b3010 	ldr	r3, [fp, #-16]
40008e94:	e1520003 	cmp	r2, r3
40008e98:	d3a03000 	movle	r3, #0
40008e9c:	c3a03001 	movgt	r3, #1
40008ea0:	e6ef3073 	uxtb	r3, r3
40008ea4:	e59b2004 	ldr	r2, [fp, #4]
40008ea8:	e2422001 	sub	r2, r2, #1
40008eac:	e58b2004 	str	r2, [fp, #4]
40008eb0:	e3530000 	cmp	r3, #0
40008eb4:	1affffec 	bne	40008e6c <number+0x394>
40008eb8:	ea00000a 	b	40008ee8 <number+0x410>
40008ebc:	e3e03057 	mvn	r3, #87	; 0x57
40008ec0:	e51b2010 	ldr	r2, [fp, #-16]
40008ec4:	e24b1004 	sub	r1, fp, #4
40008ec8:	e0812002 	add	r2, r1, r2
40008ecc:	e0823003 	add	r3, r2, r3
40008ed0:	e5d32000 	ldrb	r2, [r3]
40008ed4:	e51b3060 	ldr	r3, [fp, #-96]	; 0x60
40008ed8:	e5c32000 	strb	r2, [r3]
40008edc:	e51b3060 	ldr	r3, [fp, #-96]	; 0x60
40008ee0:	e2833001 	add	r3, r3, #1
40008ee4:	e50b3060 	str	r3, [fp, #-96]	; 0x60
40008ee8:	e51b3010 	ldr	r3, [fp, #-16]
40008eec:	e3530000 	cmp	r3, #0
40008ef0:	d3a03000 	movle	r3, #0
40008ef4:	c3a03001 	movgt	r3, #1
40008ef8:	e6ef3073 	uxtb	r3, r3
40008efc:	e51b2010 	ldr	r2, [fp, #-16]
40008f00:	e2422001 	sub	r2, r2, #1
40008f04:	e50b2010 	str	r2, [fp, #-16]
40008f08:	e3530000 	cmp	r3, #0
40008f0c:	1affffea 	bne	40008ebc <number+0x3e4>
40008f10:	ea000005 	b	40008f2c <number+0x454>
40008f14:	e51b3060 	ldr	r3, [fp, #-96]	; 0x60
40008f18:	e3a02020 	mov	r2, #32
40008f1c:	e5c32000 	strb	r2, [r3]
40008f20:	e51b3060 	ldr	r3, [fp, #-96]	; 0x60
40008f24:	e2833001 	add	r3, r3, #1
40008f28:	e50b3060 	str	r3, [fp, #-96]	; 0x60
40008f2c:	e51b306c 	ldr	r3, [fp, #-108]	; 0x6c
40008f30:	e3530000 	cmp	r3, #0
40008f34:	d3a03000 	movle	r3, #0
40008f38:	c3a03001 	movgt	r3, #1
40008f3c:	e6ef3073 	uxtb	r3, r3
40008f40:	e51b206c 	ldr	r2, [fp, #-108]	; 0x6c
40008f44:	e2422001 	sub	r2, r2, #1
40008f48:	e50b206c 	str	r2, [fp, #-108]	; 0x6c
40008f4c:	e3530000 	cmp	r3, #0
40008f50:	1affffef 	bne	40008f14 <number+0x43c>
40008f54:	e51b3060 	ldr	r3, [fp, #-96]	; 0x60
40008f58:	e1a00003 	mov	r0, r3
40008f5c:	e24bd004 	sub	sp, fp, #4
40008f60:	e8bd8800 	pop	{fp, pc}
40008f64:	4000a6e8 	andmi	sl, r0, r8, ror #13
40008f68:	4000a710 	andmi	sl, r0, r0, lsl r7

40008f6c <strnlen>:
40008f6c:	e52db004 	push	{fp}		; (str fp, [sp, #-4]!)
40008f70:	e28db000 	add	fp, sp, #0
40008f74:	e24dd00c 	sub	sp, sp, #12
40008f78:	e50b0008 	str	r0, [fp, #-8]
40008f7c:	e50b100c 	str	r1, [fp, #-12]
40008f80:	e51b3008 	ldr	r3, [fp, #-8]
40008f84:	e50b3004 	str	r3, [fp, #-4]
40008f88:	ea000002 	b	40008f98 <strnlen+0x2c>
40008f8c:	e51b3004 	ldr	r3, [fp, #-4]
40008f90:	e2833001 	add	r3, r3, #1
40008f94:	e50b3004 	str	r3, [fp, #-4]
40008f98:	e51b300c 	ldr	r3, [fp, #-12]
40008f9c:	e3530000 	cmp	r3, #0
40008fa0:	03a03000 	moveq	r3, #0
40008fa4:	13a03001 	movne	r3, #1
40008fa8:	e6ef3073 	uxtb	r3, r3
40008fac:	e51b200c 	ldr	r2, [fp, #-12]
40008fb0:	e2422001 	sub	r2, r2, #1
40008fb4:	e50b200c 	str	r2, [fp, #-12]
40008fb8:	e3530000 	cmp	r3, #0
40008fbc:	0a000003 	beq	40008fd0 <strnlen+0x64>
40008fc0:	e51b3004 	ldr	r3, [fp, #-4]
40008fc4:	e5d33000 	ldrb	r3, [r3]
40008fc8:	e3530000 	cmp	r3, #0
40008fcc:	1affffee 	bne	40008f8c <strnlen+0x20>
40008fd0:	e51b2004 	ldr	r2, [fp, #-4]
40008fd4:	e51b3008 	ldr	r3, [fp, #-8]
40008fd8:	e0633002 	rsb	r3, r3, r2
40008fdc:	e1a00003 	mov	r0, r3
40008fe0:	e28bd000 	add	sp, fp, #0
40008fe4:	e8bd0800 	ldmfd	sp!, {fp}
40008fe8:	e12fff1e 	bx	lr

40008fec <vsprintf>:
40008fec:	e92d4800 	push	{fp, lr}
40008ff0:	e28db004 	add	fp, sp, #4
40008ff4:	e24dd044 	sub	sp, sp, #68	; 0x44
40008ff8:	e50b0038 	str	r0, [fp, #-56]	; 0x38
40008ffc:	e50b103c 	str	r1, [fp, #-60]	; 0x3c
40009000:	e50b2040 	str	r2, [fp, #-64]	; 0x40
40009004:	e51b3038 	ldr	r3, [fp, #-56]	; 0x38
40009008:	e50b3014 	str	r3, [fp, #-20]
4000900c:	ea000232 	b	400098dc <vsprintf+0x8f0>
40009010:	e51b303c 	ldr	r3, [fp, #-60]	; 0x3c
40009014:	e5d33000 	ldrb	r3, [r3]
40009018:	e3530025 	cmp	r3, #37	; 0x25
4000901c:	0a000007 	beq	40009040 <vsprintf+0x54>
40009020:	e51b303c 	ldr	r3, [fp, #-60]	; 0x3c
40009024:	e5d32000 	ldrb	r2, [r3]
40009028:	e51b3014 	ldr	r3, [fp, #-20]
4000902c:	e5c32000 	strb	r2, [r3]
40009030:	e51b3014 	ldr	r3, [fp, #-20]
40009034:	e2833001 	add	r3, r3, #1
40009038:	e50b3014 	str	r3, [fp, #-20]
4000903c:	ea000223 	b	400098d0 <vsprintf+0x8e4>
40009040:	e3a03000 	mov	r3, #0
40009044:	e50b301c 	str	r3, [fp, #-28]
40009048:	e51b303c 	ldr	r3, [fp, #-60]	; 0x3c
4000904c:	e2833001 	add	r3, r3, #1
40009050:	e50b303c 	str	r3, [fp, #-60]	; 0x3c
40009054:	e51b303c 	ldr	r3, [fp, #-60]	; 0x3c
40009058:	e5d33000 	ldrb	r3, [r3]
4000905c:	e2433020 	sub	r3, r3, #32
40009060:	e3530010 	cmp	r3, #16
40009064:	979ff103 	ldrls	pc, [pc, r3, lsl #2]
40009068:	ea000024 	b	40009100 <vsprintf+0x114>
4000906c:	400090d0 	ldrdmi	r9, [r0], -r0
40009070:	40009100 	andmi	r9, r0, r0, lsl #2
40009074:	40009100 	andmi	r9, r0, r0, lsl #2
40009078:	400090e0 	andmi	r9, r0, r0, ror #1
4000907c:	40009100 	andmi	r9, r0, r0, lsl #2
40009080:	40009100 	andmi	r9, r0, r0, lsl #2
40009084:	40009100 	andmi	r9, r0, r0, lsl #2
40009088:	40009100 	andmi	r9, r0, r0, lsl #2
4000908c:	40009100 	andmi	r9, r0, r0, lsl #2
40009090:	40009100 	andmi	r9, r0, r0, lsl #2
40009094:	40009100 	andmi	r9, r0, r0, lsl #2
40009098:	400090c0 	andmi	r9, r0, r0, asr #1
4000909c:	40009100 	andmi	r9, r0, r0, lsl #2
400090a0:	400090b0 	strhmi	r9, [r0], -r0
400090a4:	40009100 	andmi	r9, r0, r0, lsl #2
400090a8:	40009100 	andmi	r9, r0, r0, lsl #2
400090ac:	400090f0 	strdmi	r9, [r0], -r0
400090b0:	e51b301c 	ldr	r3, [fp, #-28]
400090b4:	e3833010 	orr	r3, r3, #16
400090b8:	e50b301c 	str	r3, [fp, #-28]
400090bc:	eaffffe1 	b	40009048 <vsprintf+0x5c>
400090c0:	e51b301c 	ldr	r3, [fp, #-28]
400090c4:	e3833004 	orr	r3, r3, #4
400090c8:	e50b301c 	str	r3, [fp, #-28]
400090cc:	eaffffdd 	b	40009048 <vsprintf+0x5c>
400090d0:	e51b301c 	ldr	r3, [fp, #-28]
400090d4:	e3833008 	orr	r3, r3, #8
400090d8:	e50b301c 	str	r3, [fp, #-28]
400090dc:	eaffffd9 	b	40009048 <vsprintf+0x5c>
400090e0:	e51b301c 	ldr	r3, [fp, #-28]
400090e4:	e3833020 	orr	r3, r3, #32
400090e8:	e50b301c 	str	r3, [fp, #-28]
400090ec:	eaffffd5 	b	40009048 <vsprintf+0x5c>
400090f0:	e51b301c 	ldr	r3, [fp, #-28]
400090f4:	e3833001 	orr	r3, r3, #1
400090f8:	e50b301c 	str	r3, [fp, #-28]
400090fc:	eaffffd1 	b	40009048 <vsprintf+0x5c>
40009100:	e3e03000 	mvn	r3, #0
40009104:	e50b3020 	str	r3, [fp, #-32]
40009108:	e51b303c 	ldr	r3, [fp, #-60]	; 0x3c
4000910c:	e5d33000 	ldrb	r3, [r3]
40009110:	e353002f 	cmp	r3, #47	; 0x2f
40009114:	9a000008 	bls	4000913c <vsprintf+0x150>
40009118:	e51b303c 	ldr	r3, [fp, #-60]	; 0x3c
4000911c:	e5d33000 	ldrb	r3, [r3]
40009120:	e3530039 	cmp	r3, #57	; 0x39
40009124:	8a000004 	bhi	4000913c <vsprintf+0x150>
40009128:	e24b303c 	sub	r3, fp, #60	; 0x3c
4000912c:	e1a00003 	mov	r0, r3
40009130:	ebfffe43 	bl	40008a44 <skip_atoi>
40009134:	e50b0020 	str	r0, [fp, #-32]
40009138:	ea000014 	b	40009190 <vsprintf+0x1a4>
4000913c:	e51b303c 	ldr	r3, [fp, #-60]	; 0x3c
40009140:	e5d33000 	ldrb	r3, [r3]
40009144:	e353002a 	cmp	r3, #42	; 0x2a
40009148:	1a000010 	bne	40009190 <vsprintf+0x1a4>
4000914c:	e51b303c 	ldr	r3, [fp, #-60]	; 0x3c
40009150:	e2833001 	add	r3, r3, #1
40009154:	e50b303c 	str	r3, [fp, #-60]	; 0x3c
40009158:	e51b3040 	ldr	r3, [fp, #-64]	; 0x40
4000915c:	e2832004 	add	r2, r3, #4
40009160:	e50b2040 	str	r2, [fp, #-64]	; 0x40
40009164:	e5933000 	ldr	r3, [r3]
40009168:	e50b3020 	str	r3, [fp, #-32]
4000916c:	e51b3020 	ldr	r3, [fp, #-32]
40009170:	e3530000 	cmp	r3, #0
40009174:	aa000005 	bge	40009190 <vsprintf+0x1a4>
40009178:	e51b3020 	ldr	r3, [fp, #-32]
4000917c:	e2633000 	rsb	r3, r3, #0
40009180:	e50b3020 	str	r3, [fp, #-32]
40009184:	e51b301c 	ldr	r3, [fp, #-28]
40009188:	e3833010 	orr	r3, r3, #16
4000918c:	e50b301c 	str	r3, [fp, #-28]
40009190:	e3e03000 	mvn	r3, #0
40009194:	e50b3024 	str	r3, [fp, #-36]	; 0x24
40009198:	e51b303c 	ldr	r3, [fp, #-60]	; 0x3c
4000919c:	e5d33000 	ldrb	r3, [r3]
400091a0:	e353002e 	cmp	r3, #46	; 0x2e
400091a4:	1a000020 	bne	4000922c <vsprintf+0x240>
400091a8:	e51b303c 	ldr	r3, [fp, #-60]	; 0x3c
400091ac:	e2833001 	add	r3, r3, #1
400091b0:	e50b303c 	str	r3, [fp, #-60]	; 0x3c
400091b4:	e51b303c 	ldr	r3, [fp, #-60]	; 0x3c
400091b8:	e5d33000 	ldrb	r3, [r3]
400091bc:	e353002f 	cmp	r3, #47	; 0x2f
400091c0:	9a000008 	bls	400091e8 <vsprintf+0x1fc>
400091c4:	e51b303c 	ldr	r3, [fp, #-60]	; 0x3c
400091c8:	e5d33000 	ldrb	r3, [r3]
400091cc:	e3530039 	cmp	r3, #57	; 0x39
400091d0:	8a000004 	bhi	400091e8 <vsprintf+0x1fc>
400091d4:	e24b303c 	sub	r3, fp, #60	; 0x3c
400091d8:	e1a00003 	mov	r0, r3
400091dc:	ebfffe18 	bl	40008a44 <skip_atoi>
400091e0:	e50b0024 	str	r0, [fp, #-36]	; 0x24
400091e4:	ea00000b 	b	40009218 <vsprintf+0x22c>
400091e8:	e51b303c 	ldr	r3, [fp, #-60]	; 0x3c
400091ec:	e5d33000 	ldrb	r3, [r3]
400091f0:	e353002a 	cmp	r3, #42	; 0x2a
400091f4:	1a000007 	bne	40009218 <vsprintf+0x22c>
400091f8:	e51b303c 	ldr	r3, [fp, #-60]	; 0x3c
400091fc:	e2833001 	add	r3, r3, #1
40009200:	e50b303c 	str	r3, [fp, #-60]	; 0x3c
40009204:	e51b3040 	ldr	r3, [fp, #-64]	; 0x40
40009208:	e2832004 	add	r2, r3, #4
4000920c:	e50b2040 	str	r2, [fp, #-64]	; 0x40
40009210:	e5933000 	ldr	r3, [r3]
40009214:	e50b3024 	str	r3, [fp, #-36]	; 0x24
40009218:	e51b3024 	ldr	r3, [fp, #-36]	; 0x24
4000921c:	e3530000 	cmp	r3, #0
40009220:	aa000001 	bge	4000922c <vsprintf+0x240>
40009224:	e3a03000 	mov	r3, #0
40009228:	e50b3024 	str	r3, [fp, #-36]	; 0x24
4000922c:	e3e03000 	mvn	r3, #0
40009230:	e50b3028 	str	r3, [fp, #-40]	; 0x28
40009234:	e51b303c 	ldr	r3, [fp, #-60]	; 0x3c
40009238:	e5d33000 	ldrb	r3, [r3]
4000923c:	e3530068 	cmp	r3, #104	; 0x68
40009240:	0a000017 	beq	400092a4 <vsprintf+0x2b8>
40009244:	e51b303c 	ldr	r3, [fp, #-60]	; 0x3c
40009248:	e5d33000 	ldrb	r3, [r3]
4000924c:	e353006c 	cmp	r3, #108	; 0x6c
40009250:	0a000013 	beq	400092a4 <vsprintf+0x2b8>
40009254:	e51b303c 	ldr	r3, [fp, #-60]	; 0x3c
40009258:	e5d33000 	ldrb	r3, [r3]
4000925c:	e353004c 	cmp	r3, #76	; 0x4c
40009260:	0a00000f 	beq	400092a4 <vsprintf+0x2b8>
40009264:	e51b303c 	ldr	r3, [fp, #-60]	; 0x3c
40009268:	e5d33000 	ldrb	r3, [r3]
4000926c:	e353005a 	cmp	r3, #90	; 0x5a
40009270:	0a00000b 	beq	400092a4 <vsprintf+0x2b8>
40009274:	e51b303c 	ldr	r3, [fp, #-60]	; 0x3c
40009278:	e5d33000 	ldrb	r3, [r3]
4000927c:	e353007a 	cmp	r3, #122	; 0x7a
40009280:	0a000007 	beq	400092a4 <vsprintf+0x2b8>
40009284:	e51b303c 	ldr	r3, [fp, #-60]	; 0x3c
40009288:	e5d33000 	ldrb	r3, [r3]
4000928c:	e3530074 	cmp	r3, #116	; 0x74
40009290:	0a000003 	beq	400092a4 <vsprintf+0x2b8>
40009294:	e51b303c 	ldr	r3, [fp, #-60]	; 0x3c
40009298:	e5d33000 	ldrb	r3, [r3]
4000929c:	e3530071 	cmp	r3, #113	; 0x71
400092a0:	1a000012 	bne	400092f0 <vsprintf+0x304>
400092a4:	e51b303c 	ldr	r3, [fp, #-60]	; 0x3c
400092a8:	e5d33000 	ldrb	r3, [r3]
400092ac:	e50b3028 	str	r3, [fp, #-40]	; 0x28
400092b0:	e51b3028 	ldr	r3, [fp, #-40]	; 0x28
400092b4:	e353006c 	cmp	r3, #108	; 0x6c
400092b8:	1a000009 	bne	400092e4 <vsprintf+0x2f8>
400092bc:	e51b303c 	ldr	r3, [fp, #-60]	; 0x3c
400092c0:	e2833001 	add	r3, r3, #1
400092c4:	e5d33000 	ldrb	r3, [r3]
400092c8:	e353006c 	cmp	r3, #108	; 0x6c
400092cc:	1a000004 	bne	400092e4 <vsprintf+0x2f8>
400092d0:	e3a03071 	mov	r3, #113	; 0x71
400092d4:	e50b3028 	str	r3, [fp, #-40]	; 0x28
400092d8:	e51b303c 	ldr	r3, [fp, #-60]	; 0x3c
400092dc:	e2833001 	add	r3, r3, #1
400092e0:	e50b303c 	str	r3, [fp, #-60]	; 0x3c
400092e4:	e51b303c 	ldr	r3, [fp, #-60]	; 0x3c
400092e8:	e2833001 	add	r3, r3, #1
400092ec:	e50b303c 	str	r3, [fp, #-60]	; 0x3c
400092f0:	e3a0300a 	mov	r3, #10
400092f4:	e50b3010 	str	r3, [fp, #-16]
400092f8:	e51b303c 	ldr	r3, [fp, #-60]	; 0x3c
400092fc:	e5d33000 	ldrb	r3, [r3]
40009300:	e2433025 	sub	r3, r3, #37	; 0x25
40009304:	e3530053 	cmp	r3, #83	; 0x53
40009308:	979ff103 	ldrls	pc, [pc, r3, lsl #2]
4000930c:	ea00010d 	b	40009748 <vsprintf+0x75c>
40009310:	400096f8 	strdmi	r9, [r0], -r8
40009314:	40009748 	andmi	r9, r0, r8, asr #14
40009318:	40009748 	andmi	r9, r0, r8, asr #14
4000931c:	40009748 	andmi	r9, r0, r8, asr #14
40009320:	40009748 	andmi	r9, r0, r8, asr #14
40009324:	40009748 	andmi	r9, r0, r8, asr #14
40009328:	40009748 	andmi	r9, r0, r8, asr #14
4000932c:	40009748 	andmi	r9, r0, r8, asr #14
40009330:	40009748 	andmi	r9, r0, r8, asr #14
40009334:	40009748 	andmi	r9, r0, r8, asr #14
40009338:	40009748 	andmi	r9, r0, r8, asr #14
4000933c:	40009748 	andmi	r9, r0, r8, asr #14
40009340:	40009748 	andmi	r9, r0, r8, asr #14
40009344:	40009748 	andmi	r9, r0, r8, asr #14
40009348:	40009748 	andmi	r9, r0, r8, asr #14
4000934c:	40009748 	andmi	r9, r0, r8, asr #14
40009350:	40009748 	andmi	r9, r0, r8, asr #14
40009354:	40009748 	andmi	r9, r0, r8, asr #14
40009358:	40009748 	andmi	r9, r0, r8, asr #14
4000935c:	40009748 	andmi	r9, r0, r8, asr #14
40009360:	40009748 	andmi	r9, r0, r8, asr #14
40009364:	40009748 	andmi	r9, r0, r8, asr #14
40009368:	40009748 	andmi	r9, r0, r8, asr #14
4000936c:	40009748 	andmi	r9, r0, r8, asr #14
40009370:	40009748 	andmi	r9, r0, r8, asr #14
40009374:	40009748 	andmi	r9, r0, r8, asr #14
40009378:	40009748 	andmi	r9, r0, r8, asr #14
4000937c:	40009748 	andmi	r9, r0, r8, asr #14
40009380:	40009748 	andmi	r9, r0, r8, asr #14
40009384:	40009748 	andmi	r9, r0, r8, asr #14
40009388:	40009748 	andmi	r9, r0, r8, asr #14
4000938c:	40009748 	andmi	r9, r0, r8, asr #14
40009390:	40009748 	andmi	r9, r0, r8, asr #14
40009394:	40009748 	andmi	r9, r0, r8, asr #14
40009398:	40009748 	andmi	r9, r0, r8, asr #14
4000939c:	40009748 	andmi	r9, r0, r8, asr #14
400093a0:	40009748 	andmi	r9, r0, r8, asr #14
400093a4:	40009748 	andmi	r9, r0, r8, asr #14
400093a8:	40009748 	andmi	r9, r0, r8, asr #14
400093ac:	40009748 	andmi	r9, r0, r8, asr #14
400093b0:	40009748 	andmi	r9, r0, r8, asr #14
400093b4:	40009748 	andmi	r9, r0, r8, asr #14
400093b8:	40009748 	andmi	r9, r0, r8, asr #14
400093bc:	40009748 	andmi	r9, r0, r8, asr #14
400093c0:	40009748 	andmi	r9, r0, r8, asr #14
400093c4:	40009748 	andmi	r9, r0, r8, asr #14
400093c8:	40009748 	andmi	r9, r0, r8, asr #14
400093cc:	40009748 	andmi	r9, r0, r8, asr #14
400093d0:	40009748 	andmi	r9, r0, r8, asr #14
400093d4:	40009748 	andmi	r9, r0, r8, asr #14
400093d8:	40009748 	andmi	r9, r0, r8, asr #14
400093dc:	40009720 	andmi	r9, r0, r0, lsr #14
400093e0:	40009748 	andmi	r9, r0, r8, asr #14
400093e4:	40009748 	andmi	r9, r0, r8, asr #14
400093e8:	40009748 	andmi	r9, r0, r8, asr #14
400093ec:	40009748 	andmi	r9, r0, r8, asr #14
400093f0:	40009748 	andmi	r9, r0, r8, asr #14
400093f4:	40009748 	andmi	r9, r0, r8, asr #14
400093f8:	40009748 	andmi	r9, r0, r8, asr #14
400093fc:	40009748 	andmi	r9, r0, r8, asr #14
40009400:	40009748 	andmi	r9, r0, r8, asr #14
40009404:	40009748 	andmi	r9, r0, r8, asr #14
40009408:	40009460 	andmi	r9, r0, r0, ror #8
4000940c:	40009738 	andmi	r9, r0, r8, lsr r7
40009410:	40009748 	andmi	r9, r0, r8, asr #14
40009414:	40009748 	andmi	r9, r0, r8, asr #14
40009418:	40009748 	andmi	r9, r0, r8, asr #14
4000941c:	40009748 	andmi	r9, r0, r8, asr #14
40009420:	40009738 	andmi	r9, r0, r8, lsr r7
40009424:	40009748 	andmi	r9, r0, r8, asr #14
40009428:	40009748 	andmi	r9, r0, r8, asr #14
4000942c:	40009748 	andmi	r9, r0, r8, asr #14
40009430:	40009748 	andmi	r9, r0, r8, asr #14
40009434:	40009694 	mulmi	r0, r4, r6
40009438:	40009714 	andmi	r9, r0, r4, lsl r7
4000943c:	40009638 	andmi	r9, r0, r8, lsr r6
40009440:	40009748 	andmi	r9, r0, r8, asr #14
40009444:	40009748 	andmi	r9, r0, r8, asr #14
40009448:	40009504 	andmi	r9, r0, r4, lsl #10
4000944c:	40009748 	andmi	r9, r0, r8, asr #14
40009450:	400097a0 	andmi	r9, r0, r0, lsr #15
40009454:	40009748 	andmi	r9, r0, r8, asr #14
40009458:	40009748 	andmi	r9, r0, r8, asr #14
4000945c:	4000972c 	andmi	r9, r0, ip, lsr #14
40009460:	e51b301c 	ldr	r3, [fp, #-28]
40009464:	e2033010 	and	r3, r3, #16
40009468:	e3530000 	cmp	r3, #0
4000946c:	1a00000c 	bne	400094a4 <vsprintf+0x4b8>
40009470:	ea000005 	b	4000948c <vsprintf+0x4a0>
40009474:	e51b3014 	ldr	r3, [fp, #-20]
40009478:	e3a02020 	mov	r2, #32
4000947c:	e5c32000 	strb	r2, [r3]
40009480:	e51b3014 	ldr	r3, [fp, #-20]
40009484:	e2833001 	add	r3, r3, #1
40009488:	e50b3014 	str	r3, [fp, #-20]
4000948c:	e51b3020 	ldr	r3, [fp, #-32]
40009490:	e2433001 	sub	r3, r3, #1
40009494:	e50b3020 	str	r3, [fp, #-32]
40009498:	e51b3020 	ldr	r3, [fp, #-32]
4000949c:	e3530000 	cmp	r3, #0
400094a0:	cafffff3 	bgt	40009474 <vsprintf+0x488>
400094a4:	e51b3040 	ldr	r3, [fp, #-64]	; 0x40
400094a8:	e2832004 	add	r2, r3, #4
400094ac:	e50b2040 	str	r2, [fp, #-64]	; 0x40
400094b0:	e5933000 	ldr	r3, [r3]
400094b4:	e6ef2073 	uxtb	r2, r3
400094b8:	e51b3014 	ldr	r3, [fp, #-20]
400094bc:	e5c32000 	strb	r2, [r3]
400094c0:	e51b3014 	ldr	r3, [fp, #-20]
400094c4:	e2833001 	add	r3, r3, #1
400094c8:	e50b3014 	str	r3, [fp, #-20]
400094cc:	ea000005 	b	400094e8 <vsprintf+0x4fc>
400094d0:	e51b3014 	ldr	r3, [fp, #-20]
400094d4:	e3a02020 	mov	r2, #32
400094d8:	e5c32000 	strb	r2, [r3]
400094dc:	e51b3014 	ldr	r3, [fp, #-20]
400094e0:	e2833001 	add	r3, r3, #1
400094e4:	e50b3014 	str	r3, [fp, #-20]
400094e8:	e51b3020 	ldr	r3, [fp, #-32]
400094ec:	e2433001 	sub	r3, r3, #1
400094f0:	e50b3020 	str	r3, [fp, #-32]
400094f4:	e51b3020 	ldr	r3, [fp, #-32]
400094f8:	e3530000 	cmp	r3, #0
400094fc:	cafffff3 	bgt	400094d0 <vsprintf+0x4e4>
40009500:	ea0000f2 	b	400098d0 <vsprintf+0x8e4>
40009504:	e51b3040 	ldr	r3, [fp, #-64]	; 0x40
40009508:	e2832004 	add	r2, r3, #4
4000950c:	e50b2040 	str	r2, [fp, #-64]	; 0x40
40009510:	e5933000 	ldr	r3, [r3]
40009514:	e50b3018 	str	r3, [fp, #-24]
40009518:	e51b3018 	ldr	r3, [fp, #-24]
4000951c:	e3530000 	cmp	r3, #0
40009520:	1a000001 	bne	4000952c <vsprintf+0x540>
40009524:	e59f33e4 	ldr	r3, [pc, #996]	; 40009910 <vsprintf+0x924>
40009528:	e50b3018 	str	r3, [fp, #-24]
4000952c:	e51b3024 	ldr	r3, [fp, #-36]	; 0x24
40009530:	e51b0018 	ldr	r0, [fp, #-24]
40009534:	e1a01003 	mov	r1, r3
40009538:	ebfffe8b 	bl	40008f6c <strnlen>
4000953c:	e1a03000 	mov	r3, r0
40009540:	e50b302c 	str	r3, [fp, #-44]	; 0x2c
40009544:	e51b301c 	ldr	r3, [fp, #-28]
40009548:	e2033010 	and	r3, r3, #16
4000954c:	e3530000 	cmp	r3, #0
40009550:	1a000011 	bne	4000959c <vsprintf+0x5b0>
40009554:	ea000005 	b	40009570 <vsprintf+0x584>
40009558:	e51b3014 	ldr	r3, [fp, #-20]
4000955c:	e3a02020 	mov	r2, #32
40009560:	e5c32000 	strb	r2, [r3]
40009564:	e51b3014 	ldr	r3, [fp, #-20]
40009568:	e2833001 	add	r3, r3, #1
4000956c:	e50b3014 	str	r3, [fp, #-20]
40009570:	e51b2020 	ldr	r2, [fp, #-32]
40009574:	e51b302c 	ldr	r3, [fp, #-44]	; 0x2c
40009578:	e1520003 	cmp	r2, r3
4000957c:	d3a03000 	movle	r3, #0
40009580:	c3a03001 	movgt	r3, #1
40009584:	e6ef3073 	uxtb	r3, r3
40009588:	e51b2020 	ldr	r2, [fp, #-32]
4000958c:	e2422001 	sub	r2, r2, #1
40009590:	e50b2020 	str	r2, [fp, #-32]
40009594:	e3530000 	cmp	r3, #0
40009598:	1affffee 	bne	40009558 <vsprintf+0x56c>
4000959c:	e3a03000 	mov	r3, #0
400095a0:	e50b300c 	str	r3, [fp, #-12]
400095a4:	ea00000c 	b	400095dc <vsprintf+0x5f0>
400095a8:	e51b3018 	ldr	r3, [fp, #-24]
400095ac:	e5d32000 	ldrb	r2, [r3]
400095b0:	e51b3014 	ldr	r3, [fp, #-20]
400095b4:	e5c32000 	strb	r2, [r3]
400095b8:	e51b3014 	ldr	r3, [fp, #-20]
400095bc:	e2833001 	add	r3, r3, #1
400095c0:	e50b3014 	str	r3, [fp, #-20]
400095c4:	e51b3018 	ldr	r3, [fp, #-24]
400095c8:	e2833001 	add	r3, r3, #1
400095cc:	e50b3018 	str	r3, [fp, #-24]
400095d0:	e51b300c 	ldr	r3, [fp, #-12]
400095d4:	e2833001 	add	r3, r3, #1
400095d8:	e50b300c 	str	r3, [fp, #-12]
400095dc:	e51b200c 	ldr	r2, [fp, #-12]
400095e0:	e51b302c 	ldr	r3, [fp, #-44]	; 0x2c
400095e4:	e1520003 	cmp	r2, r3
400095e8:	baffffee 	blt	400095a8 <vsprintf+0x5bc>
400095ec:	ea000005 	b	40009608 <vsprintf+0x61c>
400095f0:	e51b3014 	ldr	r3, [fp, #-20]
400095f4:	e3a02020 	mov	r2, #32
400095f8:	e5c32000 	strb	r2, [r3]
400095fc:	e51b3014 	ldr	r3, [fp, #-20]
40009600:	e2833001 	add	r3, r3, #1
40009604:	e50b3014 	str	r3, [fp, #-20]
40009608:	e51b2020 	ldr	r2, [fp, #-32]
4000960c:	e51b302c 	ldr	r3, [fp, #-44]	; 0x2c
40009610:	e1520003 	cmp	r2, r3
40009614:	d3a03000 	movle	r3, #0
40009618:	c3a03001 	movgt	r3, #1
4000961c:	e6ef3073 	uxtb	r3, r3
40009620:	e51b2020 	ldr	r2, [fp, #-32]
40009624:	e2422001 	sub	r2, r2, #1
40009628:	e50b2020 	str	r2, [fp, #-32]
4000962c:	e3530000 	cmp	r3, #0
40009630:	1affffee 	bne	400095f0 <vsprintf+0x604>
40009634:	ea0000a5 	b	400098d0 <vsprintf+0x8e4>
40009638:	e51b3020 	ldr	r3, [fp, #-32]
4000963c:	e3730001 	cmn	r3, #1
40009640:	1a000004 	bne	40009658 <vsprintf+0x66c>
40009644:	e3a03008 	mov	r3, #8
40009648:	e50b3020 	str	r3, [fp, #-32]
4000964c:	e51b301c 	ldr	r3, [fp, #-28]
40009650:	e3833001 	orr	r3, r3, #1
40009654:	e50b301c 	str	r3, [fp, #-28]
40009658:	e51b3040 	ldr	r3, [fp, #-64]	; 0x40
4000965c:	e2832004 	add	r2, r3, #4
40009660:	e50b2040 	str	r2, [fp, #-64]	; 0x40
40009664:	e5933000 	ldr	r3, [r3]
40009668:	e51b2024 	ldr	r2, [fp, #-36]	; 0x24
4000966c:	e58d2000 	str	r2, [sp]
40009670:	e51b201c 	ldr	r2, [fp, #-28]
40009674:	e58d2004 	str	r2, [sp, #4]
40009678:	e51b0014 	ldr	r0, [fp, #-20]
4000967c:	e1a01003 	mov	r1, r3
40009680:	e3a02010 	mov	r2, #16
40009684:	e51b3020 	ldr	r3, [fp, #-32]
40009688:	ebfffd12 	bl	40008ad8 <number>
4000968c:	e50b0014 	str	r0, [fp, #-20]
40009690:	ea00008e 	b	400098d0 <vsprintf+0x8e4>
40009694:	e51b3028 	ldr	r3, [fp, #-40]	; 0x28
40009698:	e353006c 	cmp	r3, #108	; 0x6c
4000969c:	1a00000a 	bne	400096cc <vsprintf+0x6e0>
400096a0:	e51b3040 	ldr	r3, [fp, #-64]	; 0x40
400096a4:	e2832004 	add	r2, r3, #4
400096a8:	e50b2040 	str	r2, [fp, #-64]	; 0x40
400096ac:	e5933000 	ldr	r3, [r3]
400096b0:	e50b3030 	str	r3, [fp, #-48]	; 0x30
400096b4:	e51b2014 	ldr	r2, [fp, #-20]
400096b8:	e51b3038 	ldr	r3, [fp, #-56]	; 0x38
400096bc:	e0632002 	rsb	r2, r3, r2
400096c0:	e51b3030 	ldr	r3, [fp, #-48]	; 0x30
400096c4:	e5832000 	str	r2, [r3]
400096c8:	ea000080 	b	400098d0 <vsprintf+0x8e4>
400096cc:	e51b3040 	ldr	r3, [fp, #-64]	; 0x40
400096d0:	e2832004 	add	r2, r3, #4
400096d4:	e50b2040 	str	r2, [fp, #-64]	; 0x40
400096d8:	e5933000 	ldr	r3, [r3]
400096dc:	e50b3034 	str	r3, [fp, #-52]	; 0x34
400096e0:	e51b2014 	ldr	r2, [fp, #-20]
400096e4:	e51b3038 	ldr	r3, [fp, #-56]	; 0x38
400096e8:	e0632002 	rsb	r2, r3, r2
400096ec:	e51b3034 	ldr	r3, [fp, #-52]	; 0x34
400096f0:	e5832000 	str	r2, [r3]
400096f4:	ea000075 	b	400098d0 <vsprintf+0x8e4>
400096f8:	e51b3014 	ldr	r3, [fp, #-20]
400096fc:	e3a02025 	mov	r2, #37	; 0x25
40009700:	e5c32000 	strb	r2, [r3]
40009704:	e51b3014 	ldr	r3, [fp, #-20]
40009708:	e2833001 	add	r3, r3, #1
4000970c:	e50b3014 	str	r3, [fp, #-20]
40009710:	ea00006e 	b	400098d0 <vsprintf+0x8e4>
40009714:	e3a03008 	mov	r3, #8
40009718:	e50b3010 	str	r3, [fp, #-16]
4000971c:	ea000020 	b	400097a4 <vsprintf+0x7b8>
40009720:	e51b301c 	ldr	r3, [fp, #-28]
40009724:	e3833040 	orr	r3, r3, #64	; 0x40
40009728:	e50b301c 	str	r3, [fp, #-28]
4000972c:	e3a03010 	mov	r3, #16
40009730:	e50b3010 	str	r3, [fp, #-16]
40009734:	ea00001a 	b	400097a4 <vsprintf+0x7b8>
40009738:	e51b301c 	ldr	r3, [fp, #-28]
4000973c:	e3833002 	orr	r3, r3, #2
40009740:	e50b301c 	str	r3, [fp, #-28]
40009744:	ea000015 	b	400097a0 <vsprintf+0x7b4>
40009748:	e51b3014 	ldr	r3, [fp, #-20]
4000974c:	e3a02025 	mov	r2, #37	; 0x25
40009750:	e5c32000 	strb	r2, [r3]
40009754:	e51b3014 	ldr	r3, [fp, #-20]
40009758:	e2833001 	add	r3, r3, #1
4000975c:	e50b3014 	str	r3, [fp, #-20]
40009760:	e51b303c 	ldr	r3, [fp, #-60]	; 0x3c
40009764:	e5d33000 	ldrb	r3, [r3]
40009768:	e3530000 	cmp	r3, #0
4000976c:	0a000007 	beq	40009790 <vsprintf+0x7a4>
40009770:	e51b303c 	ldr	r3, [fp, #-60]	; 0x3c
40009774:	e5d32000 	ldrb	r2, [r3]
40009778:	e51b3014 	ldr	r3, [fp, #-20]
4000977c:	e5c32000 	strb	r2, [r3]
40009780:	e51b3014 	ldr	r3, [fp, #-20]
40009784:	e2833001 	add	r3, r3, #1
40009788:	e50b3014 	str	r3, [fp, #-20]
4000978c:	ea00004f 	b	400098d0 <vsprintf+0x8e4>
40009790:	e51b303c 	ldr	r3, [fp, #-60]	; 0x3c
40009794:	e2433001 	sub	r3, r3, #1
40009798:	e50b303c 	str	r3, [fp, #-60]	; 0x3c
4000979c:	ea00004b 	b	400098d0 <vsprintf+0x8e4>
400097a0:	e1a00000 	nop			; (mov r0, r0)
400097a4:	e51b3028 	ldr	r3, [fp, #-40]	; 0x28
400097a8:	e353006c 	cmp	r3, #108	; 0x6c
400097ac:	1a000005 	bne	400097c8 <vsprintf+0x7dc>
400097b0:	e51b3040 	ldr	r3, [fp, #-64]	; 0x40
400097b4:	e2832004 	add	r2, r3, #4
400097b8:	e50b2040 	str	r2, [fp, #-64]	; 0x40
400097bc:	e5933000 	ldr	r3, [r3]
400097c0:	e50b3008 	str	r3, [fp, #-8]
400097c4:	ea000035 	b	400098a0 <vsprintf+0x8b4>
400097c8:	e51b3028 	ldr	r3, [fp, #-40]	; 0x28
400097cc:	e353005a 	cmp	r3, #90	; 0x5a
400097d0:	0a000002 	beq	400097e0 <vsprintf+0x7f4>
400097d4:	e51b3028 	ldr	r3, [fp, #-40]	; 0x28
400097d8:	e353007a 	cmp	r3, #122	; 0x7a
400097dc:	1a000005 	bne	400097f8 <vsprintf+0x80c>
400097e0:	e51b3040 	ldr	r3, [fp, #-64]	; 0x40
400097e4:	e2832004 	add	r2, r3, #4
400097e8:	e50b2040 	str	r2, [fp, #-64]	; 0x40
400097ec:	e5933000 	ldr	r3, [r3]
400097f0:	e50b3008 	str	r3, [fp, #-8]
400097f4:	ea000029 	b	400098a0 <vsprintf+0x8b4>
400097f8:	e51b3028 	ldr	r3, [fp, #-40]	; 0x28
400097fc:	e3530074 	cmp	r3, #116	; 0x74
40009800:	1a000005 	bne	4000981c <vsprintf+0x830>
40009804:	e51b3040 	ldr	r3, [fp, #-64]	; 0x40
40009808:	e2832004 	add	r2, r3, #4
4000980c:	e50b2040 	str	r2, [fp, #-64]	; 0x40
40009810:	e5933000 	ldr	r3, [r3]
40009814:	e50b3008 	str	r3, [fp, #-8]
40009818:	ea000020 	b	400098a0 <vsprintf+0x8b4>
4000981c:	e51b3028 	ldr	r3, [fp, #-40]	; 0x28
40009820:	e3530068 	cmp	r3, #104	; 0x68
40009824:	1a00000e 	bne	40009864 <vsprintf+0x878>
40009828:	e51b3040 	ldr	r3, [fp, #-64]	; 0x40
4000982c:	e2832004 	add	r2, r3, #4
40009830:	e50b2040 	str	r2, [fp, #-64]	; 0x40
40009834:	e5933000 	ldr	r3, [r3]
40009838:	e6ff3073 	uxth	r3, r3
4000983c:	e50b3008 	str	r3, [fp, #-8]
40009840:	e51b301c 	ldr	r3, [fp, #-28]
40009844:	e2033002 	and	r3, r3, #2
40009848:	e3530000 	cmp	r3, #0
4000984c:	0a000013 	beq	400098a0 <vsprintf+0x8b4>
40009850:	e51b3008 	ldr	r3, [fp, #-8]
40009854:	e6ff3073 	uxth	r3, r3
40009858:	e6bf3073 	sxth	r3, r3
4000985c:	e50b3008 	str	r3, [fp, #-8]
40009860:	ea00000e 	b	400098a0 <vsprintf+0x8b4>
40009864:	e51b301c 	ldr	r3, [fp, #-28]
40009868:	e2033002 	and	r3, r3, #2
4000986c:	e3530000 	cmp	r3, #0
40009870:	0a000005 	beq	4000988c <vsprintf+0x8a0>
40009874:	e51b3040 	ldr	r3, [fp, #-64]	; 0x40
40009878:	e2832004 	add	r2, r3, #4
4000987c:	e50b2040 	str	r2, [fp, #-64]	; 0x40
40009880:	e5933000 	ldr	r3, [r3]
40009884:	e50b3008 	str	r3, [fp, #-8]
40009888:	ea000004 	b	400098a0 <vsprintf+0x8b4>
4000988c:	e51b3040 	ldr	r3, [fp, #-64]	; 0x40
40009890:	e2832004 	add	r2, r3, #4
40009894:	e50b2040 	str	r2, [fp, #-64]	; 0x40
40009898:	e5933000 	ldr	r3, [r3]
4000989c:	e50b3008 	str	r3, [fp, #-8]
400098a0:	e51b2008 	ldr	r2, [fp, #-8]
400098a4:	e51b3010 	ldr	r3, [fp, #-16]
400098a8:	e51b1024 	ldr	r1, [fp, #-36]	; 0x24
400098ac:	e58d1000 	str	r1, [sp]
400098b0:	e51b101c 	ldr	r1, [fp, #-28]
400098b4:	e58d1004 	str	r1, [sp, #4]
400098b8:	e51b0014 	ldr	r0, [fp, #-20]
400098bc:	e1a01002 	mov	r1, r2
400098c0:	e1a02003 	mov	r2, r3
400098c4:	e51b3020 	ldr	r3, [fp, #-32]
400098c8:	ebfffc82 	bl	40008ad8 <number>
400098cc:	e50b0014 	str	r0, [fp, #-20]
400098d0:	e51b303c 	ldr	r3, [fp, #-60]	; 0x3c
400098d4:	e2833001 	add	r3, r3, #1
400098d8:	e50b303c 	str	r3, [fp, #-60]	; 0x3c
400098dc:	e51b303c 	ldr	r3, [fp, #-60]	; 0x3c
400098e0:	e5d33000 	ldrb	r3, [r3]
400098e4:	e3530000 	cmp	r3, #0
400098e8:	1afffdc8 	bne	40009010 <vsprintf+0x24>
400098ec:	e51b3014 	ldr	r3, [fp, #-20]
400098f0:	e3a02000 	mov	r2, #0
400098f4:	e5c32000 	strb	r2, [r3]
400098f8:	e51b2014 	ldr	r2, [fp, #-20]
400098fc:	e51b3038 	ldr	r3, [fp, #-56]	; 0x38
40009900:	e0633002 	rsb	r3, r3, r2
40009904:	e1a00003 	mov	r0, r3
40009908:	e24bd004 	sub	sp, fp, #4
4000990c:	e8bd8800 	pop	{fp, pc}
40009910:	4000a738 	andmi	sl, r0, r8, lsr r7

40009914 <sprintf>:
40009914:	e92d000e 	push	{r1, r2, r3}
40009918:	e92d4800 	push	{fp, lr}
4000991c:	e28db004 	add	fp, sp, #4
40009920:	e24dd00c 	sub	sp, sp, #12
40009924:	e50b0010 	str	r0, [fp, #-16]
40009928:	e28b2008 	add	r2, fp, #8
4000992c:	e24b300c 	sub	r3, fp, #12
40009930:	e5832000 	str	r2, [r3]
40009934:	e51b300c 	ldr	r3, [fp, #-12]
40009938:	e51b0010 	ldr	r0, [fp, #-16]
4000993c:	e59b1004 	ldr	r1, [fp, #4]
40009940:	e1a02003 	mov	r2, r3
40009944:	ebfffda8 	bl	40008fec <vsprintf>
40009948:	e50b0008 	str	r0, [fp, #-8]
4000994c:	e51b3008 	ldr	r3, [fp, #-8]
40009950:	e1a00003 	mov	r0, r3
40009954:	e24bd004 	sub	sp, fp, #4
40009958:	e8bd4800 	pop	{fp, lr}
4000995c:	e28dd00c 	add	sp, sp, #12
40009960:	e12fff1e 	bx	lr

40009964 <printf>:
40009964:	e92d000f 	push	{r0, r1, r2, r3}
40009968:	e92d4800 	push	{fp, lr}
4000996c:	e28db004 	add	fp, sp, #4
40009970:	e24dd06c 	sub	sp, sp, #108	; 0x6c
40009974:	e28b2008 	add	r2, fp, #8
40009978:	e24b300c 	sub	r3, fp, #12
4000997c:	e5832000 	str	r2, [r3]
40009980:	e51b300c 	ldr	r3, [fp, #-12]
40009984:	e24b2070 	sub	r2, fp, #112	; 0x70
40009988:	e1a00002 	mov	r0, r2
4000998c:	e59b1004 	ldr	r1, [fp, #4]
40009990:	e1a02003 	mov	r2, r3
40009994:	ebfffd94 	bl	40008fec <vsprintf>
40009998:	e1a03000 	mov	r3, r0
4000999c:	e50b3008 	str	r3, [fp, #-8]
400099a0:	e24b3070 	sub	r3, fp, #112	; 0x70
400099a4:	e1a00003 	mov	r0, r3
400099a8:	eb0000b2 	bl	40009c78 <puts>
400099ac:	e24bd004 	sub	sp, fp, #4
400099b0:	e8bd4800 	pop	{fp, lr}
400099b4:	e28dd010 	add	sp, sp, #16
400099b8:	e12fff1e 	bx	lr

400099bc <delay_init>:
400099bc:	e52db004 	push	{fp}		; (str fp, [sp, #-4]!)
400099c0:	e28db000 	add	fp, sp, #0
400099c4:	e59f308c 	ldr	r3, [pc, #140]	; 40009a58 <delay_init+0x9c>
400099c8:	e59f2088 	ldr	r2, [pc, #136]	; 40009a58 <delay_init+0x9c>
400099cc:	e5922000 	ldr	r2, [r2]
400099d0:	e3c22cff 	bic	r2, r2, #65280	; 0xff00
400099d4:	e3822c63 	orr	r2, r2, #25344	; 0x6300
400099d8:	e5832000 	str	r2, [r3]
400099dc:	e59f3074 	ldr	r3, [pc, #116]	; 40009a58 <delay_init+0x9c>
400099e0:	e59f2070 	ldr	r2, [pc, #112]	; 40009a58 <delay_init+0x9c>
400099e4:	e5922004 	ldr	r2, [r2, #4]
400099e8:	e3c2280f 	bic	r2, r2, #983040	; 0xf0000
400099ec:	e5832004 	str	r2, [r3, #4]
400099f0:	e59f3060 	ldr	r3, [pc, #96]	; 40009a58 <delay_init+0x9c>
400099f4:	e3e02000 	mvn	r2, #0
400099f8:	e583203c 	str	r2, [r3, #60]	; 0x3c
400099fc:	e59f3054 	ldr	r3, [pc, #84]	; 40009a58 <delay_init+0x9c>
40009a00:	e59f2050 	ldr	r2, [pc, #80]	; 40009a58 <delay_init+0x9c>
40009a04:	e5922008 	ldr	r2, [r2, #8]
40009a08:	e3822602 	orr	r2, r2, #2097152	; 0x200000
40009a0c:	e5832008 	str	r2, [r3, #8]
40009a10:	e59f3040 	ldr	r3, [pc, #64]	; 40009a58 <delay_init+0x9c>
40009a14:	e59f203c 	ldr	r2, [pc, #60]	; 40009a58 <delay_init+0x9c>
40009a18:	e5922008 	ldr	r2, [r2, #8]
40009a1c:	e3c22602 	bic	r2, r2, #2097152	; 0x200000
40009a20:	e5832008 	str	r2, [r3, #8]
40009a24:	e59f302c 	ldr	r3, [pc, #44]	; 40009a58 <delay_init+0x9c>
40009a28:	e59f2028 	ldr	r2, [pc, #40]	; 40009a58 <delay_init+0x9c>
40009a2c:	e5922008 	ldr	r2, [r2, #8]
40009a30:	e3822501 	orr	r2, r2, #4194304	; 0x400000
40009a34:	e5832008 	str	r2, [r3, #8]
40009a38:	e59f3018 	ldr	r3, [pc, #24]	; 40009a58 <delay_init+0x9c>
40009a3c:	e59f2014 	ldr	r2, [pc, #20]	; 40009a58 <delay_init+0x9c>
40009a40:	e5922008 	ldr	r2, [r2, #8]
40009a44:	e3822601 	orr	r2, r2, #1048576	; 0x100000
40009a48:	e5832008 	str	r2, [r3, #8]
40009a4c:	e28bd000 	add	sp, fp, #0
40009a50:	e8bd0800 	ldmfd	sp!, {fp}
40009a54:	e12fff1e 	bx	lr
40009a58:	139d0000 	orrsne	r0, sp, #0

40009a5c <pwm_init>:
40009a5c:	e52db004 	push	{fp}		; (str fp, [sp, #-4]!)
40009a60:	e28db000 	add	fp, sp, #0
40009a64:	e24dd008 	sub	sp, sp, #8
40009a68:	e50b0004 	str	r0, [fp, #-4]
40009a6c:	e50b1008 	str	r1, [fp, #-8]
40009a70:	e59f30a0 	ldr	r3, [pc, #160]	; 40009b18 <pwm_init+0xbc>
40009a74:	e59f209c 	ldr	r2, [pc, #156]	; 40009b18 <pwm_init+0xbc>
40009a78:	e5922000 	ldr	r2, [r2]
40009a7c:	e3c2200f 	bic	r2, r2, #15
40009a80:	e3822002 	orr	r2, r2, #2
40009a84:	e5832000 	str	r2, [r3]
40009a88:	e59f308c 	ldr	r3, [pc, #140]	; 40009b1c <pwm_init+0xc0>
40009a8c:	e59f2088 	ldr	r2, [pc, #136]	; 40009b1c <pwm_init+0xc0>
40009a90:	e5922000 	ldr	r2, [r2]
40009a94:	e3c220ff 	bic	r2, r2, #255	; 0xff
40009a98:	e38220f9 	orr	r2, r2, #249	; 0xf9
40009a9c:	e5832000 	str	r2, [r3]
40009aa0:	e59f3074 	ldr	r3, [pc, #116]	; 40009b1c <pwm_init+0xc0>
40009aa4:	e59f2070 	ldr	r2, [pc, #112]	; 40009b1c <pwm_init+0xc0>
40009aa8:	e5922004 	ldr	r2, [r2, #4]
40009aac:	e3c2200f 	bic	r2, r2, #15
40009ab0:	e3822001 	orr	r2, r2, #1
40009ab4:	e5832004 	str	r2, [r3, #4]
40009ab8:	e59f305c 	ldr	r3, [pc, #92]	; 40009b1c <pwm_init+0xc0>
40009abc:	e51b2004 	ldr	r2, [fp, #-4]
40009ac0:	e583200c 	str	r2, [r3, #12]
40009ac4:	e59f3050 	ldr	r3, [pc, #80]	; 40009b1c <pwm_init+0xc0>
40009ac8:	e51b2008 	ldr	r2, [fp, #-8]
40009acc:	e5832010 	str	r2, [r3, #16]
40009ad0:	e59f3044 	ldr	r3, [pc, #68]	; 40009b1c <pwm_init+0xc0>
40009ad4:	e59f2040 	ldr	r2, [pc, #64]	; 40009b1c <pwm_init+0xc0>
40009ad8:	e5922008 	ldr	r2, [r2, #8]
40009adc:	e3822002 	orr	r2, r2, #2
40009ae0:	e5832008 	str	r2, [r3, #8]
40009ae4:	e59f3030 	ldr	r3, [pc, #48]	; 40009b1c <pwm_init+0xc0>
40009ae8:	e59f202c 	ldr	r2, [pc, #44]	; 40009b1c <pwm_init+0xc0>
40009aec:	e5922008 	ldr	r2, [r2, #8]
40009af0:	e3c22002 	bic	r2, r2, #2
40009af4:	e5832008 	str	r2, [r3, #8]
40009af8:	e59f301c 	ldr	r3, [pc, #28]	; 40009b1c <pwm_init+0xc0>
40009afc:	e59f2018 	ldr	r2, [pc, #24]	; 40009b1c <pwm_init+0xc0>
40009b00:	e5922008 	ldr	r2, [r2, #8]
40009b04:	e382200c 	orr	r2, r2, #12
40009b08:	e5832008 	str	r2, [r3, #8]
40009b0c:	e28bd000 	add	sp, fp, #0
40009b10:	e8bd0800 	ldmfd	sp!, {fp}
40009b14:	e12fff1e 	bx	lr
40009b18:	114000a0 	smlaltbne	r0, r0, r0, r0	; <UNPREDICTABLE>
40009b1c:	139d0000 	orrsne	r0, sp, #0

40009b20 <pwm_start>:
40009b20:	e52db004 	push	{fp}		; (str fp, [sp, #-4]!)
40009b24:	e28db000 	add	fp, sp, #0
40009b28:	e59f3018 	ldr	r3, [pc, #24]	; 40009b48 <pwm_start+0x28>
40009b2c:	e59f2014 	ldr	r2, [pc, #20]	; 40009b48 <pwm_start+0x28>
40009b30:	e5922008 	ldr	r2, [r2, #8]
40009b34:	e3822001 	orr	r2, r2, #1
40009b38:	e5832008 	str	r2, [r3, #8]
40009b3c:	e28bd000 	add	sp, fp, #0
40009b40:	e8bd0800 	ldmfd	sp!, {fp}
40009b44:	e12fff1e 	bx	lr
40009b48:	139d0000 	orrsne	r0, sp, #0

40009b4c <pwm_stop>:
40009b4c:	e52db004 	push	{fp}		; (str fp, [sp, #-4]!)
40009b50:	e28db000 	add	fp, sp, #0
40009b54:	e59f3018 	ldr	r3, [pc, #24]	; 40009b74 <pwm_stop+0x28>
40009b58:	e59f2014 	ldr	r2, [pc, #20]	; 40009b74 <pwm_stop+0x28>
40009b5c:	e5922008 	ldr	r2, [r2, #8]
40009b60:	e3c22001 	bic	r2, r2, #1
40009b64:	e5832008 	str	r2, [r3, #8]
40009b68:	e28bd000 	add	sp, fp, #0
40009b6c:	e8bd0800 	ldmfd	sp!, {fp}
40009b70:	e12fff1e 	bx	lr
40009b74:	139d0000 	orrsne	r0, sp, #0

40009b78 <delayms>:
40009b78:	e52db004 	push	{fp}		; (str fp, [sp, #-4]!)
40009b7c:	e28db000 	add	fp, sp, #0
40009b80:	e24dd008 	sub	sp, sp, #8
40009b84:	e50b0008 	str	r0, [fp, #-8]
40009b88:	e59f3038 	ldr	r3, [pc, #56]	; 40009bc8 <delayms+0x50>
40009b8c:	e5933040 	ldr	r3, [r3, #64]	; 0x40
40009b90:	e50b3004 	str	r3, [fp, #-4]
40009b94:	e1a00000 	nop			; (mov r0, r0)
40009b98:	e59f3028 	ldr	r3, [pc, #40]	; 40009bc8 <delayms+0x50>
40009b9c:	e5933040 	ldr	r3, [r3, #64]	; 0x40
40009ba0:	e51b2004 	ldr	r2, [fp, #-4]
40009ba4:	e0632002 	rsb	r2, r3, r2
40009ba8:	e51b3008 	ldr	r3, [fp, #-8]
40009bac:	e3a01ffa 	mov	r1, #1000	; 0x3e8
40009bb0:	e0030391 	mul	r3, r1, r3
40009bb4:	e1520003 	cmp	r2, r3
40009bb8:	3afffff6 	bcc	40009b98 <delayms+0x20>
40009bbc:	e28bd000 	add	sp, fp, #0
40009bc0:	e8bd0800 	ldmfd	sp!, {fp}
40009bc4:	e12fff1e 	bx	lr
40009bc8:	139d0000 	orrsne	r0, sp, #0

40009bcc <uart_init>:
40009bcc:	e52db004 	push	{fp}		; (str fp, [sp, #-4]!)
40009bd0:	e28db000 	add	fp, sp, #0
40009bd4:	e59f304c 	ldr	r3, [pc, #76]	; 40009c28 <uart_init+0x5c>
40009bd8:	e59f2048 	ldr	r2, [pc, #72]	; 40009c28 <uart_init+0x5c>
40009bdc:	e5922000 	ldr	r2, [r2]
40009be0:	e3c220ff 	bic	r2, r2, #255	; 0xff
40009be4:	e3822022 	orr	r2, r2, #34	; 0x22
40009be8:	e5832000 	str	r2, [r3]
40009bec:	e59f3038 	ldr	r3, [pc, #56]	; 40009c2c <uart_init+0x60>
40009bf0:	e3a02003 	mov	r2, #3
40009bf4:	e5832000 	str	r2, [r3]
40009bf8:	e59f302c 	ldr	r3, [pc, #44]	; 40009c2c <uart_init+0x60>
40009bfc:	e3a02005 	mov	r2, #5
40009c00:	e5832004 	str	r2, [r3, #4]
40009c04:	e59f3020 	ldr	r3, [pc, #32]	; 40009c2c <uart_init+0x60>
40009c08:	e3a02035 	mov	r2, #53	; 0x35
40009c0c:	e5832028 	str	r2, [r3, #40]	; 0x28
40009c10:	e59f3014 	ldr	r3, [pc, #20]	; 40009c2c <uart_init+0x60>
40009c14:	e3a02004 	mov	r2, #4
40009c18:	e583202c 	str	r2, [r3, #44]	; 0x2c
40009c1c:	e28bd000 	add	sp, fp, #0
40009c20:	e8bd0800 	ldmfd	sp!, {fp}
40009c24:	e12fff1e 	bx	lr
40009c28:	11400020 	cmpne	r0, r0, lsr #32
40009c2c:	13820000 	orrne	r0, r2, #0

40009c30 <putc>:
40009c30:	e52db004 	push	{fp}		; (str fp, [sp, #-4]!)
40009c34:	e28db000 	add	fp, sp, #0
40009c38:	e24dd004 	sub	sp, sp, #4
40009c3c:	e1a03000 	mov	r3, r0
40009c40:	e54b3004 	strb	r3, [fp, #-4]
40009c44:	e1a00000 	nop			; (mov r0, r0)
40009c48:	e59f3024 	ldr	r3, [pc, #36]	; 40009c74 <putc+0x44>
40009c4c:	e5933010 	ldr	r3, [r3, #16]
40009c50:	e2033002 	and	r3, r3, #2
40009c54:	e3530000 	cmp	r3, #0
40009c58:	0afffffa 	beq	40009c48 <putc+0x18>
40009c5c:	e59f3010 	ldr	r3, [pc, #16]	; 40009c74 <putc+0x44>
40009c60:	e55b2004 	ldrb	r2, [fp, #-4]
40009c64:	e5832020 	str	r2, [r3, #32]
40009c68:	e28bd000 	add	sp, fp, #0
40009c6c:	e8bd0800 	ldmfd	sp!, {fp}
40009c70:	e12fff1e 	bx	lr
40009c74:	13820000 	orrne	r0, r2, #0

40009c78 <puts>:
40009c78:	e92d4800 	push	{fp, lr}
40009c7c:	e28db004 	add	fp, sp, #4
40009c80:	e24dd004 	sub	sp, sp, #4
40009c84:	e50b0008 	str	r0, [fp, #-8]
40009c88:	ea000006 	b	40009ca8 <puts+0x30>
40009c8c:	e51b3008 	ldr	r3, [fp, #-8]
40009c90:	e5d33000 	ldrb	r3, [r3]
40009c94:	e51b2008 	ldr	r2, [fp, #-8]
40009c98:	e2822001 	add	r2, r2, #1
40009c9c:	e50b2008 	str	r2, [fp, #-8]
40009ca0:	e1a00003 	mov	r0, r3
40009ca4:	ebffffe1 	bl	40009c30 <putc>
40009ca8:	e51b3008 	ldr	r3, [fp, #-8]
40009cac:	e5d33000 	ldrb	r3, [r3]
40009cb0:	e3530000 	cmp	r3, #0
40009cb4:	1afffff4 	bne	40009c8c <puts+0x14>
40009cb8:	e24bd004 	sub	sp, fp, #4
40009cbc:	e8bd8800 	pop	{fp, pc}

40009cc0 <__udivsi3>:
40009cc0:	e3510000 	cmp	r1, #0
40009cc4:	0a00001f 	beq	40009d48 <Ldiv0>
40009cc8:	e3a03001 	mov	r3, #1
40009ccc:	e3a02000 	mov	r2, #0
40009cd0:	e1500001 	cmp	r0, r1
40009cd4:	3a000019 	bcc	40009d40 <Lgot_result>

40009cd8 <Loop1>:
40009cd8:	e3510201 	cmp	r1, #268435456	; 0x10000000
40009cdc:	31510000 	cmpcc	r1, r0
40009ce0:	31a01201 	lslcc	r1, r1, #4
40009ce4:	31a03203 	lslcc	r3, r3, #4
40009ce8:	3afffffa 	bcc	40009cd8 <Loop1>

40009cec <Lbignum>:
40009cec:	e3510102 	cmp	r1, #-2147483648	; 0x80000000
40009cf0:	31510000 	cmpcc	r1, r0
40009cf4:	31a01081 	lslcc	r1, r1, #1
40009cf8:	31a03083 	lslcc	r3, r3, #1
40009cfc:	3afffffa 	bcc	40009cec <Lbignum>

40009d00 <Loop3>:
40009d00:	e1500001 	cmp	r0, r1
40009d04:	20400001 	subcs	r0, r0, r1
40009d08:	21822003 	orrcs	r2, r2, r3
40009d0c:	e15000a1 	cmp	r0, r1, lsr #1
40009d10:	204000a1 	subcs	r0, r0, r1, lsr #1
40009d14:	218220a3 	orrcs	r2, r2, r3, lsr #1
40009d18:	e1500121 	cmp	r0, r1, lsr #2
40009d1c:	20400121 	subcs	r0, r0, r1, lsr #2
40009d20:	21822123 	orrcs	r2, r2, r3, lsr #2
40009d24:	e15001a1 	cmp	r0, r1, lsr #3
40009d28:	204001a1 	subcs	r0, r0, r1, lsr #3
40009d2c:	218221a3 	orrcs	r2, r2, r3, lsr #3
40009d30:	e3500000 	cmp	r0, #0
40009d34:	11b03223 	lsrsne	r3, r3, #4
40009d38:	11a01221 	lsrne	r1, r1, #4
40009d3c:	1affffef 	bne	40009d00 <Loop3>

40009d40 <Lgot_result>:
40009d40:	e1a00002 	mov	r0, r2
40009d44:	e1a0f00e 	mov	pc, lr

40009d48 <Ldiv0>:
40009d48:	e52de004 	push	{lr}		; (str lr, [sp, #-4]!)
40009d4c:	e3a00000 	mov	r0, #0
40009d50:	e8bd8000 	ldmfd	sp!, {pc}

40009d54 <__umodsi3>:
40009d54:	e3510000 	cmp	r1, #0
40009d58:	0a000026 	beq	40009df8 <Ldiv0>
40009d5c:	e3a03001 	mov	r3, #1
40009d60:	e1500001 	cmp	r0, r1
40009d64:	31a0f00e 	movcc	pc, lr

40009d68 <Loop1>:
40009d68:	e3510201 	cmp	r1, #268435456	; 0x10000000
40009d6c:	31510000 	cmpcc	r1, r0
40009d70:	31a01201 	lslcc	r1, r1, #4
40009d74:	31a03203 	lslcc	r3, r3, #4
40009d78:	3afffffa 	bcc	40009d68 <Loop1>

40009d7c <Lbignum>:
40009d7c:	e3510102 	cmp	r1, #-2147483648	; 0x80000000
40009d80:	31510000 	cmpcc	r1, r0
40009d84:	31a01081 	lslcc	r1, r1, #1
40009d88:	31a03083 	lslcc	r3, r3, #1
40009d8c:	3afffffa 	bcc	40009d7c <Lbignum>

40009d90 <Loop3>:
40009d90:	e3a02000 	mov	r2, #0
40009d94:	e1500001 	cmp	r0, r1
40009d98:	20400001 	subcs	r0, r0, r1
40009d9c:	e15000a1 	cmp	r0, r1, lsr #1
40009da0:	204000a1 	subcs	r0, r0, r1, lsr #1
40009da4:	218220e3 	orrcs	r2, r2, r3, ror #1
40009da8:	e1500121 	cmp	r0, r1, lsr #2
40009dac:	20400121 	subcs	r0, r0, r1, lsr #2
40009db0:	21822163 	orrcs	r2, r2, r3, ror #2
40009db4:	e15001a1 	cmp	r0, r1, lsr #3
40009db8:	204001a1 	subcs	r0, r0, r1, lsr #3
40009dbc:	218221e3 	orrcs	r2, r2, r3, ror #3
40009dc0:	e1a0c003 	mov	ip, r3
40009dc4:	e3500000 	cmp	r0, #0
40009dc8:	11b03223 	lsrsne	r3, r3, #4
40009dcc:	11a01221 	lsrne	r1, r1, #4
40009dd0:	1affffee 	bne	40009d90 <Loop3>
40009dd4:	e212220e 	ands	r2, r2, #-536870912	; 0xe0000000
40009dd8:	01a0f00e 	moveq	pc, lr
40009ddc:	e11201ec 	tst	r2, ip, ror #3
40009de0:	108001a1 	addne	r0, r0, r1, lsr #3
40009de4:	e112016c 	tst	r2, ip, ror #2
40009de8:	10800121 	addne	r0, r0, r1, lsr #2
40009dec:	e11200ec 	tst	r2, ip, ror #1
40009df0:	108000a1 	addne	r0, r0, r1, lsr #1
40009df4:	e1a0f00e 	mov	pc, lr

40009df8 <Ldiv0>:
40009df8:	e52de004 	push	{lr}		; (str lr, [sp, #-4]!)
40009dfc:	e3a00000 	mov	r0, #0
40009e00:	e8bd8000 	ldmfd	sp!, {pc}

Disassembly of section .rodata:

40009e04 <MyScore>:
40009e04:	01f401b8 	ldrheq	r0, [r4, #24]!
40009e08:	00fa014a 	rscseq	r0, sl, sl, asr #2
40009e0c:	00fa0188 	rscseq	r0, sl, r8, lsl #3
40009e10:	01f401b8 	ldrheq	r0, [r4, #24]!
40009e14:	00fa01b8 	ldrhteq	r0, [sl], #24
40009e18:	00fa020b 	rscseq	r0, sl, fp, lsl #4
40009e1c:	01f4020b 	mvnseq	r0, fp, lsl #4
40009e20:	00fa024b 	rscseq	r0, sl, fp, asr #4
40009e24:	00fa020b 	rscseq	r0, sl, fp, lsl #4
40009e28:	03e801b8 	mvneq	r0, #184, 2	; 0x2e
40009e2c:	01f4020b 	mvnseq	r0, fp, lsl #4
40009e30:	00fa020b 	rscseq	r0, sl, fp, lsl #4
40009e34:	00fa0188 	rscseq	r0, sl, r8, lsl #3
40009e38:	00fa020b 	rscseq	r0, sl, fp, lsl #4
40009e3c:	00fa024b 	rscseq	r0, sl, fp, asr #4
40009e40:	00fa0293 	smlalseq	r0, sl, r3, r2
40009e44:	00fa0310 	rscseq	r0, sl, r0, lsl r3
40009e48:	00fa0310 	rscseq	r0, sl, r0, lsl r3
40009e4c:	00fa0293 	smlalseq	r0, sl, r3, r2
40009e50:	01f4024b 	mvnseq	r0, fp, asr #4
40009e54:	03e80293 	mvneq	r0, #805306377	; 0x30000009
40009e58:	00fa0370 	rscseq	r0, sl, r0, ror r3
40009e5c:	00fa0370 	rscseq	r0, sl, r0, ror r3
40009e60:	00fa0370 	rscseq	r0, sl, r0, ror r3
40009e64:	00fa0310 	rscseq	r0, sl, r0, lsl r3
40009e68:	00fa0293 	smlalseq	r0, sl, r3, r2
40009e6c:	01f40293 			; <UNDEFINED> instruction: 0x01f40293
40009e70:	00fa020b 	rscseq	r0, sl, fp, lsl #4
40009e74:	00fa01b8 	ldrhteq	r0, [sl], #24
40009e78:	00fa01b8 	ldrhteq	r0, [sl], #24
40009e7c:	00fa01b8 	ldrhteq	r0, [sl], #24
40009e80:	00fa0293 	smlalseq	r0, sl, r3, r2
40009e84:	03e8024b 	mvneq	r0, #-1342177276	; 0xb0000004
40009e88:	00fa0293 	smlalseq	r0, sl, r3, r2
40009e8c:	00fa0293 	smlalseq	r0, sl, r3, r2
40009e90:	00fa0310 	rscseq	r0, sl, r0, lsl r3
40009e94:	00fa0293 	smlalseq	r0, sl, r3, r2
40009e98:	00fa024b 	rscseq	r0, sl, fp, asr #4
40009e9c:	00fa0293 	smlalseq	r0, sl, r3, r2
40009ea0:	00fa024b 	rscseq	r0, sl, fp, asr #4
40009ea4:	00fa020b 	rscseq	r0, sl, fp, lsl #4
40009ea8:	01f401b8 	ldrheq	r0, [r4, #24]!
40009eac:	01f40188 	mvnseq	r0, r8, lsl #3
40009eb0:	03e801b8 	mvneq	r0, #184, 2	; 0x2e
40009eb4:	01f401b8 	ldrheq	r0, [r4, #24]!
40009eb8:	00fa014a 	rscseq	r0, sl, sl, asr #2
40009ebc:	00fa0188 	rscseq	r0, sl, r8, lsl #3
40009ec0:	01f401b8 	ldrheq	r0, [r4, #24]!
40009ec4:	00fa01b8 	ldrhteq	r0, [sl], #24
40009ec8:	00fa020b 	rscseq	r0, sl, fp, lsl #4
40009ecc:	01f4020b 	mvnseq	r0, fp, lsl #4
40009ed0:	00fa024b 	rscseq	r0, sl, fp, asr #4
40009ed4:	00fa020b 	rscseq	r0, sl, fp, lsl #4
40009ed8:	03e801b8 	mvneq	r0, #184, 2	; 0x2e
40009edc:	01f4020b 	mvnseq	r0, fp, lsl #4
40009ee0:	00fa020b 	rscseq	r0, sl, fp, lsl #4
40009ee4:	00fa0188 	rscseq	r0, sl, r8, lsl #3
40009ee8:	00fa020b 	rscseq	r0, sl, fp, lsl #4
40009eec:	00fa024b 	rscseq	r0, sl, fp, asr #4
40009ef0:	00fa0293 	smlalseq	r0, sl, r3, r2
40009ef4:	00fa0310 	rscseq	r0, sl, r0, lsl r3
40009ef8:	00fa0310 	rscseq	r0, sl, r0, lsl r3
40009efc:	00fa0293 	smlalseq	r0, sl, r3, r2
40009f00:	01f4024b 	mvnseq	r0, fp, asr #4
40009f04:	03e80293 	mvneq	r0, #805306377	; 0x30000009
40009f08:	00fa0370 	rscseq	r0, sl, r0, ror r3
40009f0c:	00fa0370 	rscseq	r0, sl, r0, ror r3
40009f10:	00fa0370 	rscseq	r0, sl, r0, ror r3
40009f14:	00fa0310 	rscseq	r0, sl, r0, lsl r3
40009f18:	00fa0293 	smlalseq	r0, sl, r3, r2
40009f1c:	01f40293 			; <UNDEFINED> instruction: 0x01f40293
40009f20:	00fa020b 	rscseq	r0, sl, fp, lsl #4
40009f24:	00fa01b8 	ldrhteq	r0, [sl], #24
40009f28:	00fa01b8 	ldrhteq	r0, [sl], #24
40009f2c:	00fa01b8 	ldrhteq	r0, [sl], #24
40009f30:	00fa0293 	smlalseq	r0, sl, r3, r2
40009f34:	03e8024b 	mvneq	r0, #-1342177276	; 0xb0000004
40009f38:	00fa0293 	smlalseq	r0, sl, r3, r2
40009f3c:	00fa0293 	smlalseq	r0, sl, r3, r2
40009f40:	00fa0310 	rscseq	r0, sl, r0, lsl r3
40009f44:	00fa0293 	smlalseq	r0, sl, r3, r2
40009f48:	00fa024b 	rscseq	r0, sl, fp, asr #4
40009f4c:	00fa0293 	smlalseq	r0, sl, r3, r2
40009f50:	00fa024b 	rscseq	r0, sl, fp, asr #4
40009f54:	00fa020b 	rscseq	r0, sl, fp, lsl #4
40009f58:	01f401b8 	ldrheq	r0, [r4, #24]!
40009f5c:	01f40188 	mvnseq	r0, r8, lsl #3
40009f60:	03e801b8 	mvneq	r0, #184, 2	; 0x2e
40009f64:	00fa0293 	smlalseq	r0, sl, r3, r2
40009f68:	00fa0293 	smlalseq	r0, sl, r3, r2
40009f6c:	00fa0310 	rscseq	r0, sl, r0, lsl r3
40009f70:	00fa0293 	smlalseq	r0, sl, r3, r2
40009f74:	00fa0293 	smlalseq	r0, sl, r3, r2
40009f78:	00fa0310 	rscseq	r0, sl, r0, lsl r3
40009f7c:	00fa0310 	rscseq	r0, sl, r0, lsl r3
40009f80:	00fa0370 	rscseq	r0, sl, r0, ror r3
40009f84:	00fa0417 	rscseq	r0, sl, r7, lsl r4
40009f88:	00fa0370 	rscseq	r0, sl, r0, ror r3
40009f8c:	01f40310 	mvnseq	r0, r0, lsl r3
40009f90:	03e80370 	mvneq	r0, #112, 6	; 0xc0000001
40009f94:	01f401b8 	ldrheq	r0, [r4, #24]!
40009f98:	00fa01b8 	ldrhteq	r0, [sl], #24
40009f9c:	00fa0188 	rscseq	r0, sl, r8, lsl #3
40009fa0:	01f401b8 	ldrheq	r0, [r4, #24]!
40009fa4:	01f4020b 	mvnseq	r0, fp, lsl #4
40009fa8:	00fa024b 	rscseq	r0, sl, fp, asr #4
40009fac:	007d0293 			; <UNDEFINED> instruction: 0x007d0293
40009fb0:	007d024b 	rsbseq	r0, sp, fp, asr #4
40009fb4:	00fa020b 	rscseq	r0, sl, fp, lsl #4
40009fb8:	00fa024b 	rscseq	r0, sl, fp, asr #4
40009fbc:	03e80293 	mvneq	r0, #805306377	; 0x30000009
40009fc0:	00fa01b8 	ldrhteq	r0, [sl], #24
40009fc4:	00fa0370 	rscseq	r0, sl, r0, ror r3
40009fc8:	00fa0370 	rscseq	r0, sl, r0, ror r3
40009fcc:	00fa0310 	rscseq	r0, sl, r0, lsl r3
40009fd0:	00fa024b 	rscseq	r0, sl, fp, asr #4
40009fd4:	007d0293 			; <UNDEFINED> instruction: 0x007d0293
40009fd8:	007d024b 	rsbseq	r0, sp, fp, asr #4
40009fdc:	00fa020b 	rscseq	r0, sl, fp, lsl #4
40009fe0:	00fa024b 	rscseq	r0, sl, fp, asr #4
40009fe4:	03e80293 	mvneq	r0, #805306377	; 0x30000009
40009fe8:	00fa020b 	rscseq	r0, sl, fp, lsl #4
40009fec:	00fa01b8 	ldrhteq	r0, [sl], #24
40009ff0:	00fa01b8 	ldrhteq	r0, [sl], #24
40009ff4:	00fa020b 	rscseq	r0, sl, fp, lsl #4
40009ff8:	01f4024b 	mvnseq	r0, fp, asr #4
40009ffc:	00fa0188 	rscseq	r0, sl, r8, lsl #3
4000a000:	00fa0188 	rscseq	r0, sl, r8, lsl #3
4000a004:	00fa0293 	smlalseq	r0, sl, r3, r2
4000a008:	00fa0310 	rscseq	r0, sl, r0, lsl r3
4000a00c:	00fa0293 	smlalseq	r0, sl, r3, r2
4000a010:	00fa024b 	rscseq	r0, sl, fp, asr #4
4000a014:	03e8020b 	mvneq	r0, #-1342177280	; 0xb0000000
4000a018:	00fa01b8 	ldrhteq	r0, [sl], #24
4000a01c:	00fa020b 	rscseq	r0, sl, fp, lsl #4
4000a020:	00fa024b 	rscseq	r0, sl, fp, asr #4
4000a024:	00fa0293 	smlalseq	r0, sl, r3, r2
4000a028:	00fa024b 	rscseq	r0, sl, fp, asr #4
4000a02c:	00fa020b 	rscseq	r0, sl, fp, lsl #4
4000a030:	00fa0188 	rscseq	r0, sl, r8, lsl #3
4000a034:	00fa014a 	rscseq	r0, sl, sl, asr #2
4000a038:	03e801b8 	mvneq	r0, #184, 2	; 0x2e
4000a03c:	01f401b8 	ldrheq	r0, [r4, #24]!
4000a040:	00fa01b8 	ldrhteq	r0, [sl], #24
4000a044:	00fa0188 	rscseq	r0, sl, r8, lsl #3
4000a048:	01f401b8 	ldrheq	r0, [r4, #24]!
4000a04c:	01f4020b 	mvnseq	r0, fp, lsl #4
4000a050:	00fa024b 	rscseq	r0, sl, fp, asr #4
4000a054:	007d0293 			; <UNDEFINED> instruction: 0x007d0293
4000a058:	007d024b 	rsbseq	r0, sp, fp, asr #4
4000a05c:	00fa020b 	rscseq	r0, sl, fp, lsl #4
4000a060:	00fa024b 	rscseq	r0, sl, fp, asr #4
4000a064:	03e80293 	mvneq	r0, #805306377	; 0x30000009
4000a068:	00fa01b8 	ldrhteq	r0, [sl], #24
4000a06c:	00fa0370 	rscseq	r0, sl, r0, ror r3
4000a070:	00fa0370 	rscseq	r0, sl, r0, ror r3
4000a074:	00fa0310 	rscseq	r0, sl, r0, lsl r3
4000a078:	00fa024b 	rscseq	r0, sl, fp, asr #4
4000a07c:	007d0293 			; <UNDEFINED> instruction: 0x007d0293
4000a080:	007d024b 	rsbseq	r0, sp, fp, asr #4
4000a084:	00fa020b 	rscseq	r0, sl, fp, lsl #4
4000a088:	00fa024b 	rscseq	r0, sl, fp, asr #4
4000a08c:	03e80293 	mvneq	r0, #805306377	; 0x30000009
4000a090:	00fa020b 	rscseq	r0, sl, fp, lsl #4
4000a094:	00fa01b8 	ldrhteq	r0, [sl], #24
4000a098:	00fa01b8 	ldrhteq	r0, [sl], #24
4000a09c:	00fa020b 	rscseq	r0, sl, fp, lsl #4
4000a0a0:	01f4024b 	mvnseq	r0, fp, asr #4
4000a0a4:	00fa0188 	rscseq	r0, sl, r8, lsl #3
4000a0a8:	00fa0188 	rscseq	r0, sl, r8, lsl #3
4000a0ac:	00fa0293 	smlalseq	r0, sl, r3, r2
4000a0b0:	00fa0310 	rscseq	r0, sl, r0, lsl r3
4000a0b4:	00fa0293 	smlalseq	r0, sl, r3, r2
4000a0b8:	00fa024b 	rscseq	r0, sl, fp, asr #4
4000a0bc:	02ee020b 	rsceq	r0, lr, #-1342177280	; 0xb0000000
4000a0c0:	00fa020b 	rscseq	r0, sl, fp, lsl #4
4000a0c4:	00fa01b8 	ldrhteq	r0, [sl], #24
4000a0c8:	00fa020b 	rscseq	r0, sl, fp, lsl #4
4000a0cc:	00fa024b 	rscseq	r0, sl, fp, asr #4
4000a0d0:	00fa0293 	smlalseq	r0, sl, r3, r2
4000a0d4:	00fa0310 	rscseq	r0, sl, r0, lsl r3
4000a0d8:	00fa0293 	smlalseq	r0, sl, r3, r2
4000a0dc:	00fa0293 	smlalseq	r0, sl, r3, r2
4000a0e0:	00fa0310 	rscseq	r0, sl, r0, lsl r3
4000a0e4:	03e80370 	mvneq	r0, #112, 6	; 0xc0000001
4000a0e8:	03e80370 	mvneq	r0, #112, 6	; 0xc0000001
4000a0ec:	01f401b8 	ldrheq	r0, [r4, #24]!
4000a0f0:	00fa01b8 	ldrhteq	r0, [sl], #24
4000a0f4:	00fa0188 	rscseq	r0, sl, r8, lsl #3
4000a0f8:	01f401b8 	ldrheq	r0, [r4, #24]!
4000a0fc:	00fa01b8 	ldrhteq	r0, [sl], #24
4000a100:	00fa020b 	rscseq	r0, sl, fp, lsl #4
4000a104:	00fa024b 	rscseq	r0, sl, fp, asr #4
4000a108:	007d0293 			; <UNDEFINED> instruction: 0x007d0293
4000a10c:	007d024b 	rsbseq	r0, sp, fp, asr #4
4000a110:	00fa020b 	rscseq	r0, sl, fp, lsl #4
4000a114:	00fa024b 	rscseq	r0, sl, fp, asr #4
4000a118:	03e80293 	mvneq	r0, #805306377	; 0x30000009
4000a11c:	00fa0370 	rscseq	r0, sl, r0, ror r3
4000a120:	00fa0310 	rscseq	r0, sl, r0, lsl r3
4000a124:	00fa0293 	smlalseq	r0, sl, r3, r2
4000a128:	00fa024b 	rscseq	r0, sl, fp, asr #4
4000a12c:	00fa0310 	rscseq	r0, sl, r0, lsl r3
4000a130:	00fa0293 	smlalseq	r0, sl, r3, r2
4000a134:	00fa024b 	rscseq	r0, sl, fp, asr #4
4000a138:	00fa020b 	rscseq	r0, sl, fp, lsl #4
4000a13c:	03e8020b 	mvneq	r0, #-1342177280	; 0xb0000000
4000a140:	01f401b8 	ldrheq	r0, [r4, #24]!
4000a144:	00fa01b8 	ldrhteq	r0, [sl], #24
4000a148:	00fa0188 	rscseq	r0, sl, r8, lsl #3
4000a14c:	01f401b8 	ldrheq	r0, [r4, #24]!
4000a150:	01f4020b 	mvnseq	r0, fp, lsl #4
4000a154:	00fa024b 	rscseq	r0, sl, fp, asr #4
4000a158:	007d0293 			; <UNDEFINED> instruction: 0x007d0293
4000a15c:	007d024b 	rsbseq	r0, sp, fp, asr #4
4000a160:	00fa020b 	rscseq	r0, sl, fp, lsl #4
4000a164:	00fa024b 	rscseq	r0, sl, fp, asr #4
4000a168:	03e80293 	mvneq	r0, #805306377	; 0x30000009
4000a16c:	00fa01b8 	ldrhteq	r0, [sl], #24
4000a170:	00fa0370 	rscseq	r0, sl, r0, ror r3
4000a174:	00fa0370 	rscseq	r0, sl, r0, ror r3
4000a178:	00fa0310 	rscseq	r0, sl, r0, lsl r3
4000a17c:	00fa024b 	rscseq	r0, sl, fp, asr #4
4000a180:	007d0293 			; <UNDEFINED> instruction: 0x007d0293
4000a184:	007d024b 	rsbseq	r0, sp, fp, asr #4
4000a188:	00fa020b 	rscseq	r0, sl, fp, lsl #4
4000a18c:	00fa024b 	rscseq	r0, sl, fp, asr #4
4000a190:	03e80293 	mvneq	r0, #805306377	; 0x30000009
4000a194:	00fa020b 	rscseq	r0, sl, fp, lsl #4
4000a198:	00fa01b8 	ldrhteq	r0, [sl], #24
4000a19c:	00fa01b8 	ldrhteq	r0, [sl], #24
4000a1a0:	00fa020b 	rscseq	r0, sl, fp, lsl #4
4000a1a4:	01f4024b 	mvnseq	r0, fp, asr #4
4000a1a8:	00fa0188 	rscseq	r0, sl, r8, lsl #3
4000a1ac:	00fa0188 	rscseq	r0, sl, r8, lsl #3
4000a1b0:	00fa0293 	smlalseq	r0, sl, r3, r2
4000a1b4:	00fa0310 	rscseq	r0, sl, r0, lsl r3
4000a1b8:	00fa0293 	smlalseq	r0, sl, r3, r2
4000a1bc:	00fa024b 	rscseq	r0, sl, fp, asr #4
4000a1c0:	03e8020b 	mvneq	r0, #-1342177280	; 0xb0000000
4000a1c4:	00fa01b8 	ldrhteq	r0, [sl], #24
4000a1c8:	00fa020b 	rscseq	r0, sl, fp, lsl #4
4000a1cc:	00fa024b 	rscseq	r0, sl, fp, asr #4
4000a1d0:	00fa0293 	smlalseq	r0, sl, r3, r2
4000a1d4:	00fa024b 	rscseq	r0, sl, fp, asr #4
4000a1d8:	00fa020b 	rscseq	r0, sl, fp, lsl #4
4000a1dc:	00fa0188 	rscseq	r0, sl, r8, lsl #3
4000a1e0:	00fa014a 	rscseq	r0, sl, sl, asr #2
4000a1e4:	03e801b8 	mvneq	r0, #184, 2	; 0x2e
4000a1e8:	01f401b8 	ldrheq	r0, [r4, #24]!
4000a1ec:	00fa01b8 	ldrhteq	r0, [sl], #24
4000a1f0:	00fa0188 	rscseq	r0, sl, r8, lsl #3
4000a1f4:	01f401b8 	ldrheq	r0, [r4, #24]!
4000a1f8:	01f4020b 	mvnseq	r0, fp, lsl #4
4000a1fc:	00fa024b 	rscseq	r0, sl, fp, asr #4
4000a200:	007d0293 			; <UNDEFINED> instruction: 0x007d0293
4000a204:	007d024b 	rsbseq	r0, sp, fp, asr #4
4000a208:	00fa020b 	rscseq	r0, sl, fp, lsl #4
4000a20c:	00fa024b 	rscseq	r0, sl, fp, asr #4
4000a210:	03e80293 	mvneq	r0, #805306377	; 0x30000009
4000a214:	00fa01b8 	ldrhteq	r0, [sl], #24
4000a218:	00fa0370 	rscseq	r0, sl, r0, ror r3
4000a21c:	00fa0370 	rscseq	r0, sl, r0, ror r3
4000a220:	00fa0310 	rscseq	r0, sl, r0, lsl r3
4000a224:	00fa024b 	rscseq	r0, sl, fp, asr #4
4000a228:	007d0293 			; <UNDEFINED> instruction: 0x007d0293
4000a22c:	007d024b 	rsbseq	r0, sp, fp, asr #4
4000a230:	00fa020b 	rscseq	r0, sl, fp, lsl #4
4000a234:	00fa024b 	rscseq	r0, sl, fp, asr #4
4000a238:	03e80293 	mvneq	r0, #805306377	; 0x30000009
4000a23c:	00fa020b 	rscseq	r0, sl, fp, lsl #4
4000a240:	00fa01b8 	ldrhteq	r0, [sl], #24
4000a244:	00fa01b8 	ldrhteq	r0, [sl], #24
4000a248:	00fa020b 	rscseq	r0, sl, fp, lsl #4
4000a24c:	01f4024b 	mvnseq	r0, fp, asr #4
4000a250:	00fa0188 	rscseq	r0, sl, r8, lsl #3
4000a254:	00fa0188 	rscseq	r0, sl, r8, lsl #3
4000a258:	00fa0293 	smlalseq	r0, sl, r3, r2
4000a25c:	00fa0310 	rscseq	r0, sl, r0, lsl r3
4000a260:	00fa0293 	smlalseq	r0, sl, r3, r2
4000a264:	00fa024b 	rscseq	r0, sl, fp, asr #4
4000a268:	02ee020b 	rsceq	r0, lr, #-1342177280	; 0xb0000000
4000a26c:	00fa020b 	rscseq	r0, sl, fp, lsl #4
4000a270:	00fa01b8 	ldrhteq	r0, [sl], #24
4000a274:	00fa020b 	rscseq	r0, sl, fp, lsl #4
4000a278:	00fa024b 	rscseq	r0, sl, fp, asr #4
4000a27c:	00fa0293 	smlalseq	r0, sl, r3, r2
4000a280:	00fa0310 	rscseq	r0, sl, r0, lsl r3
4000a284:	00fa0293 	smlalseq	r0, sl, r3, r2
4000a288:	00fa0293 	smlalseq	r0, sl, r3, r2
4000a28c:	00fa0310 	rscseq	r0, sl, r0, lsl r3
4000a290:	03e80370 	mvneq	r0, #112, 6	; 0xc0000001
4000a294:	03e80370 	mvneq	r0, #112, 6	; 0xc0000001
4000a298:	00000000 	andeq	r0, r0, r0

4000a29c <MyScore1>:
4000a29c:	00fa020b 	rscseq	r0, sl, fp, lsl #4
4000a2a0:	01f4020b 	mvnseq	r0, fp, lsl #4
4000a2a4:	00fa01b8 	ldrhteq	r0, [sl], #24
4000a2a8:	01f40188 	mvnseq	r0, r8, lsl #3
4000a2ac:	01f401b8 	ldrheq	r0, [r4, #24]!
4000a2b0:	01f4020b 	mvnseq	r0, fp, lsl #4
4000a2b4:	00fa020b 	rscseq	r0, sl, fp, lsl #4
4000a2b8:	00fa024b 	rscseq	r0, sl, fp, asr #4
4000a2bc:	03e80293 	mvneq	r0, #805306377	; 0x30000009
4000a2c0:	00fa024b 	rscseq	r0, sl, fp, asr #4
4000a2c4:	01f4024b 	mvnseq	r0, fp, asr #4
4000a2c8:	00fa020b 	rscseq	r0, sl, fp, lsl #4
4000a2cc:	01f4024b 	mvnseq	r0, fp, asr #4
4000a2d0:	00fa024b 	rscseq	r0, sl, fp, asr #4
4000a2d4:	00fa0310 	rscseq	r0, sl, r0, lsl r3
4000a2d8:	00fa0310 	rscseq	r0, sl, r0, lsl r3
4000a2dc:	00fa0293 	smlalseq	r0, sl, r3, r2
4000a2e0:	00fa0293 	smlalseq	r0, sl, r3, r2
4000a2e4:	00fa024b 	rscseq	r0, sl, fp, asr #4
4000a2e8:	03e80293 	mvneq	r0, #805306377	; 0x30000009
4000a2ec:	00fa020b 	rscseq	r0, sl, fp, lsl #4
4000a2f0:	01f4020b 	mvnseq	r0, fp, lsl #4
4000a2f4:	00fa01b8 	ldrhteq	r0, [sl], #24
4000a2f8:	01f40188 	mvnseq	r0, r8, lsl #3
4000a2fc:	01f40310 	mvnseq	r0, r0, lsl r3
4000a300:	00fa0293 	smlalseq	r0, sl, r3, r2
4000a304:	00fa024b 	rscseq	r0, sl, fp, asr #4
4000a308:	00fa0293 	smlalseq	r0, sl, r3, r2
4000a30c:	00fa024b 	rscseq	r0, sl, fp, asr #4
4000a310:	03e8020b 	mvneq	r0, #-1342177280	; 0xb0000000
4000a314:	00fa024b 	rscseq	r0, sl, fp, asr #4
4000a318:	01f4024b 	mvnseq	r0, fp, asr #4
4000a31c:	00fa020b 	rscseq	r0, sl, fp, lsl #4
4000a320:	00fa024b 	rscseq	r0, sl, fp, asr #4
4000a324:	01f4024b 	mvnseq	r0, fp, asr #4
4000a328:	00fa0293 	smlalseq	r0, sl, r3, r2
4000a32c:	00fa024b 	rscseq	r0, sl, fp, asr #4
4000a330:	00fa020b 	rscseq	r0, sl, fp, lsl #4
4000a334:	00fa01b8 	ldrhteq	r0, [sl], #24
4000a338:	00fa024b 	rscseq	r0, sl, fp, asr #4
4000a33c:	03e8020b 	mvneq	r0, #-1342177280	; 0xb0000000
4000a340:	00fa020b 	rscseq	r0, sl, fp, lsl #4
4000a344:	01f4020b 	mvnseq	r0, fp, lsl #4
4000a348:	00fa01b8 	ldrhteq	r0, [sl], #24
4000a34c:	01f40188 	mvnseq	r0, r8, lsl #3
4000a350:	01f401b8 	ldrheq	r0, [r4, #24]!
4000a354:	00fa020b 	rscseq	r0, sl, fp, lsl #4
4000a358:	01f4020b 	mvnseq	r0, fp, lsl #4
4000a35c:	00fa024b 	rscseq	r0, sl, fp, asr #4
4000a360:	03e80293 	mvneq	r0, #805306377	; 0x30000009
4000a364:	00fa024b 	rscseq	r0, sl, fp, asr #4
4000a368:	01f4024b 	mvnseq	r0, fp, asr #4
4000a36c:	00fa020b 	rscseq	r0, sl, fp, lsl #4
4000a370:	01f4024b 	mvnseq	r0, fp, asr #4
4000a374:	00fa024b 	rscseq	r0, sl, fp, asr #4
4000a378:	00fa0310 	rscseq	r0, sl, r0, lsl r3
4000a37c:	00fa0310 	rscseq	r0, sl, r0, lsl r3
4000a380:	00fa0293 	smlalseq	r0, sl, r3, r2
4000a384:	00fa0293 	smlalseq	r0, sl, r3, r2
4000a388:	00fa024b 	rscseq	r0, sl, fp, asr #4
4000a38c:	03e80293 	mvneq	r0, #805306377	; 0x30000009
4000a390:	00fa020b 	rscseq	r0, sl, fp, lsl #4
4000a394:	00fa020b 	rscseq	r0, sl, fp, lsl #4
4000a398:	00fa020b 	rscseq	r0, sl, fp, lsl #4
4000a39c:	00fa01b8 	ldrhteq	r0, [sl], #24
4000a3a0:	01f40188 	mvnseq	r0, r8, lsl #3
4000a3a4:	01f40310 	mvnseq	r0, r0, lsl r3
4000a3a8:	00fa0293 	smlalseq	r0, sl, r3, r2
4000a3ac:	00fa024b 	rscseq	r0, sl, fp, asr #4
4000a3b0:	00fa0293 	smlalseq	r0, sl, r3, r2
4000a3b4:	00fa024b 	rscseq	r0, sl, fp, asr #4
4000a3b8:	03e8020b 	mvneq	r0, #-1342177280	; 0xb0000000
4000a3bc:	00fa024b 	rscseq	r0, sl, fp, asr #4
4000a3c0:	01f4024b 	mvnseq	r0, fp, asr #4
4000a3c4:	00fa020b 	rscseq	r0, sl, fp, lsl #4
4000a3c8:	00fa024b 	rscseq	r0, sl, fp, asr #4
4000a3cc:	01f4024b 	mvnseq	r0, fp, asr #4
4000a3d0:	00fa0293 	smlalseq	r0, sl, r3, r2
4000a3d4:	00fa024b 	rscseq	r0, sl, fp, asr #4
4000a3d8:	00fa020b 	rscseq	r0, sl, fp, lsl #4
4000a3dc:	00fa01b8 	ldrhteq	r0, [sl], #24
4000a3e0:	00fa024b 	rscseq	r0, sl, fp, asr #4
4000a3e4:	03e8020b 	mvneq	r0, #-1342177280	; 0xb0000000
4000a3e8:	00fa0293 	smlalseq	r0, sl, r3, r2
4000a3ec:	01f40310 	mvnseq	r0, r0, lsl r3
4000a3f0:	00fa0310 	rscseq	r0, sl, r0, lsl r3
4000a3f4:	01f40310 	mvnseq	r0, r0, lsl r3
4000a3f8:	01f40310 	mvnseq	r0, r0, lsl r3
4000a3fc:	00fa0370 	rscseq	r0, sl, r0, ror r3
4000a400:	00fa0310 	rscseq	r0, sl, r0, lsl r3
4000a404:	00fa0293 	smlalseq	r0, sl, r3, r2
4000a408:	00fa024b 	rscseq	r0, sl, fp, asr #4
4000a40c:	03e8020b 	mvneq	r0, #-1342177280	; 0xb0000000
4000a410:	00fa0370 	rscseq	r0, sl, r0, ror r3
4000a414:	00fa0417 	rscseq	r0, sl, r7, lsl r4
4000a418:	00fa0370 	rscseq	r0, sl, r0, ror r3
4000a41c:	00fa0310 	rscseq	r0, sl, r0, lsl r3
4000a420:	00fa0293 	smlalseq	r0, sl, r3, r2
4000a424:	00fa024b 	rscseq	r0, sl, fp, asr #4
4000a428:	00fa020b 	rscseq	r0, sl, fp, lsl #4
4000a42c:	00fa01b8 	ldrhteq	r0, [sl], #24
4000a430:	01f4024b 	mvnseq	r0, fp, asr #4
4000a434:	00fa024b 	rscseq	r0, sl, fp, asr #4
4000a438:	00fa0293 	smlalseq	r0, sl, r3, r2
4000a43c:	00fa0293 	smlalseq	r0, sl, r3, r2
4000a440:	02ee024b 	rsceq	r0, lr, #-1342177276	; 0xb0000004
4000a444:	00fa0293 	smlalseq	r0, sl, r3, r2
4000a448:	01f40310 	mvnseq	r0, r0, lsl r3
4000a44c:	00fa0310 	rscseq	r0, sl, r0, lsl r3
4000a450:	01f40310 	mvnseq	r0, r0, lsl r3
4000a454:	01f40310 	mvnseq	r0, r0, lsl r3
4000a458:	00fa0370 	rscseq	r0, sl, r0, ror r3
4000a45c:	00fa0310 	rscseq	r0, sl, r0, lsl r3
4000a460:	00fa0293 	smlalseq	r0, sl, r3, r2
4000a464:	00fa024b 	rscseq	r0, sl, fp, asr #4
4000a468:	03e8020b 	mvneq	r0, #-1342177280	; 0xb0000000
4000a46c:	00fa01b8 	ldrhteq	r0, [sl], #24
4000a470:	00fa020b 	rscseq	r0, sl, fp, lsl #4
4000a474:	00fa01b8 	ldrhteq	r0, [sl], #24
4000a478:	00fa0188 	rscseq	r0, sl, r8, lsl #3
4000a47c:	01f4024b 	mvnseq	r0, fp, asr #4
4000a480:	01f40293 			; <UNDEFINED> instruction: 0x01f40293
4000a484:	05dc020b 	ldrbeq	r0, [ip, #523]	; 0x20b
4000a488:	02ee020b 	rsceq	r0, lr, #-1342177280	; 0xb0000000
4000a48c:	00fa0310 	rscseq	r0, sl, r0, lsl r3
4000a490:	00fa020b 	rscseq	r0, sl, fp, lsl #4
4000a494:	00fa0310 	rscseq	r0, sl, r0, lsl r3
4000a498:	00fa020b 	rscseq	r0, sl, fp, lsl #4
4000a49c:	00fa024b 	rscseq	r0, sl, fp, asr #4
4000a4a0:	07d00293 	bfieq	r0, r3, #5, #12
4000a4a4:	02ee020b 	rsceq	r0, lr, #-1342177280	; 0xb0000000
4000a4a8:	00fa0310 	rscseq	r0, sl, r0, lsl r3
4000a4ac:	00fa020b 	rscseq	r0, sl, fp, lsl #4
4000a4b0:	00fa0310 	rscseq	r0, sl, r0, lsl r3
4000a4b4:	00fa020b 	rscseq	r0, sl, fp, lsl #4
4000a4b8:	00fa024b 	rscseq	r0, sl, fp, asr #4
4000a4bc:	07d0024b 	ldrbeq	r0, [r0, fp, asr #4]
4000a4c0:	02ee020b 	rsceq	r0, lr, #-1342177280	; 0xb0000000
4000a4c4:	00fa0310 	rscseq	r0, sl, r0, lsl r3
4000a4c8:	00fa020b 	rscseq	r0, sl, fp, lsl #4
4000a4cc:	00fa0310 	rscseq	r0, sl, r0, lsl r3
4000a4d0:	00fa024b 	rscseq	r0, sl, fp, asr #4
4000a4d4:	00fa020b 	rscseq	r0, sl, fp, lsl #4
4000a4d8:	03e801b8 	mvneq	r0, #184, 2	; 0x2e
4000a4dc:	00fa01b8 	ldrhteq	r0, [sl], #24
4000a4e0:	00fa0188 	rscseq	r0, sl, r8, lsl #3
4000a4e4:	00fa020b 	rscseq	r0, sl, fp, lsl #4
4000a4e8:	00fa024b 	rscseq	r0, sl, fp, asr #4
4000a4ec:	02ee020b 	rsceq	r0, lr, #-1342177280	; 0xb0000000
4000a4f0:	00fa0310 	rscseq	r0, sl, r0, lsl r3
4000a4f4:	00fa020b 	rscseq	r0, sl, fp, lsl #4
4000a4f8:	00fa0310 	rscseq	r0, sl, r0, lsl r3
4000a4fc:	00fa020b 	rscseq	r0, sl, fp, lsl #4
4000a500:	00fa01b8 	ldrhteq	r0, [sl], #24
4000a504:	07d0020b 	ldrbeq	r0, [r0, fp, lsl #4]
4000a508:	00fa020b 	rscseq	r0, sl, fp, lsl #4
4000a50c:	01f4020b 	mvnseq	r0, fp, lsl #4
4000a510:	00fa01b8 	ldrhteq	r0, [sl], #24
4000a514:	01f40188 	mvnseq	r0, r8, lsl #3
4000a518:	01f401b8 	ldrheq	r0, [r4, #24]!
4000a51c:	00fa020b 	rscseq	r0, sl, fp, lsl #4
4000a520:	01f4020b 	mvnseq	r0, fp, lsl #4
4000a524:	00fa024b 	rscseq	r0, sl, fp, asr #4
4000a528:	03e80293 	mvneq	r0, #805306377	; 0x30000009
4000a52c:	00fa024b 	rscseq	r0, sl, fp, asr #4
4000a530:	01f4024b 	mvnseq	r0, fp, asr #4
4000a534:	00fa020b 	rscseq	r0, sl, fp, lsl #4
4000a538:	01f4024b 	mvnseq	r0, fp, asr #4
4000a53c:	00fa024b 	rscseq	r0, sl, fp, asr #4
4000a540:	00fa0310 	rscseq	r0, sl, r0, lsl r3
4000a544:	00fa0310 	rscseq	r0, sl, r0, lsl r3
4000a548:	00fa0293 	smlalseq	r0, sl, r3, r2
4000a54c:	00fa0293 	smlalseq	r0, sl, r3, r2
4000a550:	00fa024b 	rscseq	r0, sl, fp, asr #4
4000a554:	03e80293 	mvneq	r0, #805306377	; 0x30000009
4000a558:	00fa020b 	rscseq	r0, sl, fp, lsl #4
4000a55c:	00fa020b 	rscseq	r0, sl, fp, lsl #4
4000a560:	00fa020b 	rscseq	r0, sl, fp, lsl #4
4000a564:	00fa01b8 	ldrhteq	r0, [sl], #24
4000a568:	01f40188 	mvnseq	r0, r8, lsl #3
4000a56c:	01f40310 	mvnseq	r0, r0, lsl r3
4000a570:	00fa0293 	smlalseq	r0, sl, r3, r2
4000a574:	00fa024b 	rscseq	r0, sl, fp, asr #4
4000a578:	00fa0293 	smlalseq	r0, sl, r3, r2
4000a57c:	00fa024b 	rscseq	r0, sl, fp, asr #4
4000a580:	03e8020b 	mvneq	r0, #-1342177280	; 0xb0000000
4000a584:	00fa024b 	rscseq	r0, sl, fp, asr #4
4000a588:	01f4024b 	mvnseq	r0, fp, asr #4
4000a58c:	00fa020b 	rscseq	r0, sl, fp, lsl #4
4000a590:	00fa024b 	rscseq	r0, sl, fp, asr #4
4000a594:	01f4024b 	mvnseq	r0, fp, asr #4
4000a598:	00fa0293 	smlalseq	r0, sl, r3, r2
4000a59c:	00fa024b 	rscseq	r0, sl, fp, asr #4
4000a5a0:	00fa020b 	rscseq	r0, sl, fp, lsl #4
4000a5a4:	00fa01b8 	ldrhteq	r0, [sl], #24
4000a5a8:	00fa024b 	rscseq	r0, sl, fp, asr #4
4000a5ac:	03e8020b 	mvneq	r0, #-1342177280	; 0xb0000000
4000a5b0:	00fa0293 	smlalseq	r0, sl, r3, r2
4000a5b4:	01f40310 	mvnseq	r0, r0, lsl r3
4000a5b8:	00fa0310 	rscseq	r0, sl, r0, lsl r3
4000a5bc:	01f40310 	mvnseq	r0, r0, lsl r3
4000a5c0:	01f40310 	mvnseq	r0, r0, lsl r3
4000a5c4:	00fa0370 	rscseq	r0, sl, r0, ror r3
4000a5c8:	00fa0310 	rscseq	r0, sl, r0, lsl r3
4000a5cc:	00fa0293 	smlalseq	r0, sl, r3, r2
4000a5d0:	00fa024b 	rscseq	r0, sl, fp, asr #4
4000a5d4:	03e8020b 	mvneq	r0, #-1342177280	; 0xb0000000
4000a5d8:	00fa0370 	rscseq	r0, sl, r0, ror r3
4000a5dc:	00fa0417 	rscseq	r0, sl, r7, lsl r4
4000a5e0:	00fa0370 	rscseq	r0, sl, r0, ror r3
4000a5e4:	00fa0310 	rscseq	r0, sl, r0, lsl r3
4000a5e8:	00fa0293 	smlalseq	r0, sl, r3, r2
4000a5ec:	00fa024b 	rscseq	r0, sl, fp, asr #4
4000a5f0:	00fa020b 	rscseq	r0, sl, fp, lsl #4
4000a5f4:	00fa01b8 	ldrhteq	r0, [sl], #24
4000a5f8:	01f4024b 	mvnseq	r0, fp, asr #4
4000a5fc:	00fa024b 	rscseq	r0, sl, fp, asr #4
4000a600:	00fa0293 	smlalseq	r0, sl, r3, r2
4000a604:	00fa0293 	smlalseq	r0, sl, r3, r2
4000a608:	02ee024b 	rsceq	r0, lr, #-1342177276	; 0xb0000004
4000a60c:	00fa0293 	smlalseq	r0, sl, r3, r2
4000a610:	01f40310 	mvnseq	r0, r0, lsl r3
4000a614:	00fa0310 	rscseq	r0, sl, r0, lsl r3
4000a618:	01f40310 	mvnseq	r0, r0, lsl r3
4000a61c:	01f40310 	mvnseq	r0, r0, lsl r3
4000a620:	00fa0370 	rscseq	r0, sl, r0, ror r3
4000a624:	00fa0310 	rscseq	r0, sl, r0, lsl r3
4000a628:	00fa0293 	smlalseq	r0, sl, r3, r2
4000a62c:	00fa024b 	rscseq	r0, sl, fp, asr #4
4000a630:	03e8020b 	mvneq	r0, #-1342177280	; 0xb0000000
4000a634:	00fa01b8 	ldrhteq	r0, [sl], #24
4000a638:	00fa020b 	rscseq	r0, sl, fp, lsl #4
4000a63c:	00fa01b8 	ldrhteq	r0, [sl], #24
4000a640:	00fa0188 	rscseq	r0, sl, r8, lsl #3
4000a644:	01f4024b 	mvnseq	r0, fp, asr #4
4000a648:	01f40293 			; <UNDEFINED> instruction: 0x01f40293
4000a64c:	05dc020b 	ldrbeq	r0, [ip, #523]	; 0x20b
4000a650:	02ee020b 	rsceq	r0, lr, #-1342177280	; 0xb0000000
4000a654:	00fa0310 	rscseq	r0, sl, r0, lsl r3
4000a658:	00fa020b 	rscseq	r0, sl, fp, lsl #4
4000a65c:	00fa0310 	rscseq	r0, sl, r0, lsl r3
4000a660:	00fa020b 	rscseq	r0, sl, fp, lsl #4
4000a664:	00fa024b 	rscseq	r0, sl, fp, asr #4
4000a668:	07d00293 	bfieq	r0, r3, #5, #12
4000a66c:	02ee020b 	rsceq	r0, lr, #-1342177280	; 0xb0000000
4000a670:	00fa0310 	rscseq	r0, sl, r0, lsl r3
4000a674:	00fa020b 	rscseq	r0, sl, fp, lsl #4
4000a678:	00fa0310 	rscseq	r0, sl, r0, lsl r3
4000a67c:	00fa020b 	rscseq	r0, sl, fp, lsl #4
4000a680:	00fa024b 	rscseq	r0, sl, fp, asr #4
4000a684:	07d0024b 	ldrbeq	r0, [r0, fp, asr #4]
4000a688:	02ee020b 	rsceq	r0, lr, #-1342177280	; 0xb0000000
4000a68c:	00fa0310 	rscseq	r0, sl, r0, lsl r3
4000a690:	00fa020b 	rscseq	r0, sl, fp, lsl #4
4000a694:	00fa0310 	rscseq	r0, sl, r0, lsl r3
4000a698:	00fa024b 	rscseq	r0, sl, fp, asr #4
4000a69c:	00fa020b 	rscseq	r0, sl, fp, lsl #4
4000a6a0:	03e801b8 	mvneq	r0, #184, 2	; 0x2e
4000a6a4:	00fa01b8 	ldrhteq	r0, [sl], #24
4000a6a8:	00fa0188 	rscseq	r0, sl, r8, lsl #3
4000a6ac:	00fa020b 	rscseq	r0, sl, fp, lsl #4
4000a6b0:	00fa024b 	rscseq	r0, sl, fp, asr #4
4000a6b4:	02ee020b 	rsceq	r0, lr, #-1342177280	; 0xb0000000
4000a6b8:	00fa0310 	rscseq	r0, sl, r0, lsl r3
4000a6bc:	00fa020b 	rscseq	r0, sl, fp, lsl #4
4000a6c0:	00fa0310 	rscseq	r0, sl, r0, lsl r3
4000a6c4:	00fa020b 	rscseq	r0, sl, fp, lsl #4
4000a6c8:	00fa01b8 	ldrhteq	r0, [sl], #24
4000a6cc:	07d0020b 	ldrbeq	r0, [r0, fp, lsl #4]
4000a6d0:	00000000 	andeq	r0, r0, r0
4000a6d4:	3d636461 	cfstrdcc	mvd6, [r3, #-388]!	; 0xfffffe7c
4000a6d8:	66206425 	strtvs	r6, [r0], -r5, lsr #8
4000a6dc:	3d67616c 	stfcce	f6, [r7, #-432]!	; 0xfffffe50
4000a6e0:	0d0a6425 	cfstrseq	mvf6, [sl, #-148]	; 0xffffff6c
4000a6e4:	00000000 	andeq	r0, r0, r0
4000a6e8:	33323130 	teqcc	r2, #48, 2
4000a6ec:	37363534 			; <UNDEFINED> instruction: 0x37363534
4000a6f0:	62613938 	rsbvs	r3, r1, #56, 18	; 0xe0000
4000a6f4:	66656463 	strbtvs	r6, [r5], -r3, ror #8
4000a6f8:	6a696867 	bvs	41a6489c <stack+0x1a5a05c>
4000a6fc:	6e6d6c6b 	cdpvs	12, 6, cr6, cr13, cr11, {3}
4000a700:	7271706f 	rsbsvc	r7, r1, #111	; 0x6f
4000a704:	76757473 			; <UNDEFINED> instruction: 0x76757473
4000a708:	7a797877 	bvc	41e688ec <stack+0x1e5e0ac>
4000a70c:	00000000 	andeq	r0, r0, r0
4000a710:	33323130 	teqcc	r2, #48, 2
4000a714:	37363534 			; <UNDEFINED> instruction: 0x37363534
4000a718:	42413938 	submi	r3, r1, #56, 18	; 0xe0000
4000a71c:	46454443 	strbmi	r4, [r5], -r3, asr #8
4000a720:	4a494847 	bmi	4125c844 <stack+0x1252004>
4000a724:	4e4d4c4b 	cdpmi	12, 4, cr4, cr13, cr11, {2}
4000a728:	5251504f 	subspl	r5, r1, #79	; 0x4f
4000a72c:	56555453 			; <UNDEFINED> instruction: 0x56555453
4000a730:	5a595857 	bpl	41660894 <stack+0x1656054>
4000a734:	00000000 	andeq	r0, r0, r0
4000a738:	4c554e3c 	mrrcmi	14, 3, r4, r5, cr12
4000a73c:	00003e4c 	andeq	r3, r0, ip, asr #28

Disassembly of section .data:

4000a740 <_ctype>:
4000a740:	08080808 	stmdaeq	r8, {r3, fp}
4000a744:	08080808 	stmdaeq	r8, {r3, fp}
4000a748:	28282808 	stmdacs	r8!, {r3, fp, sp}
4000a74c:	08082828 	stmdaeq	r8, {r3, r5, fp, sp}
4000a750:	08080808 	stmdaeq	r8, {r3, fp}
4000a754:	08080808 	stmdaeq	r8, {r3, fp}
4000a758:	08080808 	stmdaeq	r8, {r3, fp}
4000a75c:	08080808 	stmdaeq	r8, {r3, fp}
4000a760:	101010a0 	andsne	r1, r0, r0, lsr #1
4000a764:	10101010 	andsne	r1, r0, r0, lsl r0
4000a768:	10101010 	andsne	r1, r0, r0, lsl r0
4000a76c:	10101010 	andsne	r1, r0, r0, lsl r0
4000a770:	04040404 	streq	r0, [r4], #-1028	; 0x404
4000a774:	04040404 	streq	r0, [r4], #-1028	; 0x404
4000a778:	10100404 	andsne	r0, r0, r4, lsl #8
4000a77c:	10101010 	andsne	r1, r0, r0, lsl r0
4000a780:	41414110 	cmpmi	r1, r0, lsl r1
4000a784:	01414141 	cmpeq	r1, r1, asr #2
4000a788:	01010101 	tsteq	r1, r1, lsl #2
4000a78c:	01010101 	tsteq	r1, r1, lsl #2
4000a790:	01010101 	tsteq	r1, r1, lsl #2
4000a794:	01010101 	tsteq	r1, r1, lsl #2
4000a798:	10010101 	andne	r0, r1, r1, lsl #2
4000a79c:	10101010 	andsne	r1, r0, r0, lsl r0
4000a7a0:	42424210 	submi	r4, r2, #16, 4
4000a7a4:	02424242 	subeq	r4, r2, #536870916	; 0x20000004
4000a7a8:	02020202 	andeq	r0, r2, #536870912	; 0x20000000
4000a7ac:	02020202 	andeq	r0, r2, #536870912	; 0x20000000
4000a7b0:	02020202 	andeq	r0, r2, #536870912	; 0x20000000
4000a7b4:	02020202 	andeq	r0, r2, #536870912	; 0x20000000
4000a7b8:	10020202 	andne	r0, r2, r2, lsl #4
4000a7bc:	08101010 	ldmdaeq	r0, {r4, ip}
	...
4000a7e0:	101010a0 	andsne	r1, r0, r0, lsr #1
4000a7e4:	10101010 	andsne	r1, r0, r0, lsl r0
4000a7e8:	10101010 	andsne	r1, r0, r0, lsl r0
4000a7ec:	10101010 	andsne	r1, r0, r0, lsl r0
4000a7f0:	10101010 	andsne	r1, r0, r0, lsl r0
4000a7f4:	10101010 	andsne	r1, r0, r0, lsl r0
4000a7f8:	10101010 	andsne	r1, r0, r0, lsl r0
4000a7fc:	10101010 	andsne	r1, r0, r0, lsl r0
4000a800:	01010101 	tsteq	r1, r1, lsl #2
4000a804:	01010101 	tsteq	r1, r1, lsl #2
4000a808:	01010101 	tsteq	r1, r1, lsl #2
4000a80c:	01010101 	tsteq	r1, r1, lsl #2
4000a810:	01010101 	tsteq	r1, r1, lsl #2
4000a814:	10010101 	andne	r0, r1, r1, lsl #2
4000a818:	01010101 	tsteq	r1, r1, lsl #2
4000a81c:	02010101 	andeq	r0, r1, #1073741824	; 0x40000000
4000a820:	02020202 	andeq	r0, r2, #536870912	; 0x20000000
4000a824:	02020202 	andeq	r0, r2, #536870912	; 0x20000000
4000a828:	02020202 	andeq	r0, r2, #536870912	; 0x20000000
4000a82c:	02020202 	andeq	r0, r2, #536870912	; 0x20000000
4000a830:	02020202 	andeq	r0, r2, #536870912	; 0x20000000
4000a834:	10020202 	andne	r0, r2, r2, lsl #4
4000a838:	02020202 	andeq	r0, r2, #536870912	; 0x20000000
4000a83c:	02020202 	andeq	r0, r2, #536870912	; 0x20000000

4000a840 <stack>:
	...

Disassembly of section .debug_info:

00000000 <.debug_info>:
   0:	00000071 	andeq	r0, r0, r1, ror r0
   4:	00000002 	andeq	r0, r0, r2
   8:	01040000 	mrseq	r0, (UNDEF: 4)
   c:	00000053 	andeq	r0, r0, r3, asr r0
  10:	00001c01 	andeq	r1, r0, r1, lsl #24
  14:	00002f00 	andeq	r2, r0, r0, lsl #30
  18:	00810000 	addeq	r0, r1, r0
  1c:	0081e840 	addeq	lr, r1, r0, asr #16
  20:	00000040 	andeq	r0, r0, r0, asr #32
  24:	07040200 	streq	r0, [r4, -r0, lsl #4]
  28:	0000015e 	andeq	r0, r0, lr, asr r1
  2c:	00000103 	andeq	r0, r0, r3, lsl #2
  30:	03010000 	movweq	r0, #4096	; 0x1000
  34:	00810001 	addeq	r0, r1, r1
  38:	00817c40 	addeq	r7, r1, r0, asr #24
  3c:	00000040 	andeq	r0, r0, r0, asr #32
  40:	22010400 	andcs	r0, r1, #0, 8
  44:	01000000 	mrseq	r0, (UNDEF: 0)
  48:	006d0111 	rsbeq	r0, sp, r1, lsl r1
  4c:	817c0000 	cmnhi	ip, r0
  50:	81e84000 	mvnhi	r4, r0
  54:	002c4000 	eoreq	r4, ip, r0
  58:	006d0000 	rsbeq	r0, sp, r0
  5c:	2a050000 	bcs	140064 <_start-0x3fec7f9c>
  60:	01000000 	mrseq	r0, (UNDEF: 0)
  64:	00006d13 	andeq	r6, r0, r3, lsl sp
  68:	7a910200 	bvc	fe440870 <stack+0xbe436030>
  6c:	07020200 	streq	r0, [r2, -r0, lsl #4]
  70:	00000009 	andeq	r0, r0, r9
  74:	0001c700 	andeq	ip, r1, r0, lsl #14
  78:	5c000200 	sfmpl	f0, 4, [r0], {-0}
  7c:	04000000 	streq	r0, [r0], #-0
  80:	00005301 	andeq	r5, r0, r1, lsl #6
  84:	009b0100 	addseq	r0, fp, r0, lsl #2
  88:	002f0000 	eoreq	r0, pc, r0
  8c:	81e80000 	mvnhi	r0, r0
  90:	84704000 	ldrbthi	r4, [r0], #-0
  94:	00464000 	subeq	r4, r6, r0
  98:	04020000 	streq	r0, [r2], #-0
  9c:	00015e07 	andeq	r5, r1, r7, lsl #28
  a0:	02180300 	andseq	r0, r8, #0, 6
  a4:	009001ec 	addseq	r0, r0, ip, ror #3
  a8:	43040000 	movwmi	r0, #16384	; 0x4000
  ac:	02004e4f 	andeq	r4, r0, #1264	; 0x4f0
  b0:	002501ed 	eoreq	r0, r5, sp, ror #3
  b4:	23020000 	movwcs	r0, #8192	; 0x2000
  b8:	41440400 	cmpmi	r4, r0, lsl #8
  bc:	ee020054 	mcr	0, 0, r0, cr2, cr4, {2}
  c0:	00002501 	andeq	r2, r0, r1, lsl #10
  c4:	04230200 	strteq	r0, [r3], #-512	; 0x200
  c8:	44555004 	ldrbmi	r5, [r5], #-4
  cc:	01ef0200 	mvneq	r0, r0, lsl #4
  d0:	00000025 	andeq	r0, r0, r5, lsr #32
  d4:	04082302 	streq	r2, [r8], #-770	; 0x302
  d8:	00565244 	subseq	r5, r6, r4, asr #4
  dc:	2501f002 	strcs	pc, [r1, #-2]
  e0:	02000000 	andeq	r0, r0, #0
  e4:	7a050c23 	bvc	143178 <_start-0x3fec4e88>
  e8:	02000000 	andeq	r0, r0, #0
  ec:	002501f1 	strdeq	r0, [r5], -r1	; <UNPREDICTABLE>
  f0:	23020000 	movwcs	r0, #8192	; 0x2000
  f4:	00940510 	addseq	r0, r4, r0, lsl r5
  f8:	f2020000 	vhadd.s8	d0, d2, d0
  fc:	00002501 	andeq	r2, r0, r1, lsl #10
 100:	14230200 	strtne	r0, [r3], #-512	; 0x200
 104:	00a10600 	adceq	r0, r1, r0, lsl #12
 108:	f3020000 	vhadd.u8	d0, d2, d0
 10c:	00002c01 	andeq	r2, r0, r1, lsl #24
 110:	02100300 	andseq	r0, r0, #0, 6
 114:	00e20200 	rsceq	r0, r2, r0, lsl #4
 118:	43040000 	movwmi	r0, #16384	; 0x4000
 11c:	02004e4f 	andeq	r4, r0, #1264	; 0x4f0
 120:	00250201 	eoreq	r0, r5, r1, lsl #4
 124:	23020000 	movwcs	r0, #8192	; 0x2000
 128:	41440400 	cmpmi	r4, r0, lsl #8
 12c:	02020054 	andeq	r0, r2, #84	; 0x54
 130:	00002502 	andeq	r2, r0, r2, lsl #10
 134:	04230200 	strteq	r0, [r3], #-512	; 0x200
 138:	44555004 	ldrbmi	r5, [r5], #-4
 13c:	02030200 	andeq	r0, r3, #0, 4
 140:	00000025 	andeq	r0, r0, r5, lsr #32
 144:	04082302 	streq	r2, [r8], #-770	; 0x302
 148:	00565244 	subseq	r5, r6, r4, asr #4
 14c:	25020402 	strcs	r0, [r2, #-1026]	; 0x402
 150:	02000000 	andeq	r0, r0, #0
 154:	06000c23 	streq	r0, [r0], -r3, lsr #24
 158:	0000008f 	andeq	r0, r0, pc, lsl #1
 15c:	9c020502 	cfstr32ls	mvfx0, [r2], {2}
 160:	03000000 	movweq	r0, #0
 164:	02090210 	andeq	r0, r9, #16, 4
 168:	00000134 	andeq	r0, r0, r4, lsr r1
 16c:	4e4f4304 	cdpmi	3, 4, cr4, cr15, cr4, {0}
 170:	020a0200 	andeq	r0, sl, #0, 4
 174:	00000025 	andeq	r0, r0, r5, lsr #32
 178:	04002302 	streq	r2, [r0], #-770	; 0x302
 17c:	00544144 	subseq	r4, r4, r4, asr #2
 180:	25020b02 	strcs	r0, [r2, #-2818]	; 0xb02
 184:	02000000 	andeq	r0, r0, #0
 188:	50040423 	andpl	r0, r4, r3, lsr #8
 18c:	02004455 	andeq	r4, r0, #1426063360	; 0x55000000
 190:	0025020c 	eoreq	r0, r5, ip, lsl #4
 194:	23020000 	movwcs	r0, #8192	; 0x2000
 198:	52440408 	subpl	r0, r4, #8, 8	; 0x8000000
 19c:	0d020056 	stceq	0, cr0, [r2, #-344]	; 0xfffffea8
 1a0:	00002502 	andeq	r2, r0, r2, lsl #10
 1a4:	0c230200 	sfmeq	f0, 4, [r3], #-0
 1a8:	00750600 	rsbseq	r0, r5, r0, lsl #12
 1ac:	0e020000 	cdpeq	0, 0, cr0, cr2, cr0, {0}
 1b0:	0000ee02 	andeq	lr, r0, r2, lsl #28
 1b4:	6c010700 	stcvs	7, cr0, [r1], {-0}
 1b8:	01000000 	mrseq	r0, (UNDEF: 0)
 1bc:	81e80103 	mvnhi	r0, r3, lsl #2
 1c0:	82504000 	subshi	r4, r0, #0
 1c4:	00584000 	subseq	r4, r8, r0
 1c8:	01080000 	mrseq	r0, (UNDEF: 8)
 1cc:	0064656c 	rsbeq	r6, r4, ip, ror #10
 1d0:	50011601 	andpl	r1, r1, r1, lsl #12
 1d4:	b8400082 	stmdalt	r0, {r1, r7}^
 1d8:	84400083 	strbhi	r0, [r0], #-131	; 0x83
 1dc:	94000000 	strls	r0, [r0], #-0
 1e0:	09000001 	stmdbeq	r0, {r0}
 1e4:	006e6f63 	rsbeq	r6, lr, r3, ror #30
 1e8:	01941601 	orrseq	r1, r4, r1, lsl #12
 1ec:	91020000 	mrsls	r0, (UNDEF: 2)
 1f0:	74630978 	strbtvc	r0, [r3], #-2424	; 0x978
 1f4:	16010072 			; <UNDEFINED> instruction: 0x16010072
 1f8:	00000194 	muleq	r0, r4, r1
 1fc:	0a749102 	beq	1d2460c <_start-0x3e2e39f4>
 200:	18010069 	stmdane	r1, {r0, r3, r5, r6}
 204:	0000019b 	muleq	r0, fp, r1
 208:	08010200 	stmdaeq	r1, {r9}
 20c:	00000081 	andeq	r0, r0, r1, lsl #1
 210:	8a080102 	bhi	200620 <_start-0x3fe079e0>
 214:	0b000000 	bleq	21c <_start-0x40007de4>
 218:	00005f01 	andeq	r5, r0, r1, lsl #30
 21c:	013f0100 	teqeq	pc, r0, lsl #2
 220:	00000194 	muleq	r0, r4, r1
 224:	400083b8 			; <UNDEFINED> instruction: 0x400083b8
 228:	40008470 	andmi	r8, r0, r0, ror r4
 22c:	000000b0 	strheq	r0, [r0], -r0	; <UNPREDICTABLE>
 230:	706d740c 	rsbvc	r7, sp, ip, lsl #8
 234:	94410100 	strbls	r0, [r1], #-256	; 0x100
 238:	02000001 	andeq	r0, r0, #1
 23c:	00007b91 	muleq	r0, r1, fp
 240:	00000224 	andeq	r0, r0, r4, lsr #4
 244:	01210002 	teqeq	r1, r2
 248:	01040000 	mrseq	r0, (UNDEF: 4)
 24c:	00000053 	andeq	r0, r0, r3, asr r0
 250:	0000d301 	andeq	sp, r0, r1, lsl #6
 254:	00002f00 	andeq	r2, r0, r0, lsl #30
 258:	00847000 	addeq	r7, r4, r0
 25c:	0087e440 	addeq	lr, r7, r0, asr #8
 260:	0000af40 	andeq	sl, r0, r0, asr #30
 264:	07040200 	streq	r0, [r4, -r0, lsl #4]
 268:	0000015e 	andeq	r0, r0, lr, asr r1
 26c:	00021003 	andeq	r1, r2, r3
 270:	00007202 	andeq	r7, r0, r2, lsl #4
 274:	4f430400 	svcmi	0x00430400
 278:	0102004e 	tsteq	r2, lr, asr #32
 27c:	00002502 	andeq	r2, r0, r2, lsl #10
 280:	00230200 	eoreq	r0, r3, r0, lsl #4
 284:	54414404 	strbpl	r4, [r1], #-1028	; 0x404
 288:	02020200 	andeq	r0, r2, #0, 4
 28c:	00000025 	andeq	r0, r0, r5, lsr #32
 290:	04042302 	streq	r2, [r4], #-770	; 0x302
 294:	00445550 	subeq	r5, r4, r0, asr r5
 298:	25020302 	strcs	r0, [r2, #-770]	; 0x302
 29c:	02000000 	andeq	r0, r0, #0
 2a0:	44040823 	strmi	r0, [r4], #-2083	; 0x823
 2a4:	02005652 	andeq	r5, r0, #85983232	; 0x5200000
 2a8:	00250204 	eoreq	r0, r5, r4, lsl #4
 2ac:	23020000 	movwcs	r0, #8192	; 0x2000
 2b0:	8f05000c 	svchi	0x0005000c
 2b4:	02000000 	andeq	r0, r0, #0
 2b8:	002c0205 	eoreq	r0, ip, r5, lsl #4
 2bc:	10030000 	andne	r0, r3, r0
 2c0:	c4021202 	strgt	r1, [r2], #-514	; 0x202
 2c4:	04000000 	streq	r0, [r0], #-0
 2c8:	004e4f43 	subeq	r4, lr, r3, asr #30
 2cc:	25021302 	strcs	r1, [r2, #-770]	; 0x302
 2d0:	02000000 	andeq	r0, r0, #0
 2d4:	44040023 	strmi	r0, [r4], #-35	; 0x23
 2d8:	02005441 	andeq	r5, r0, #1090519040	; 0x41000000
 2dc:	00250214 	eoreq	r0, r5, r4, lsl r2
 2e0:	23020000 	movwcs	r0, #8192	; 0x2000
 2e4:	55500404 	ldrbpl	r0, [r0, #-1028]	; 0x404
 2e8:	15020044 	strne	r0, [r2, #-68]	; 0x44
 2ec:	00002502 	andeq	r2, r0, r2, lsl #10
 2f0:	08230200 	stmdaeq	r3!, {r9}
 2f4:	56524404 	ldrbpl	r4, [r2], -r4, lsl #8
 2f8:	02160200 	andseq	r0, r6, #0, 4
 2fc:	00000025 	andeq	r0, r0, r5, lsr #32
 300:	000c2302 	andeq	r2, ip, r2, lsl #6
 304:	0000da05 	andeq	sp, r0, r5, lsl #20
 308:	02170200 	andseq	r0, r7, #0, 4
 30c:	0000007e 	andeq	r0, r0, lr, ror r0
 310:	22030406 	andcs	r0, r3, #100663296	; 0x6000000
 314:	000000f5 	strdeq	r0, [r0], -r5
 318:	0000eb07 	andeq	lr, r0, r7, lsl #22
 31c:	f5240300 			; <UNDEFINED> instruction: 0xf5240300
 320:	02000000 	andeq	r0, r0, #0
 324:	e5070023 	str	r0, [r7, #-35]	; 0x23
 328:	03000000 	movweq	r0, #0
 32c:	0000f525 	andeq	pc, r0, r5, lsr #10
 330:	02230200 	eoreq	r0, r3, #0, 4
 334:	05020200 	streq	r0, [r2, #-512]	; 0x200
 338:	000000a6 	andeq	r0, r0, r6, lsr #1
 33c:	0000b008 	andeq	fp, r0, r8
 340:	d0260300 	eorle	r0, r6, r0, lsl #6
 344:	09000000 	stmdbeq	r0, {}	; <UNPREDICTABLE>
 348:	0000be01 	andeq	fp, r0, r1, lsl #28
 34c:	010a0100 	mrseq	r0, (UNDEF: 26)
 350:	40008470 	andmi	r8, r0, r0, ror r4
 354:	40008530 	andmi	r8, r0, r0, lsr r5
 358:	000000dc 	ldrdeq	r0, [r0], -ip
 35c:	0000012f 	andeq	r0, r0, pc, lsr #2
 360:	00002a0a 	andeq	r2, r0, sl, lsl #20
 364:	2f0a0100 	svccs	0x000a0100
 368:	02000001 	andeq	r0, r0, #1
 36c:	0b007491 	bleq	1d5b8 <_start-0x3ffeaa48>
 370:	6e690504 	cdpvs	5, 6, cr0, cr9, cr4, {0}
 374:	010c0074 	tsteq	ip, r4, ror r0
 378:	000000ce 	andeq	r0, r0, lr, asr #1
 37c:	012f2201 	teqeq	pc, r1, lsl #4
 380:	85300000 	ldrhi	r0, [r0, #-0]!
 384:	87e44000 	strbhi	r4, [r4, r0]!
 388:	01084000 	mrseq	r4, (UNDEF: 8)
 38c:	01d70000 	bicseq	r0, r7, r0
 390:	690d0000 	stmdbvs	sp, {}	; <UNPREDICTABLE>
 394:	2f240100 	svccs	0x00240100
 398:	02000001 	andeq	r0, r0, #1
 39c:	780d7491 	stmdavc	sp, {r0, r4, r7, sl, ip, sp, lr}
 3a0:	2f250100 	svccs	0x00250100
 3a4:	02000001 	andeq	r0, r0, #1
 3a8:	790d7091 	stmdbvc	sp, {r0, r4, r7, ip, sp, lr}
 3ac:	2f250100 	svccs	0x00250100
 3b0:	02000001 	andeq	r0, r0, #1
 3b4:	670e6c91 			; <UNDEFINED> instruction: 0x670e6c91
 3b8:	01000000 	mrseq	r0, (UNDEF: 0)
 3bc:	00012f26 	andeq	r2, r1, r6, lsr #30
 3c0:	68910200 	ldmvs	r1, {r9}
 3c4:	0000df0e 	andeq	sp, r0, lr, lsl #30
 3c8:	2f270100 	svccs	0x00270100
 3cc:	02000001 	andeq	r0, r0, #1
 3d0:	2a0e6091 	bcs	39861c <_start-0x3fc6f9e4>
 3d4:	01000000 	mrseq	r0, (UNDEF: 0)
 3d8:	00002528 	andeq	r2, r0, r8, lsr #10
 3dc:	64910200 	ldrvs	r0, [r1], #512	; 0x200
 3e0:	0085600f 	addeq	r6, r5, pc
 3e4:	0087c840 	addeq	ip, r7, r0, asr #16
 3e8:	f1011040 			; <UNDEFINED> instruction: 0xf1011040
 3ec:	01000001 	tsteq	r0, r1
 3f0:	00012f43 	andeq	r2, r1, r3, asr #30
 3f4:	01bc0100 			; <UNDEFINED> instruction: 0x01bc0100
 3f8:	00110000 	andseq	r0, r1, r0
 3fc:	0085bc0f 	addeq	fp, r5, pc, lsl #24
 400:	00863840 	addeq	r3, r6, r0, asr #16
 404:	f1011240 			; <UNDEFINED> instruction: 0xf1011240
 408:	01000001 	tsteq	r0, r1
 40c:	00012f43 	andeq	r2, r1, r3, asr #30
 410:	00110100 	andseq	r0, r1, r0, lsl #2
 414:	13000000 	movwne	r0, #0
 418:	000000fc 	strdeq	r0, [r0], -ip
 41c:	000001e8 	andeq	r0, r0, r8, ror #3
 420:	00002514 	andeq	r2, r0, r4, lsl r5
 424:	00012500 	andeq	r2, r1, r0, lsl #10
 428:	0000b615 	andeq	fp, r0, r5, lsl r6
 42c:	fa280300 	blx	a01034 <_start-0x3f606fcc>
 430:	01000001 	tsteq	r0, r1
 434:	9e040305 	cdpls	3, 0, cr0, cr4, cr5, {0}
 438:	d7164000 	ldrle	r4, [r6, -r0]
 43c:	13000001 	movwne	r0, #1
 440:	000000fc 	strdeq	r0, [r0], -ip
 444:	00000210 	andeq	r0, r0, r0, lsl r2
 448:	00002514 	andeq	r2, r0, r4, lsl r5
 44c:	00010d00 	andeq	r0, r1, r0, lsl #26
 450:	0000c515 	andeq	ip, r0, r5, lsl r5
 454:	22460300 	subcs	r0, r6, #0, 6
 458:	01000002 	tsteq	r0, r2
 45c:	a29c0305 	addsge	r0, ip, #335544320	; 0x14000000
 460:	ff164000 			; <UNDEFINED> instruction: 0xff164000
 464:	00000001 	andeq	r0, r0, r1
 468:	000004b1 			; <UNDEFINED> instruction: 0x000004b1
 46c:	02540002 	subseq	r0, r4, #2
 470:	01040000 	mrseq	r0, (UNDEF: 4)
 474:	00000053 	andeq	r0, r0, r3, asr r0
 478:	00015001 	andeq	r5, r1, r1
 47c:	00002f00 	andeq	r2, r0, r0, lsl #30
 480:	0087e400 	addeq	lr, r7, r0, lsl #8
 484:	0099bc40 	addseq	fp, r9, r0, asr #24
 488:	00015a40 	andeq	r5, r1, r0, asr #20
 48c:	01320200 	teqeq	r2, r0, lsl #4
 490:	28030000 	stmdacs	r3, {}	; <UNPREDICTABLE>
 494:	00000030 	andeq	r0, r0, r0, lsr r0
 498:	00f10403 	rscseq	r0, r1, r3, lsl #8
 49c:	39020000 	stmdbcc	r2, {}	; <UNPREDICTABLE>
 4a0:	03000001 	movweq	r0, #1
 4a4:	00002566 	andeq	r2, r0, r6, ror #10
 4a8:	01280400 	teqeq	r8, r0, lsl #8
 4ac:	44010000 	strmi	r0, [r1], #-0
 4b0:	00006a01 	andeq	r6, r0, r1, lsl #20
 4b4:	0087e400 	addeq	lr, r7, r0, lsl #8
 4b8:	00883440 	addeq	r3, r8, r0, asr #8
 4bc:	00013440 	andeq	r3, r1, r0, asr #8
 4c0:	00006a00 	andeq	r6, r0, r0, lsl #20
 4c4:	00630500 	rsbeq	r0, r3, r0, lsl #10
 4c8:	006a4401 	rsbeq	r4, sl, r1, lsl #8
 4cc:	91020000 	mrsls	r0, (UNDEF: 2)
 4d0:	01060078 	tsteq	r6, r8, ror r0
 4d4:	00008108 	andeq	r8, r0, r8, lsl #2
 4d8:	03010700 	movweq	r0, #5888	; 0x1700
 4dc:	02000001 	andeq	r0, r0, #1
 4e0:	00d40107 	sbcseq	r0, r4, r7, lsl #2
 4e4:	88340000 	ldmdahi	r4!, {}	; <UNPREDICTABLE>
 4e8:	89d84000 	ldmibhi	r8, {lr}^
 4ec:	01604000 	cmneq	r0, r0
 4f0:	00d40000 	sbcseq	r0, r4, r0
 4f4:	63050000 	movwvs	r0, #20480	; 0x5000
 4f8:	07020070 	smlsdxeq	r2, r0, r0, r0
 4fc:	000000db 	ldrdeq	r0, [r0], -fp
 500:	086c9102 	stmdaeq	ip!, {r1, r8, ip, pc}^
 504:	0000019f 	muleq	r0, pc, r1	; <UNPREDICTABLE>
 508:	00ed0702 	rsceq	r0, sp, r2, lsl #14
 50c:	91020000 	mrsls	r0, (UNDEF: 2)
 510:	014b0868 	cmpeq	fp, r8, ror #16
 514:	07020000 	streq	r0, [r2, -r0]
 518:	000000f9 	strdeq	r0, [r0], -r9
 51c:	09649102 	stmdbeq	r4!, {r1, r8, ip, pc}^
 520:	00000189 	andeq	r0, r0, r9, lsl #3
 524:	00d40902 	sbcseq	r0, r4, r2, lsl #18
 528:	91020000 	mrsls	r0, (UNDEF: 2)
 52c:	01120974 	tsteq	r2, r4, ror r9
 530:	09020000 	stmdbeq	r2, {}	; <UNPREDICTABLE>
 534:	000000d4 	ldrdeq	r0, [r0], -r4
 538:	00709102 	rsbseq	r9, r0, r2, lsl #2
 53c:	59070406 	stmdbpl	r7, {r1, r2, sl}
 540:	0a000001 	beq	54c <_start-0x40007ab4>
 544:	0000e104 	andeq	lr, r0, r4, lsl #2
 548:	00e60b00 	rsceq	r0, r6, r0, lsl #22
 54c:	01060000 	mrseq	r0, (UNDEF: 6)
 550:	00008a08 	andeq	r8, r0, r8, lsl #20
 554:	f3040a00 	vpmax.u8	d0, d4, d0
 558:	0a000000 	beq	560 <_start-0x40007aa0>
 55c:	0000e604 	andeq	lr, r0, r4, lsl #12
 560:	07040600 	streq	r0, [r4, -r0, lsl #12]
 564:	0000015e 	andeq	r0, r0, lr, asr r1
 568:	016b0107 	cmneq	fp, r7, lsl #2
 56c:	22020000 	andcs	r0, r2, #0
 570:	00014701 	andeq	r4, r1, r1, lsl #14
 574:	0089d800 	addeq	sp, r9, r0, lsl #16
 578:	008a4440 	addeq	r4, sl, r0, asr #8
 57c:	00018c40 	andeq	r8, r1, r0, asr #24
 580:	00014700 	andeq	r4, r1, r0, lsl #14
 584:	70630500 	rsbvc	r0, r3, r0, lsl #10
 588:	db220200 	blle	880d90 <_start-0x3f787270>
 58c:	02000000 	andeq	r0, r0, #0
 590:	9f087491 	svcls	0x00087491
 594:	02000001 	andeq	r0, r0, #1
 598:	0000ed22 	andeq	lr, r0, r2, lsr #26
 59c:	70910200 	addsvc	r0, r1, r0, lsl #4
 5a0:	00014b08 	andeq	r4, r1, r8, lsl #22
 5a4:	f9220200 			; <UNDEFINED> instruction: 0xf9220200
 5a8:	02000000 	andeq	r0, r0, #0
 5ac:	06006c91 			; <UNDEFINED> instruction: 0x06006c91
 5b0:	01d60504 	bicseq	r0, r6, r4, lsl #10
 5b4:	1e040000 	cdpne	0, 0, cr0, cr4, cr0, {0}
 5b8:	02000001 	andeq	r0, r0, #1
 5bc:	0183014a 	orreq	r0, r3, sl, asr #2
 5c0:	8a440000 	bhi	11005c8 <_start-0x3ef07a38>
 5c4:	8ad84000 	bhi	ff6105cc <stack+0xbf605d8c>
 5c8:	01b84000 			; <UNDEFINED> instruction: 0x01b84000
 5cc:	01830000 	orreq	r0, r3, r0
 5d0:	73050000 	movwvc	r0, #20480	; 0x5000
 5d4:	8a4a0200 	bhi	1280ddc <_start-0x3ed87224>
 5d8:	02000001 	andeq	r0, r0, #1
 5dc:	690c7491 	stmdbvs	ip, {r0, r4, r7, sl, ip, sp, lr}
 5e0:	834c0200 	movthi	r0, #49664	; 0xc200
 5e4:	02000001 	andeq	r0, r0, #1
 5e8:	0d007891 	stceq	8, cr7, [r0, #-580]	; 0xfffffdbc
 5ec:	6e690504 	cdpvs	5, 6, cr0, cr9, cr4, {0}
 5f0:	040a0074 	streq	r0, [sl], #-116	; 0x74
 5f4:	000000db 	ldrdeq	r0, [r0], -fp
 5f8:	0001cf04 	andeq	ip, r1, r4, lsl #30
 5fc:	01870200 	orreq	r0, r7, r0, lsl #4
 600:	000000f3 	strdeq	r0, [r0], -r3
 604:	40008ad8 	ldrdmi	r8, [r0], -r8	; <UNPREDICTABLE>
 608:	40008f6c 	andmi	r8, r0, ip, ror #30
 60c:	000001e4 	andeq	r0, r0, r4, ror #3
 610:	00000260 	andeq	r0, r0, r0, ror #4
 614:	72747305 	rsbsvc	r7, r4, #335544320	; 0x14000000
 618:	f3870200 	vsubl.u8	q0, d7, d0
 61c:	03000000 	movweq	r0, #0
 620:	057f9c91 	ldrbeq	r9, [pc, #-3217]!	; fffff997 <stack+0xbfff5157>
 624:	006d756e 	rsbeq	r7, sp, lr, ror #10
 628:	01478702 	cmpeq	r7, r2, lsl #14
 62c:	91030000 	mrsls	r0, (UNDEF: 3)
 630:	4b087f98 	blmi	220498 <_start-0x3fde7b68>
 634:	02000001 	andeq	r0, r0, #1
 638:	0000f987 	andeq	pc, r0, r7, lsl #19
 63c:	94910300 	ldrls	r0, [r1], #768	; 0x300
 640:	01ea087f 	mvneq	r0, pc, ror r8
 644:	87020000 	strhi	r0, [r2, -r0]
 648:	00000183 	andeq	r0, r0, r3, lsl #3
 64c:	7f909103 	svcvc	0x00909103
 650:	00014108 	andeq	r4, r1, r8, lsl #2
 654:	83870200 	orrhi	r0, r7, #0, 4
 658:	02000001 	andeq	r0, r0, #1
 65c:	a6080091 			; <UNDEFINED> instruction: 0xa6080091
 660:	02000001 	andeq	r0, r0, #1
 664:	00018387 	andeq	r8, r1, r7, lsl #7
 668:	04910200 	ldreq	r0, [r1], #512	; 0x200
 66c:	0200630c 	andeq	r6, r0, #12, 6	; 0x30000000
 670:	0000e68a 	andeq	lr, r0, sl, lsl #13
 674:	6b910200 	blvs	fe440e7c <stack+0xbe43663c>
 678:	0001df09 	andeq	sp, r1, r9, lsl #30
 67c:	e68a0200 	str	r0, [sl], r0, lsl #4
 680:	02000000 	andeq	r0, r0, #0
 684:	740c7791 	strvc	r7, [ip], #-1937	; 0x791
 688:	0200706d 	andeq	r7, r0, #109	; 0x6d
 68c:	0002608a 	andeq	r6, r2, sl, lsl #1
 690:	a0910300 	addsge	r0, r1, r0, lsl #6
 694:	01ab097f 			; <UNDEFINED> instruction: 0x01ab097f
 698:	8b020000 	blhi	806a0 <_start-0x3ff87960>
 69c:	000000db 	ldrdeq	r0, [r0], -fp
 6a0:	0c709102 	ldfeqp	f1, [r0], #-8
 6a4:	8c020069 	stchi	0, cr0, [r2], {105}	; 0x69
 6a8:	00000183 	andeq	r0, r0, r3, lsl #3
 6ac:	0e6c9102 	lgneqe	f1, f2
 6b0:	40008c9c 	mulmi	r0, ip, ip
 6b4:	40008cd0 	ldrdmi	r8, [r0], -r0
 6b8:	0001e409 	andeq	lr, r1, r9, lsl #8
 6bc:	83ae0200 			; <UNDEFINED> instruction: 0x83ae0200
 6c0:	02000001 	andeq	r0, r0, #1
 6c4:	00006491 	muleq	r0, r1, r4
 6c8:	0000e60f 	andeq	lr, r0, pc, lsl #12
 6cc:	00027000 	andeq	r7, r2, r0
 6d0:	00f91000 	rscseq	r1, r9, r0
 6d4:	00410000 	subeq	r0, r1, r0
 6d8:	01970107 	orrseq	r0, r7, r7, lsl #2
 6dc:	cc020000 	stcgt	0, cr0, [r2], {-0}
 6e0:	0000f901 	andeq	pc, r0, r1, lsl #18
 6e4:	008f6c00 	addeq	r6, pc, r0, lsl #24
 6e8:	008fec40 	addeq	lr, pc, r0, asr #24
 6ec:	00021040 	andeq	r1, r2, r0, asr #32
 6f0:	0002b500 	andeq	fp, r2, r0, lsl #10
 6f4:	00730500 	rsbseq	r0, r3, r0, lsl #10
 6f8:	00dbcc02 	sbcseq	ip, fp, r2, lsl #24
 6fc:	91020000 	mrsls	r0, (UNDEF: 2)
 700:	01180874 	tsteq	r8, r4, ror r8
 704:	cc020000 	stcgt	0, cr0, [r2], {-0}
 708:	000000f9 	strdeq	r0, [r0], -r9
 70c:	0c709102 	ldfeqp	f1, [r0], #-8
 710:	02006373 	andeq	r6, r0, #-872415231	; 0xcc000001
 714:	0000dbce 	andeq	sp, r0, lr, asr #23
 718:	78910200 	ldmvc	r1, {r9}
 71c:	ef010700 	svc	0x00010700
 720:	02000001 	andeq	r0, r0, #1
 724:	018301d4 	ldrdeq	r0, [r3, r4]
 728:	8fec0000 	svchi	0x00ec0000
 72c:	99144000 	ldmdbls	r4, {lr}
 730:	023c4000 	eorseq	r4, ip, #0
 734:	03c50000 	biceq	r0, r5, #0
 738:	62050000 	andvs	r0, r5, #0
 73c:	02006675 	andeq	r6, r0, #122683392	; 0x7500000
 740:	0000f3d4 	ldrdeq	pc, [r0], -r4
 744:	44910200 	ldrmi	r0, [r1], #512	; 0x200
 748:	746d6605 	strbtvc	r6, [sp], #-1541	; 0x605
 74c:	dbd40200 	blle	ff500f54 <stack+0xbf4f6714>
 750:	02000000 	andeq	r0, r0, #0
 754:	ca084091 	bgt	2109a0 <_start-0x3fdf7660>
 758:	02000001 	andeq	r0, r0, #1
 75c:	000036d4 	ldrdeq	r3, [r0], -r4
 760:	bc910300 	ldclt	3, cr0, [r1], {0}
 764:	656c0c7f 	strbvs	r0, [ip, #-3199]!	; 0xc7f
 768:	d602006e 	strle	r0, [r2], -lr, rrx
 76c:	00000183 	andeq	r0, r0, r3, lsl #3
 770:	0c509102 	ldfeqp	f1, [r0], {2}
 774:	006d756e 	rsbeq	r7, sp, lr, ror #10
 778:	00d4da02 	sbcseq	sp, r4, r2, lsl #20
 77c:	91020000 	mrsls	r0, (UNDEF: 2)
 780:	00690c74 	rsbeq	r0, r9, r4, ror ip
 784:	0183dc02 	orreq	sp, r3, r2, lsl #24
 788:	91020000 	mrsls	r0, (UNDEF: 2)
 78c:	014b0970 	hvceq	45200	; 0xb090
 790:	dc020000 	stcle	0, cr0, [r2], {-0}
 794:	00000183 	andeq	r0, r0, r3, lsl #3
 798:	0c6c9102 	stfeqp	f1, [ip], #-8
 79c:	00727473 	rsbseq	r7, r2, r3, ror r4
 7a0:	00f3dd02 	rscseq	sp, r3, r2, lsl #26
 7a4:	91020000 	mrsls	r0, (UNDEF: 2)
 7a8:	00730c68 	rsbseq	r0, r3, r8, ror #24
 7ac:	00dbde02 	sbcseq	sp, fp, r2, lsl #28
 7b0:	91020000 	mrsls	r0, (UNDEF: 2)
 7b4:	01790964 	cmneq	r9, r4, ror #18
 7b8:	e0020000 	and	r0, r2, r0
 7bc:	00000183 	andeq	r0, r0, r3, lsl #3
 7c0:	09609102 	stmdbeq	r0!, {r1, r8, ip, pc}^
 7c4:	000001be 			; <UNDEFINED> instruction: 0x000001be
 7c8:	0183e202 	orreq	lr, r3, r2, lsl #4
 7cc:	91020000 	mrsls	r0, (UNDEF: 2)
 7d0:	0141095c 	cmpeq	r1, ip, asr r9
 7d4:	e3020000 	movw	r0, #8192	; 0x2000
 7d8:	00000183 	andeq	r0, r0, r3, lsl #3
 7dc:	09589102 	ldmdbeq	r8, {r1, r8, ip, pc}^
 7e0:	0000017f 	andeq	r0, r0, pc, ror r1
 7e4:	0183e502 	orreq	lr, r3, r2, lsl #10
 7e8:	91020000 	mrsls	r0, (UNDEF: 2)
 7ec:	01901154 	orrseq	r1, r0, r4, asr r1
 7f0:	ef020000 	svc	0x00020000
 7f4:	40009048 	andmi	r9, r0, r8, asr #32
 7f8:	0096a012 	addseq	sl, r6, r2, lsl r0
 7fc:	0096c840 	addseq	ip, r6, r0, asr #16
 800:	0003ac40 	andeq	sl, r3, r0, asr #24
 804:	70691300 	rsbvc	r1, r9, r0, lsl #6
 808:	014d0200 	mrseq	r0, (UNDEF: 109)
 80c:	000003c5 	andeq	r0, r0, r5, asr #7
 810:	004c9102 	subeq	r9, ip, r2, lsl #2
 814:	0096cc0e 	addseq	ip, r6, lr, lsl #24
 818:	0096f440 	addseq	pc, r6, r0, asr #8
 81c:	70691340 	rsbvc	r1, r9, r0, asr #6
 820:	01500200 	cmpeq	r0, r0, lsl #4
 824:	000003cb 	andeq	r0, r0, fp, asr #7
 828:	00489102 	subeq	r9, r8, r2, lsl #2
 82c:	47040a00 	strmi	r0, [r4, -r0, lsl #20]
 830:	0a000001 	beq	83c <_start-0x400077c4>
 834:	00018304 	andeq	r8, r1, r4, lsl #6
 838:	f0011400 			; <UNDEFINED> instruction: 0xf0011400
 83c:	02000001 	andeq	r0, r0, #1
 840:	8301018b 	movwhi	r0, #4491	; 0x118b
 844:	14000001 	strne	r0, [r0], #-1
 848:	64400099 	strbvs	r0, [r0], #-153	; 0x99
 84c:	68400099 	stmdavs	r0, {r0, r3, r4, r7}^
 850:	2b000002 	blcs	860 <_start-0x400077a0>
 854:	15000004 	strne	r0, [r0, #-4]
 858:	00667562 	rsbeq	r7, r6, r2, ror #10
 85c:	f3018b02 	vqrdmulh.s<illegal width 8>	d8, d1, d2
 860:	02000000 	andeq	r0, r0, #0
 864:	66156091 			; <UNDEFINED> instruction: 0x66156091
 868:	0200746d 	andeq	r7, r0, #1828716544	; 0x6d000000
 86c:	00db018b 	sbcseq	r0, fp, fp, lsl #3
 870:	91020000 	mrsls	r0, (UNDEF: 2)
 874:	ca171674 	bgt	5c624c <_start-0x3fa41db4>
 878:	02000001 	andeq	r0, r0, #1
 87c:	0036018d 	eorseq	r0, r6, sp, lsl #3
 880:	91020000 	mrsls	r0, (UNDEF: 2)
 884:	00691364 	rsbeq	r1, r9, r4, ror #6
 888:	83018e02 	movwhi	r8, #7682	; 0x1e02
 88c:	02000001 	andeq	r0, r0, #1
 890:	18006891 	stmdane	r0, {r0, r4, r7, fp, sp, lr}
 894:	0001f101 	andeq	pc, r1, r1, lsl #2
 898:	01960200 	orrseq	r0, r6, r0, lsl #4
 89c:	00996401 	addseq	r6, r9, r1, lsl #8
 8a0:	0099bc40 	addseq	fp, r9, r0, asr #24
 8a4:	0002a040 	andeq	sl, r2, r0, asr #32
 8a8:	00048200 	andeq	r8, r4, r0, lsl #4
 8ac:	6d661500 	cfstr64vs	mvdx1, [r6, #-0]
 8b0:	96020074 			; <UNDEFINED> instruction: 0x96020074
 8b4:	0000db01 	andeq	sp, r0, r1, lsl #22
 8b8:	70910200 	addsvc	r0, r1, r0, lsl #4
 8bc:	01ca1716 	biceq	r1, sl, r6, lsl r7
 8c0:	98020000 	stmdals	r2, {}	; <UNPREDICTABLE>
 8c4:	00003601 	andeq	r3, r0, r1, lsl #12
 8c8:	60910200 	addsvs	r0, r1, r0, lsl #4
 8cc:	02006913 	andeq	r6, r0, #311296	; 0x4c000
 8d0:	00f90199 	smlalseq	r0, r9, r9, r1
 8d4:	91020000 	mrsls	r0, (UNDEF: 2)
 8d8:	01b21764 			; <UNDEFINED> instruction: 0x01b21764
 8dc:	9a020000 	bls	808e4 <_start-0x3ff8771c>
 8e0:	00048201 	andeq	r8, r4, r1, lsl #4
 8e4:	fc910300 	ldc2	3, cr0, [r1], {0}
 8e8:	e60f007e 			; <UNDEFINED> instruction: 0xe60f007e
 8ec:	92000000 	andls	r0, r0, #0
 8f0:	10000004 	andne	r0, r0, r4
 8f4:	000000f9 	strdeq	r0, [r0], -r9
 8f8:	6a0f0063 	bvs	3c0a8c <_start-0x3fc47574>
 8fc:	a2000000 	andge	r0, r0, #0
 900:	10000004 	andne	r0, r0, r4
 904:	000000f9 	strdeq	r0, [r0], -r9
 908:	a41900ff 	ldrge	r0, [r9], #-255	; 0xff
 90c:	01000001 	tsteq	r0, r1
 910:	00049211 	andeq	r9, r4, r1, lsl r2
 914:	03050100 	movweq	r0, #20736	; 0x5100
 918:	4000a740 	andmi	sl, r0, r0, asr #14
 91c:	00025e00 	andeq	r5, r2, r0, lsl #28
 920:	b6000200 	strlt	r0, [r0], -r0, lsl #4
 924:	04000003 	streq	r0, [r0], #-3
 928:	00005301 	andeq	r5, r0, r1, lsl #6
 92c:	02260100 	eoreq	r0, r6, #0, 2
 930:	002f0000 	eoreq	r0, pc, r0
 934:	99bc0000 	ldmibls	ip!, {}	; <UNPREDICTABLE>
 938:	9bcc4000 	blls	ff310940 <stack+0xbf306100>
 93c:	03954000 	orrseq	r4, r5, #0
 940:	48020000 	stmdami	r2, {}	; <UNPREDICTABLE>
 944:	3d012d02 	stccc	13, cr2, [r1, #-8]
 948:	03000001 	movweq	r0, #1
 94c:	0000025f 	andeq	r0, r0, pc, asr r2
 950:	3d012e02 	stccc	14, cr2, [r1, #-8]
 954:	02000001 	andeq	r0, r0, #1
 958:	1b030023 	blne	c09ec <_start-0x3ff47614>
 95c:	02000002 	andeq	r0, r0, #2
 960:	013d012f 	teqeq	sp, pc, lsr #2
 964:	23020000 	movwcs	r0, #8192	; 0x2000
 968:	026f0304 	rsbeq	r0, pc, #4, 6	; 0x10000000
 96c:	30020000 	andcc	r0, r2, r0
 970:	00013d01 	andeq	r3, r1, r1, lsl #26
 974:	08230200 	stmdaeq	r3!, {r9}
 978:	0002a203 	andeq	sl, r2, r3, lsl #4
 97c:	01310200 	teqeq	r1, r0, lsl #4
 980:	0000013d 	andeq	r0, r0, sp, lsr r1
 984:	030c2302 	movweq	r2, #49922	; 0xc302
 988:	00000203 	andeq	r0, r0, r3, lsl #4
 98c:	3d013202 	sfmcc	f3, 4, [r1, #-8]
 990:	02000001 	andeq	r0, r0, #1
 994:	74031023 	strvc	r1, [r3], #-35	; 0x23
 998:	02000002 	andeq	r0, r0, #2
 99c:	013d0133 	teqeq	sp, r3, lsr r1
 9a0:	23020000 	movwcs	r0, #8192	; 0x2000
 9a4:	02410314 	subeq	r0, r1, #20, 6	; 0x50000000
 9a8:	34020000 	strcc	r0, [r2], #-0
 9ac:	00013d01 	andeq	r3, r1, r1, lsl #26
 9b0:	18230200 	stmdane	r3!, {r9}
 9b4:	00022c03 	andeq	r2, r2, r3, lsl #24
 9b8:	01350200 	teqeq	r5, r0, lsl #4
 9bc:	0000013d 	andeq	r0, r0, sp, lsr r1
 9c0:	031c2302 	tsteq	ip, #134217728	; 0x8000000
 9c4:	0000027b 	andeq	r0, r0, fp, ror r2
 9c8:	3d013602 	stccc	6, cr3, [r1, #-8]
 9cc:	02000001 	andeq	r0, r0, #1
 9d0:	48032023 	stmdami	r3, {r0, r1, r5, sp}
 9d4:	02000002 	andeq	r0, r0, #2
 9d8:	013d0137 	teqeq	sp, r7, lsr r1
 9dc:	23020000 	movwcs	r0, #8192	; 0x2000
 9e0:	02330324 	eorseq	r0, r3, #36, 6	; 0x90000000
 9e4:	38020000 	stmdacc	r2, {}	; <UNPREDICTABLE>
 9e8:	00013d01 	andeq	r3, r1, r1, lsl #26
 9ec:	28230200 	stmdacs	r3!, {r9}
 9f0:	00028203 	andeq	r8, r2, r3, lsl #4
 9f4:	01390200 	teqeq	r9, r0, lsl #4
 9f8:	0000013d 	andeq	r0, r0, sp, lsr r1
 9fc:	032c2302 	teqeq	ip, #134217728	; 0x8000000
 a00:	0000024f 	andeq	r0, r0, pc, asr #4
 a04:	3d013a02 	vstrcc	s6, [r1, #-8]
 a08:	02000001 	andeq	r0, r0, #1
 a0c:	3a033023 	bcc	ccaa0 <_start-0x3ff3b560>
 a10:	02000002 	andeq	r0, r0, #2
 a14:	013d013b 	teqeq	sp, fp, lsr r1
 a18:	23020000 	movwcs	r0, #8192	; 0x2000
 a1c:	02890334 	addeq	r0, r9, #52, 6	; 0xd0000000
 a20:	3c020000 	stccc	0, cr0, [r2], {-0}
 a24:	00013d01 	andeq	r3, r1, r1, lsl #26
 a28:	38230200 	stmdacc	r3!, {r9}
 a2c:	0002a903 	andeq	sl, r2, r3, lsl #18
 a30:	013d0200 	teqeq	sp, r0, lsl #4
 a34:	0000013d 	andeq	r0, r0, sp, lsr r1
 a38:	033c2302 	teqeq	ip, #134217728	; 0x8000000
 a3c:	00000290 	muleq	r0, r0, r2
 a40:	3d013e02 	stccc	14, cr3, [r1, #-8]
 a44:	02000001 	andeq	r0, r0, #1
 a48:	97034023 	strls	r4, [r3, -r3, lsr #32]
 a4c:	02000002 	andeq	r0, r0, #2
 a50:	013d013f 	teqeq	sp, pc, lsr r1
 a54:	23020000 	movwcs	r0, #8192	; 0x2000
 a58:	04040044 	streq	r0, [r4], #-68	; 0x44
 a5c:	00015e07 	andeq	r5, r1, r7, lsl #28
 a60:	77700500 	ldrbvc	r0, [r0, -r0, lsl #10]!
 a64:	4002006d 	andmi	r0, r2, sp, rrx
 a68:	00002501 	andeq	r2, r0, r1, lsl #10
 a6c:	02180200 	andseq	r0, r8, #0, 4
 a70:	01b401b5 			; <UNDEFINED> instruction: 0x01b401b5
 a74:	43060000 	movwmi	r0, #24576	; 0x6000
 a78:	02004e4f 	andeq	r4, r0, #1264	; 0x4f0
 a7c:	013d01b6 			; <UNDEFINED> instruction: 0x013d01b6
 a80:	23020000 	movwcs	r0, #8192	; 0x2000
 a84:	41440600 	cmpmi	r4, r0, lsl #12
 a88:	b7020054 	smlsdlt	r2, r4, r0, r0
 a8c:	00013d01 	andeq	r3, r1, r1, lsl #26
 a90:	04230200 	strteq	r0, [r3], #-512	; 0x200
 a94:	44555006 	ldrbmi	r5, [r5], #-6
 a98:	01b80200 			; <UNDEFINED> instruction: 0x01b80200
 a9c:	0000013d 	andeq	r0, r0, sp, lsr r1
 aa0:	06082302 	streq	r2, [r8], -r2, lsl #6
 aa4:	00565244 	subseq	r5, r6, r4, asr #4
 aa8:	3d01b902 	stccc	9, cr11, [r1, #-8]
 aac:	02000001 	andeq	r0, r0, #1
 ab0:	7a030c23 	bvc	c3b44 <_start-0x3ff444bc>
 ab4:	02000000 	andeq	r0, r0, #0
 ab8:	013d01ba 			; <UNDEFINED> instruction: 0x013d01ba
 abc:	23020000 	movwcs	r0, #8192	; 0x2000
 ac0:	00940310 	addseq	r0, r4, r0, lsl r3
 ac4:	bb020000 	bllt	80acc <_start-0x3ff87534>
 ac8:	00013d01 	andeq	r3, r1, r1, lsl #26
 acc:	14230200 	strtne	r0, [r3], #-512	; 0x200
 ad0:	02210700 	eoreq	r0, r1, #0, 14
 ad4:	bc020000 	stclt	0, cr0, [r2], {-0}
 ad8:	00015001 	andeq	r5, r1, r1
 adc:	f8010800 			; <UNDEFINED> instruction: 0xf8010800
 ae0:	01000001 	tsteq	r0, r1
 ae4:	99bc0104 	ldmibls	ip!, {r2, r8}
 ae8:	9a5c4000 	bls	1710af0 <_start-0x3e8f7510>
 aec:	02d84000 	sbcseq	r4, r8, #0
 af0:	01090000 	mrseq	r0, (UNDEF: 9)
 af4:	00000212 	andeq	r0, r0, r2, lsl r2
 af8:	5c011601 	stcpl	6, cr1, [r1], {1}
 afc:	2040009a 	umaalcs	r0, r0, sl, r0
 b00:	0440009b 	strbeq	r0, [r0], #-155	; 0x9b
 b04:	07000003 	streq	r0, [r0, -r3]
 b08:	0a000002 	beq	b18 <_start-0x400074e8>
 b0c:	16010070 			; <UNDEFINED> instruction: 0x16010070
 b10:	0000013d 	andeq	r0, r0, sp, lsr r1
 b14:	0a789102 	beq	1e24f24 <_start-0x3e1e30dc>
 b18:	16010062 	strne	r0, [r1], -r2, rrx
 b1c:	0000013d 	andeq	r0, r0, sp, lsr r1
 b20:	00749102 	rsbseq	r9, r4, r2, lsl #2
 b24:	02650108 	rsbeq	r0, r5, #8, 2
 b28:	2b010000 	blcs	40b30 <_start-0x3ffc74d0>
 b2c:	009b2001 	addseq	r2, fp, r1
 b30:	009b4c40 	addseq	r4, fp, r0, asr #24
 b34:	00033040 	andeq	r3, r3, r0, asr #32
 b38:	56010800 	strpl	r0, [r1], -r0, lsl #16
 b3c:	01000002 	tsteq	r0, r2
 b40:	9b4c0130 	blls	1301008 <_start-0x3ed06ff8>
 b44:	9b784000 	blls	1e10b4c <_start-0x3e1f74b4>
 b48:	035c4000 	cmpeq	ip, #0
 b4c:	010b0000 	mrseq	r0, (UNDEF: 11)
 b50:	0000020a 	andeq	r0, r0, sl, lsl #4
 b54:	78013501 	stmdavc	r1, {r0, r8, sl, ip, sp}
 b58:	cc40009b 	mcrrgt	0, 9, r0, r0, cr11
 b5c:	8840009b 	stmdahi	r0, {r0, r1, r3, r4, r7}^
 b60:	0a000003 	beq	b74 <_start-0x4000748c>
 b64:	0100736d 	tsteq	r0, sp, ror #6
 b68:	00013d35 	andeq	r3, r1, r5, lsr sp
 b6c:	74910200 	ldrvc	r0, [r1], #512	; 0x200
 b70:	0073750c 	rsbseq	r7, r3, ip, lsl #10
 b74:	013d3701 	teqeq	sp, r1, lsl #14
 b78:	91020000 	mrsls	r0, (UNDEF: 2)
 b7c:	03000078 	movweq	r0, #120	; 0x78
 b80:	02000002 	andeq	r0, r0, #2
 b84:	00047900 	andeq	r7, r4, r0, lsl #18
 b88:	53010400 	movwpl	r0, #5120	; 0x1400
 b8c:	01000000 	mrseq	r0, (UNDEF: 0)
 b90:	000002cd 	andeq	r0, r0, sp, asr #5
 b94:	0000002f 	andeq	r0, r0, pc, lsr #32
 b98:	40009bcc 	andmi	r9, r0, ip, asr #23
 b9c:	40009cc0 	andmi	r9, r0, r0, asr #25
 ba0:	000003fd 	strdeq	r0, [r0], -sp
 ba4:	5e070402 	cdppl	4, 0, cr0, cr7, cr2, {0}
 ba8:	03000001 	movweq	r0, #1
 bac:	01890218 	orreq	r0, r9, r8, lsl r2
 bb0:	00000090 	muleq	r0, r0, r0
 bb4:	4e4f4304 	cdpmi	3, 4, cr4, cr15, cr4, {0}
 bb8:	018a0200 	orreq	r0, sl, r0, lsl #4
 bbc:	00000025 	andeq	r0, r0, r5, lsr #32
 bc0:	04002302 	streq	r2, [r0], #-770	; 0x302
 bc4:	00544144 	subseq	r4, r4, r4, asr #2
 bc8:	25018b02 	strcs	r8, [r1, #-2818]	; 0xb02
 bcc:	02000000 	andeq	r0, r0, #0
 bd0:	50040423 	andpl	r0, r4, r3, lsr #8
 bd4:	02004455 	andeq	r4, r0, #1426063360	; 0x55000000
 bd8:	0025018c 	eoreq	r0, r5, ip, lsl #3
 bdc:	23020000 	movwcs	r0, #8192	; 0x2000
 be0:	52440408 	subpl	r0, r4, #8, 8	; 0x8000000
 be4:	8d020056 	stchi	0, cr0, [r2, #-344]	; 0xfffffea8
 be8:	00002501 	andeq	r2, r0, r1, lsl #10
 bec:	0c230200 	sfmeq	f0, 4, [r3], #-0
 bf0:	00007a05 	andeq	r7, r0, r5, lsl #20
 bf4:	018e0200 	orreq	r0, lr, r0, lsl #4
 bf8:	00000025 	andeq	r0, r0, r5, lsr #32
 bfc:	05102302 	ldreq	r2, [r0, #-770]	; 0x302
 c00:	00000094 	muleq	r0, r4, r0
 c04:	25018f02 	strcs	r8, [r1, #-3842]	; 0xf02
 c08:	02000000 	andeq	r0, r0, #0
 c0c:	06001423 	streq	r1, [r0], -r3, lsr #8
 c10:	00000318 	andeq	r0, r0, r8, lsl r3
 c14:	2c019002 	stccs	0, cr9, [r1], {2}
 c18:	03000000 	movweq	r0, #0
 c1c:	03c9023c 	biceq	r0, r9, #60, 4	; 0xc0000003
 c20:	00000187 	andeq	r0, r0, r7, lsl #3
 c24:	00031105 	andeq	r1, r3, r5, lsl #2
 c28:	03ca0200 	biceq	r0, sl, #0, 4
 c2c:	00000025 	andeq	r0, r0, r5, lsr #32
 c30:	05002302 	streq	r2, [r0, #-770]	; 0x302
 c34:	000002d4 	ldrdeq	r0, [r0], -r4
 c38:	2503cb02 	strcs	ip, [r3, #-2818]	; 0xb02
 c3c:	02000000 	andeq	r0, r0, #0
 c40:	f5050423 			; <UNDEFINED> instruction: 0xf5050423
 c44:	02000002 	andeq	r0, r0, #2
 c48:	002503cc 	eoreq	r0, r5, ip, asr #7
 c4c:	23020000 	movwcs	r0, #8192	; 0x2000
 c50:	03300508 	teqeq	r0, #8, 10	; 0x2000000
 c54:	cd020000 	stcgt	0, cr0, [r2, #-0]
 c58:	00002503 	andeq	r2, r0, r3, lsl #10
 c5c:	0c230200 	sfmeq	f0, 4, [r3], #-0
 c60:	0002e205 	andeq	lr, r2, r5, lsl #4
 c64:	03ce0200 	biceq	r0, lr, #0, 4
 c68:	00000025 	andeq	r0, r0, r5, lsr #32
 c6c:	05102302 	ldreq	r2, [r0, #-770]	; 0x302
 c70:	00000322 	andeq	r0, r0, r2, lsr #6
 c74:	2503cf02 	strcs	ip, [r3, #-3842]	; 0xf02
 c78:	02000000 	andeq	r0, r0, #0
 c7c:	da051423 	ble	145d10 <_start-0x3fec22f0>
 c80:	02000002 	andeq	r0, r0, #2
 c84:	002503d0 	ldrdeq	r0, [r5], -r0	; <UNPREDICTABLE>
 c88:	23020000 	movwcs	r0, #8192	; 0x2000
 c8c:	03020518 	movweq	r0, #9496	; 0x2518
 c90:	d1020000 	mrsle	r0, (UNDEF: 2)
 c94:	00002503 	andeq	r2, r0, r3, lsl #10
 c98:	1c230200 	sfmne	f0, 4, [r3], #-0
 c9c:	0002fc05 	andeq	pc, r2, r5, lsl #24
 ca0:	03d20200 	bicseq	r0, r2, #0, 4
 ca4:	00000025 	andeq	r0, r0, r5, lsr #32
 ca8:	05202302 	streq	r2, [r0, #-770]!	; 0x302
 cac:	00000337 	andeq	r0, r0, r7, lsr r3
 cb0:	2503d302 	strcs	sp, [r3, #-770]	; 0x302
 cb4:	02000000 	andeq	r0, r0, #0
 cb8:	c5052423 	strgt	r2, [r5, #-1059]	; 0x423
 cbc:	02000002 	andeq	r0, r0, #2
 cc0:	002503d4 	ldrdeq	r0, [r5], -r4	; <UNPREDICTABLE>
 cc4:	23020000 	movwcs	r0, #8192	; 0x2000
 cc8:	033d0528 	teqeq	sp, #40, 10	; 0xa000000
 ccc:	d5020000 	strle	r0, [r2, #-0]
 cd0:	00002503 	andeq	r2, r0, r3, lsl #10
 cd4:	2c230200 	sfmcs	f0, 4, [r3], #-0
 cd8:	0002b605 	andeq	fp, r2, r5, lsl #12
 cdc:	03d60200 	bicseq	r0, r6, #0, 4
 ce0:	00000025 	andeq	r0, r0, r5, lsr #32
 ce4:	05302302 	ldreq	r2, [r0, #-770]!	; 0x302
 ce8:	000002bd 			; <UNDEFINED> instruction: 0x000002bd
 cec:	2503d702 	strcs	sp, [r3, #-1794]	; 0x702
 cf0:	02000000 	andeq	r0, r0, #0
 cf4:	0a053423 	beq	14dd88 <_start-0x3feba278>
 cf8:	02000003 	andeq	r0, r0, #3
 cfc:	002503d8 	ldrdeq	r0, [r5], -r8	; <UNPREDICTABLE>
 d00:	23020000 	movwcs	r0, #8192	; 0x2000
 d04:	b0060038 	andlt	r0, r6, r8, lsr r0
 d08:	02000002 	andeq	r0, r0, #2
 d0c:	009c03d9 			; <UNDEFINED> instruction: 0x009c03d9
 d10:	01070000 	mrseq	r0, (UNDEF: 7)
 d14:	000002eb 	andeq	r0, r0, fp, ror #5
 d18:	cc010b01 	stcgt	11, cr0, [r1], {1}
 d1c:	3040009b 	umaalcc	r0, r0, fp, r0
 d20:	b440009c 	strblt	r0, [r0], #-156	; 0x9c
 d24:	08000003 	stmdaeq	r0, {r0, r1}
 d28:	00031d01 	andeq	r1, r3, r1, lsl #26
 d2c:	011b0100 	tsteq	fp, r0, lsl #2
 d30:	40009c30 	andmi	r9, r0, r0, lsr ip
 d34:	40009c78 	andmi	r9, r0, r8, ror ip
 d38:	000003e0 	andeq	r0, r0, r0, ror #7
 d3c:	000001ce 	andeq	r0, r0, lr, asr #3
 d40:	01006309 	tsteq	r0, r9, lsl #6
 d44:	0001ce1b 	andeq	ip, r1, fp, lsl lr
 d48:	78910200 	ldmvc	r1, {r9}
 d4c:	08010200 	stmdaeq	r1, {r9}
 d50:	0000008a 	andeq	r0, r0, sl, lsl #1
 d54:	032b0108 	teqeq	fp, #8, 2
 d58:	21010000 	mrscs	r0, (UNDEF: 1)
 d5c:	009c7801 	addseq	r7, ip, r1, lsl #16
 d60:	009cc040 	addseq	ip, ip, r0, asr #32
 d64:	00040c40 	andeq	r0, r4, r0, asr #24
 d68:	0001fb00 	andeq	pc, r1, r0, lsl #22
 d6c:	00700900 	rsbseq	r0, r0, r0, lsl #18
 d70:	01fb2101 	mvnseq	r2, r1, lsl #2
 d74:	91020000 	mrsls	r0, (UNDEF: 2)
 d78:	040a0074 	streq	r0, [sl], #-116	; 0x74
 d7c:	00000201 	andeq	r0, r0, r1, lsl #4
 d80:	0001ce0b 	andeq	ip, r1, fp, lsl #28
 d84:	00500000 	subseq	r0, r0, r0
 d88:	00020000 	andeq	r0, r2, r0
 d8c:	0000051b 	andeq	r0, r0, fp, lsl r5
 d90:	045e0104 	ldrbeq	r0, [lr], #-260	; 0x104
 d94:	80000000 	andhi	r0, r0, r0
 d98:	80f44000 	rscshi	r4, r4, r0
 d9c:	74734000 	ldrbtvc	r4, [r3], #-0
 da0:	2e747261 	cdpcs	2, 7, cr7, cr4, cr1, {3}
 da4:	6d2f0053 	stcvs	0, cr0, [pc, #-332]!	; c60 <_start-0x400073a0>
 da8:	682f746e 	stmdavs	pc!, {r1, r2, r3, r5, r6, sl, ip, sp, lr}	; <UNPREDICTABLE>
 dac:	2f736667 	svccs	0x00736667
 db0:	e4b185e5 	ldrt	r8, [r1], #1509	; 0x5e5
 db4:	96e6abba 			; <UNDEFINED> instruction: 0x96e6abba
 db8:	b6bbe487 	ldrtlt	lr, [fp], r7, lsl #9
 dbc:	4d52412f 	ldfmie	f4, [r2, #-188]	; 0xffffff44
 dc0:	4d52412f 	ldfmie	f4, [r2, #-188]	; 0xffffff44
 dc4:	65766f5f 	ldrbvs	r6, [r6, #-3935]!	; 0xf5f
 dc8:	4e470072 	mcrmi	0, 2, r0, cr7, cr2, {3}
 dcc:	53412055 	movtpl	r2, #4181	; 0x1055
 dd0:	322e3220 	eorcc	r3, lr, #32, 4
 dd4:	00312e33 	eorseq	r2, r1, r3, lsr lr
 dd8:	00538001 	subseq	r8, r3, r1
 ddc:	00020000 	andeq	r0, r2, r0
 de0:	0000052f 	andeq	r0, r0, pc, lsr #10
 de4:	04cb0104 	strbeq	r0, [fp], #260	; 0x104
 de8:	9cc00000 	stclls	0, cr0, [r0], {0}
 dec:	9d544000 	ldclls	0, cr4, [r4, #-0]
 df0:	755f4000 	ldrbvc	r4, [pc, #-0]	; df8 <_start-0x40007208>
 df4:	73766964 	cmnvc	r6, #100, 18	; 0x190000
 df8:	532e3369 	teqpl	lr, #-1543503871	; 0xa4000001
 dfc:	6e6d2f00 	cdpvs	15, 6, cr2, cr13, cr0, {0}
 e00:	67682f74 			; <UNDEFINED> instruction: 0x67682f74
 e04:	e52f7366 	str	r7, [pc, #-870]!	; aa6 <_start-0x4000755a>
 e08:	bae4b185 	blt	ff92d424 <stack+0xbf922be4>
 e0c:	8796e6ab 	ldrhi	lr, [r6, fp, lsr #13]
 e10:	2fb6bbe4 	svccs	0x00b6bbe4
 e14:	2f4d5241 	svccs	0x004d5241
 e18:	5f4d5241 	svcpl	0x004d5241
 e1c:	7265766f 	rsbvc	r7, r5, #116391936	; 0x6f00000
 e20:	554e4700 	strbpl	r4, [lr, #-1792]	; 0x700
 e24:	20534120 	subscs	r4, r3, r0, lsr #2
 e28:	33322e32 	teqcc	r2, #800	; 0x320
 e2c:	0100312e 	tsteq	r0, lr, lsr #2
 e30:	00005380 	andeq	r5, r0, r0, lsl #7
 e34:	43000200 	movwmi	r0, #512	; 0x200
 e38:	04000005 	streq	r0, [r0], #-5
 e3c:	00052901 	andeq	r2, r5, r1, lsl #18
 e40:	009d5400 	addseq	r5, sp, r0, lsl #8
 e44:	009e0440 	addseq	r0, lr, r0, asr #8
 e48:	6d755f40 	ldclvs	15, cr5, [r5, #-256]!	; 0xffffff00
 e4c:	6973646f 	ldmdbvs	r3!, {r0, r1, r2, r3, r5, r6, sl, sp, lr}^
 e50:	00532e33 	subseq	r2, r3, r3, lsr lr
 e54:	746e6d2f 	strbtvc	r6, [lr], #-3375	; 0xd2f
 e58:	6667682f 	strbtvs	r6, [r7], -pc, lsr #16
 e5c:	85e52f73 	strbhi	r2, [r5, #3955]!	; 0xf73
 e60:	abbae4b1 	blge	feeba12c <stack+0xbeeaf8ec>
 e64:	e48796e6 	str	r9, [r7], #1766	; 0x6e6
 e68:	412fb6bb 			; <UNDEFINED> instruction: 0x412fb6bb
 e6c:	412f4d52 	teqmi	pc, r2, asr sp	; <UNPREDICTABLE>
 e70:	6f5f4d52 	svcvs	0x005f4d52
 e74:	00726576 	rsbseq	r6, r2, r6, ror r5
 e78:	20554e47 	subscs	r4, r5, r7, asr #28
 e7c:	32205341 	eorcc	r5, r0, #67108865	; 0x4000001
 e80:	2e33322e 	cdpcs	2, 3, cr3, cr3, cr14, {1}
 e84:	80010031 	andhi	r0, r1, r1, lsr r0

Disassembly of section .debug_abbrev:

00000000 <.debug_abbrev>:
   0:	25011101 	strcs	r1, [r1, #-257]	; 0x101
   4:	030b130e 	movweq	r1, #45838	; 0xb30e
   8:	110e1b0e 	tstne	lr, lr, lsl #22
   c:	10011201 	andne	r1, r1, r1, lsl #4
  10:	02000006 	andeq	r0, r0, #6
  14:	0b0b0024 	bleq	2c00ac <_start-0x3fd47f54>
  18:	0e030b3e 	vmoveq.16	d3[0], r0
  1c:	2e030000 	cdpcs	0, 0, cr0, cr3, cr0, {0}
  20:	030c3f00 	movweq	r3, #52992	; 0xcf00
  24:	3b0b3a0e 	blcc	2ce864 <_start-0x3fd3979c>
  28:	110c270b 	tstne	ip, fp, lsl #14
  2c:	40011201 	andmi	r1, r1, r1, lsl #4
  30:	04000006 	streq	r0, [r0], #-6
  34:	0c3f012e 	ldfeqs	f0, [pc], #-184	; ffffff84 <stack+0xbfff5744>
  38:	0b3a0e03 	bleq	e8384c <_start-0x3f1847b4>
  3c:	0c270b3b 	stceq	11, cr0, [r7], #-236	; 0xffffff14
  40:	01111349 	tsteq	r1, r9, asr #6
  44:	06400112 			; <UNDEFINED> instruction: 0x06400112
  48:	00001301 	andeq	r1, r0, r1, lsl #6
  4c:	03003405 	movweq	r3, #1029	; 0x405
  50:	3b0b3a0e 	blcc	2ce890 <_start-0x3fd39770>
  54:	0213490b 	andseq	r4, r3, #180224	; 0x2c000
  58:	0000000a 	andeq	r0, r0, sl
  5c:	25011101 	strcs	r1, [r1, #-257]	; 0x101
  60:	030b130e 	movweq	r1, #45838	; 0xb30e
  64:	110e1b0e 	tstne	lr, lr, lsl #22
  68:	10011201 	andne	r1, r1, r1, lsl #4
  6c:	02000006 	andeq	r0, r0, #6
  70:	0b0b0024 	bleq	2c0108 <_start-0x3fd47ef8>
  74:	0e030b3e 	vmoveq.16	d3[0], r0
  78:	13030000 	movwne	r0, #12288	; 0x3000
  7c:	3a0b0b01 	bcc	2c2c88 <_start-0x3fd45378>
  80:	01053b0b 	tsteq	r5, fp, lsl #22
  84:	04000013 	streq	r0, [r0], #-19
  88:	0803000d 	stmdaeq	r3, {r0, r2, r3}
  8c:	053b0b3a 	ldreq	r0, [fp, #-2874]!	; 0xb3a
  90:	0a381349 	beq	e04dbc <_start-0x3f203244>
  94:	0d050000 	stceq	0, cr0, [r5, #-0]
  98:	3a0e0300 	bcc	380ca0 <_start-0x3fc87360>
  9c:	49053b0b 	stmdbmi	r5, {r0, r1, r3, r8, r9, fp, ip, sp}
  a0:	000a3813 	andeq	r3, sl, r3, lsl r8
  a4:	00160600 	andseq	r0, r6, r0, lsl #12
  a8:	0b3a0e03 	bleq	e838bc <_start-0x3f184744>
  ac:	1349053b 	movtne	r0, #38203	; 0x953b
  b0:	2e070000 	cdpcs	0, 0, cr0, cr7, cr0, {0}
  b4:	030c3f00 	movweq	r3, #52992	; 0xcf00
  b8:	3b0b3a0e 	blcc	2ce8f8 <_start-0x3fd39708>
  bc:	110c270b 	tstne	ip, fp, lsl #14
  c0:	40011201 	andmi	r1, r1, r1, lsl #4
  c4:	08000006 	stmdaeq	r0, {r1, r2}
  c8:	0c3f012e 	ldfeqs	f0, [pc], #-184	; 18 <_start-0x40007fe8>
  cc:	0b3a0803 	bleq	e820e0 <_start-0x3f185f20>
  d0:	0c270b3b 	stceq	11, cr0, [r7], #-236	; 0xffffff14
  d4:	01120111 	tsteq	r2, r1, lsl r1
  d8:	13010640 	movwne	r0, #5696	; 0x1640
  dc:	05090000 	streq	r0, [r9, #-0]
  e0:	3a080300 	bcc	200ce8 <_start-0x3fe07318>
  e4:	490b3b0b 	stmdbmi	fp, {r0, r1, r3, r8, r9, fp, ip, sp}
  e8:	000a0213 	andeq	r0, sl, r3, lsl r2
  ec:	00340a00 	eorseq	r0, r4, r0, lsl #20
  f0:	0b3a0803 	bleq	e82104 <_start-0x3f185efc>
  f4:	13490b3b 	movtne	r0, #39739	; 0x9b3b
  f8:	2e0b0000 	cdpcs	0, 0, cr0, cr11, cr0, {0}
  fc:	030c3f01 	movweq	r3, #52993	; 0xcf01
 100:	3b0b3a0e 	blcc	2ce940 <_start-0x3fd396c0>
 104:	490c270b 	stmdbmi	ip, {r0, r1, r3, r8, r9, sl, sp}
 108:	12011113 	andne	r1, r1, #-1073741820	; 0xc0000004
 10c:	00064001 	andeq	r4, r6, r1
 110:	00340c00 	eorseq	r0, r4, r0, lsl #24
 114:	0b3a0803 	bleq	e82128 <_start-0x3f185ed8>
 118:	13490b3b 	movtne	r0, #39739	; 0x9b3b
 11c:	00000a02 	andeq	r0, r0, r2, lsl #20
 120:	01110100 	tsteq	r1, r0, lsl #2
 124:	0b130e25 	bleq	4c39c0 <_start-0x3fb44640>
 128:	0e1b0e03 	cdpeq	14, 1, cr0, cr11, cr3, {0}
 12c:	01120111 	tsteq	r2, r1, lsl r1
 130:	00000610 	andeq	r0, r0, r0, lsl r6
 134:	0b002402 	bleq	9144 <_start-0x3fffeebc>
 138:	030b3e0b 	movweq	r3, #48651	; 0xbe0b
 13c:	0300000e 	movweq	r0, #14
 140:	0b0b0113 	bleq	2c0594 <_start-0x3fd47a6c>
 144:	053b0b3a 	ldreq	r0, [fp, #-2874]!	; 0xb3a
 148:	00001301 	andeq	r1, r0, r1, lsl #6
 14c:	03000d04 	movweq	r0, #3332	; 0xd04
 150:	3b0b3a08 	blcc	2ce978 <_start-0x3fd39688>
 154:	38134905 	ldmdacc	r3, {r0, r2, r8, fp, lr}
 158:	0500000a 	streq	r0, [r0, #-10]
 15c:	0e030016 	mcreq	0, 0, r0, cr3, cr6, {0}
 160:	053b0b3a 	ldreq	r0, [fp, #-2874]!	; 0xb3a
 164:	00001349 	andeq	r1, r0, r9, asr #6
 168:	0b011306 	bleq	44d88 <_start-0x3ffc3278>
 16c:	3b0b3a0b 	blcc	2ce9a0 <_start-0x3fd39660>
 170:	0013010b 	andseq	r0, r3, fp, lsl #2
 174:	000d0700 	andeq	r0, sp, r0, lsl #14
 178:	0b3a0e03 	bleq	e8398c <_start-0x3f184674>
 17c:	13490b3b 	movtne	r0, #39739	; 0x9b3b
 180:	00000a38 	andeq	r0, r0, r8, lsr sl
 184:	03001608 	movweq	r1, #1544	; 0x608
 188:	3b0b3a0e 	blcc	2ce9c8 <_start-0x3fd39638>
 18c:	0013490b 	andseq	r4, r3, fp, lsl #18
 190:	012e0900 	teqeq	lr, r0, lsl #18
 194:	0e030c3f 	mcreq	12, 0, r0, cr3, cr15, {1}
 198:	0b3b0b3a 	bleq	ec2e88 <_start-0x3f145178>
 19c:	01110c27 	tsteq	r1, r7, lsr #24
 1a0:	06400112 			; <UNDEFINED> instruction: 0x06400112
 1a4:	00001301 	andeq	r1, r0, r1, lsl #6
 1a8:	0300050a 	movweq	r0, #1290	; 0x50a
 1ac:	3b0b3a0e 	blcc	2ce9ec <_start-0x3fd39614>
 1b0:	0213490b 	andseq	r4, r3, #180224	; 0x2c000
 1b4:	0b00000a 	bleq	1e4 <_start-0x40007e1c>
 1b8:	0b0b0024 	bleq	2c0250 <_start-0x3fd47db0>
 1bc:	08030b3e 	stmdaeq	r3, {r1, r2, r3, r4, r5, r8, r9, fp}
 1c0:	2e0c0000 	cdpcs	0, 0, cr0, cr12, cr0, {0}
 1c4:	030c3f01 	movweq	r3, #52993	; 0xcf01
 1c8:	3b0b3a0e 	blcc	2cea08 <_start-0x3fd395f8>
 1cc:	1113490b 	tstne	r3, fp, lsl #18
 1d0:	40011201 	andmi	r1, r1, r1, lsl #4
 1d4:	00130106 	andseq	r0, r3, r6, lsl #2
 1d8:	00340d00 	eorseq	r0, r4, r0, lsl #26
 1dc:	0b3a0803 	bleq	e821f0 <_start-0x3f185e10>
 1e0:	13490b3b 	movtne	r0, #39739	; 0x9b3b
 1e4:	00000a02 	andeq	r0, r0, r2, lsl #20
 1e8:	0300340e 	movweq	r3, #1038	; 0x40e
 1ec:	3b0b3a0e 	blcc	2cea2c <_start-0x3fd395d4>
 1f0:	0213490b 	andseq	r4, r3, #180224	; 0x2c000
 1f4:	0f00000a 	svceq	0x0000000a
 1f8:	0111010b 	tsteq	r1, fp, lsl #2
 1fc:	00000112 	andeq	r0, r0, r2, lsl r1
 200:	3f012e10 	svccc	0x00012e10
 204:	3a0e030c 	bcc	380e3c <_start-0x3fc871c4>
 208:	490b3b0b 	stmdbmi	fp, {r0, r1, r3, r8, r9, fp, ip, sp}
 20c:	010c3c13 	tsteq	ip, r3, lsl ip
 210:	11000013 	tstne	r0, r3, lsl r0
 214:	00000018 	andeq	r0, r0, r8, lsl r0
 218:	3f012e12 	svccc	0x00012e12
 21c:	3a0e030c 	bcc	380e54 <_start-0x3fc871ac>
 220:	490b3b0b 	stmdbmi	fp, {r0, r1, r3, r8, r9, fp, ip, sp}
 224:	000c3c13 	andeq	r3, ip, r3, lsl ip
 228:	01011300 	mrseq	r1, SP_irq
 22c:	13011349 	movwne	r1, #4937	; 0x1349
 230:	21140000 	tstcs	r4, r0
 234:	2f134900 	svccs	0x00134900
 238:	15000005 	strne	r0, [r0, #-5]
 23c:	0e030034 	mcreq	0, 0, r0, cr3, cr4, {1}
 240:	0b3b0b3a 	bleq	ec2f30 <_start-0x3f1450d0>
 244:	0c3f1349 	ldceq	3, cr1, [pc], #-292	; 128 <_start-0x40007ed8>
 248:	00000a02 	andeq	r0, r0, r2, lsl #20
 24c:	49002616 	stmdbmi	r0, {r1, r2, r4, r9, sl, sp}
 250:	00000013 	andeq	r0, r0, r3, lsl r0
 254:	25011101 	strcs	r1, [r1, #-257]	; 0x101
 258:	030b130e 	movweq	r1, #45838	; 0xb30e
 25c:	110e1b0e 	tstne	lr, lr, lsl #22
 260:	10011201 	andne	r1, r1, r1, lsl #4
 264:	02000006 	andeq	r0, r0, #6
 268:	0e030016 	mcreq	0, 0, r0, cr3, cr6, {0}
 26c:	0b3b0b3a 	bleq	ec2f5c <_start-0x3f1450a4>
 270:	00001349 	andeq	r1, r0, r9, asr #6
 274:	0b000f03 	bleq	3e88 <_start-0x40004178>
 278:	000e030b 	andeq	r0, lr, fp, lsl #6
 27c:	012e0400 	teqeq	lr, r0, lsl #8
 280:	0b3a0e03 	bleq	e83a94 <_start-0x3f18456c>
 284:	0c270b3b 	stceq	11, cr0, [r7], #-236	; 0xffffff14
 288:	01111349 	tsteq	r1, r9, asr #6
 28c:	06400112 			; <UNDEFINED> instruction: 0x06400112
 290:	00001301 	andeq	r1, r0, r1, lsl #6
 294:	03000505 	movweq	r0, #1285	; 0x505
 298:	3b0b3a08 	blcc	2ceac0 <_start-0x3fd39540>
 29c:	0213490b 	andseq	r4, r3, #180224	; 0x2c000
 2a0:	0600000a 	streq	r0, [r0], -sl
 2a4:	0b0b0024 	bleq	2c033c <_start-0x3fd47cc4>
 2a8:	0e030b3e 	vmoveq.16	d3[0], r0
 2ac:	2e070000 	cdpcs	0, 0, cr0, cr7, cr0, {0}
 2b0:	030c3f01 	movweq	r3, #52993	; 0xcf01
 2b4:	3b0b3a0e 	blcc	2ceaf4 <_start-0x3fd3950c>
 2b8:	490c270b 	stmdbmi	ip, {r0, r1, r3, r8, r9, sl, sp}
 2bc:	12011113 	andne	r1, r1, #-1073741820	; 0xc0000004
 2c0:	01064001 	tsteq	r6, r1
 2c4:	08000013 	stmdaeq	r0, {r0, r1, r4}
 2c8:	0e030005 	cdpeq	0, 0, cr0, cr3, cr5, {0}
 2cc:	0b3b0b3a 	bleq	ec2fbc <_start-0x3f145044>
 2d0:	0a021349 	beq	84ffc <_start-0x3ff83004>
 2d4:	34090000 	strcc	r0, [r9], #-0
 2d8:	3a0e0300 	bcc	380ee0 <_start-0x3fc87120>
 2dc:	490b3b0b 	stmdbmi	fp, {r0, r1, r3, r8, r9, fp, ip, sp}
 2e0:	000a0213 	andeq	r0, sl, r3, lsl r2
 2e4:	000f0a00 	andeq	r0, pc, r0, lsl #20
 2e8:	13490b0b 	movtne	r0, #39691	; 0x9b0b
 2ec:	260b0000 	strcs	r0, [fp], -r0
 2f0:	00134900 	andseq	r4, r3, r0, lsl #18
 2f4:	00340c00 	eorseq	r0, r4, r0, lsl #24
 2f8:	0b3a0803 	bleq	e8230c <_start-0x3f185cf4>
 2fc:	13490b3b 	movtne	r0, #39739	; 0x9b3b
 300:	00000a02 	andeq	r0, r0, r2, lsl #20
 304:	0b00240d 	bleq	9340 <_start-0x3fffecc0>
 308:	030b3e0b 	movweq	r3, #48651	; 0xbe0b
 30c:	0e000008 	cdpeq	0, 0, cr0, cr0, cr8, {0}
 310:	0111010b 	tsteq	r1, fp, lsl #2
 314:	00000112 	andeq	r0, r0, r2, lsl r1
 318:	4901010f 	stmdbmi	r1, {r0, r1, r2, r3, r8}
 31c:	00130113 	andseq	r0, r3, r3, lsl r1
 320:	00211000 	eoreq	r1, r1, r0
 324:	0b2f1349 	bleq	bc5050 <_start-0x3f442fb0>
 328:	0a110000 	beq	440330 <_start-0x3fbc7cd0>
 32c:	3a0e0300 	bcc	380f34 <_start-0x3fc870cc>
 330:	110b3b0b 	tstne	fp, fp, lsl #22
 334:	12000001 	andne	r0, r0, #1
 338:	0111010b 	tsteq	r1, fp, lsl #2
 33c:	13010112 	movwne	r0, #4370	; 0x1112
 340:	34130000 	ldrcc	r0, [r3], #-0
 344:	3a080300 	bcc	200f4c <_start-0x3fe070b4>
 348:	49053b0b 	stmdbmi	r5, {r0, r1, r3, r8, r9, fp, ip, sp}
 34c:	000a0213 	andeq	r0, sl, r3, lsl r2
 350:	012e1400 	teqeq	lr, r0, lsl #8
 354:	0e030c3f 	mcreq	12, 0, r0, cr3, cr15, {1}
 358:	053b0b3a 	ldreq	r0, [fp, #-2874]!	; 0xb3a
 35c:	13490c27 	movtne	r0, #39975	; 0x9c27
 360:	01120111 	tsteq	r2, r1, lsl r1
 364:	13010640 	movwne	r0, #5696	; 0x1640
 368:	05150000 	ldreq	r0, [r5, #-0]
 36c:	3a080300 	bcc	200f74 <_start-0x3fe0708c>
 370:	49053b0b 	stmdbmi	r5, {r0, r1, r3, r8, r9, fp, ip, sp}
 374:	000a0213 	andeq	r0, sl, r3, lsl r2
 378:	00181600 	andseq	r1, r8, r0, lsl #12
 37c:	34170000 	ldrcc	r0, [r7], #-0
 380:	3a0e0300 	bcc	380f88 <_start-0x3fc87078>
 384:	49053b0b 	stmdbmi	r5, {r0, r1, r3, r8, r9, fp, ip, sp}
 388:	000a0213 	andeq	r0, sl, r3, lsl r2
 38c:	012e1800 	teqeq	lr, r0, lsl #16
 390:	0e030c3f 	mcreq	12, 0, r0, cr3, cr15, {1}
 394:	053b0b3a 	ldreq	r0, [fp, #-2874]!	; 0xb3a
 398:	01110c27 	tsteq	r1, r7, lsr #24
 39c:	06400112 			; <UNDEFINED> instruction: 0x06400112
 3a0:	00001301 	andeq	r1, r0, r1, lsl #6
 3a4:	03003419 	movweq	r3, #1049	; 0x419
 3a8:	3b0b3a0e 	blcc	2cebe8 <_start-0x3fd39418>
 3ac:	3f13490b 	svccc	0x0013490b
 3b0:	000a020c 	andeq	r0, sl, ip, lsl #4
 3b4:	11010000 	mrsne	r0, (UNDEF: 1)
 3b8:	130e2501 	movwne	r2, #58625	; 0xe501
 3bc:	1b0e030b 	blne	380ff0 <_start-0x3fc87010>
 3c0:	1201110e 	andne	r1, r1, #-2147483645	; 0x80000003
 3c4:	00061001 	andeq	r1, r6, r1
 3c8:	01130200 	tsteq	r3, r0, lsl #4
 3cc:	0b3a0b0b 	bleq	e83000 <_start-0x3f185000>
 3d0:	1301053b 	movwne	r0, #5435	; 0x153b
 3d4:	0d030000 	stceq	0, cr0, [r3, #-0]
 3d8:	3a0e0300 	bcc	380fe0 <_start-0x3fc87020>
 3dc:	49053b0b 	stmdbmi	r5, {r0, r1, r3, r8, r9, fp, ip, sp}
 3e0:	000a3813 	andeq	r3, sl, r3, lsl r8
 3e4:	00240400 	eoreq	r0, r4, r0, lsl #8
 3e8:	0b3e0b0b 	bleq	f8301c <_start-0x3f084fe4>
 3ec:	00000e03 	andeq	r0, r0, r3, lsl #28
 3f0:	03001605 	movweq	r1, #1541	; 0x605
 3f4:	3b0b3a08 	blcc	2cec1c <_start-0x3fd393e4>
 3f8:	00134905 	andseq	r4, r3, r5, lsl #18
 3fc:	000d0600 	andeq	r0, sp, r0, lsl #12
 400:	0b3a0803 	bleq	e82414 <_start-0x3f185bec>
 404:	1349053b 	movtne	r0, #38203	; 0x953b
 408:	00000a38 	andeq	r0, r0, r8, lsr sl
 40c:	03001607 	movweq	r1, #1543	; 0x607
 410:	3b0b3a0e 	blcc	2cec50 <_start-0x3fd393b0>
 414:	00134905 	andseq	r4, r3, r5, lsl #18
 418:	002e0800 	eoreq	r0, lr, r0, lsl #16
 41c:	0e030c3f 	mcreq	12, 0, r0, cr3, cr15, {1}
 420:	0b3b0b3a 	bleq	ec3110 <_start-0x3f144ef0>
 424:	01110c27 	tsteq	r1, r7, lsr #24
 428:	06400112 			; <UNDEFINED> instruction: 0x06400112
 42c:	2e090000 	cdpcs	0, 0, cr0, cr9, cr0, {0}
 430:	030c3f01 	movweq	r3, #52993	; 0xcf01
 434:	3b0b3a0e 	blcc	2cec74 <_start-0x3fd3938c>
 438:	110c270b 	tstne	ip, fp, lsl #14
 43c:	40011201 	andmi	r1, r1, r1, lsl #4
 440:	00130106 	andseq	r0, r3, r6, lsl #2
 444:	00050a00 	andeq	r0, r5, r0, lsl #20
 448:	0b3a0803 	bleq	e8245c <_start-0x3f185ba4>
 44c:	13490b3b 	movtne	r0, #39739	; 0x9b3b
 450:	00000a02 	andeq	r0, r0, r2, lsl #20
 454:	3f012e0b 	svccc	0x00012e0b
 458:	3a0e030c 	bcc	381090 <_start-0x3fc86f70>
 45c:	270b3b0b 	strcs	r3, [fp, -fp, lsl #22]
 460:	1201110c 	andne	r1, r1, #12, 2
 464:	00064001 	andeq	r4, r6, r1
 468:	00340c00 	eorseq	r0, r4, r0, lsl #24
 46c:	0b3a0803 	bleq	e82480 <_start-0x3f185b80>
 470:	13490b3b 	movtne	r0, #39739	; 0x9b3b
 474:	00000a02 	andeq	r0, r0, r2, lsl #20
 478:	01110100 	tsteq	r1, r0, lsl #2
 47c:	0b130e25 	bleq	4c3d18 <_start-0x3fb442e8>
 480:	0e1b0e03 	cdpeq	14, 1, cr0, cr11, cr3, {0}
 484:	01120111 	tsteq	r2, r1, lsl r1
 488:	00000610 	andeq	r0, r0, r0, lsl r6
 48c:	0b002402 	bleq	949c <_start-0x3fffeb64>
 490:	030b3e0b 	movweq	r3, #48651	; 0xbe0b
 494:	0300000e 	movweq	r0, #14
 498:	0b0b0113 	bleq	2c08ec <_start-0x3fd47714>
 49c:	053b0b3a 	ldreq	r0, [fp, #-2874]!	; 0xb3a
 4a0:	00001301 	andeq	r1, r0, r1, lsl #6
 4a4:	03000d04 	movweq	r0, #3332	; 0xd04
 4a8:	3b0b3a08 	blcc	2cecd0 <_start-0x3fd39330>
 4ac:	38134905 	ldmdacc	r3, {r0, r2, r8, fp, lr}
 4b0:	0500000a 	streq	r0, [r0, #-10]
 4b4:	0e03000d 	cdpeq	0, 0, cr0, cr3, cr13, {0}
 4b8:	053b0b3a 	ldreq	r0, [fp, #-2874]!	; 0xb3a
 4bc:	0a381349 	beq	e051e8 <_start-0x3f202e18>
 4c0:	16060000 	strne	r0, [r6], -r0
 4c4:	3a0e0300 	bcc	3810cc <_start-0x3fc86f34>
 4c8:	49053b0b 	stmdbmi	r5, {r0, r1, r3, r8, r9, fp, ip, sp}
 4cc:	07000013 	smladeq	r0, r3, r0, r0
 4d0:	0c3f002e 	ldceq	0, cr0, [pc], #-184	; 420 <_start-0x40007be0>
 4d4:	0b3a0e03 	bleq	e83ce8 <_start-0x3f184318>
 4d8:	0c270b3b 	stceq	11, cr0, [r7], #-236	; 0xffffff14
 4dc:	01120111 	tsteq	r2, r1, lsl r1
 4e0:	00000640 	andeq	r0, r0, r0, asr #12
 4e4:	3f012e08 	svccc	0x00012e08
 4e8:	3a0e030c 	bcc	381120 <_start-0x3fc86ee0>
 4ec:	270b3b0b 	strcs	r3, [fp, -fp, lsl #22]
 4f0:	1201110c 	andne	r1, r1, #12, 2
 4f4:	01064001 	tsteq	r6, r1
 4f8:	09000013 	stmdbeq	r0, {r0, r1, r4}
 4fc:	08030005 	stmdaeq	r3, {r0, r2}
 500:	0b3b0b3a 	bleq	ec31f0 <_start-0x3f144e10>
 504:	0a021349 	beq	85230 <_start-0x3ff82dd0>
 508:	0f0a0000 	svceq	0x000a0000
 50c:	490b0b00 	stmdbmi	fp, {r8, r9, fp}
 510:	0b000013 	bleq	564 <_start-0x40007a9c>
 514:	13490026 	movtne	r0, #36902	; 0x9026
 518:	01000000 	mrseq	r0, (UNDEF: 0)
 51c:	06100011 			; <UNDEFINED> instruction: 0x06100011
 520:	01120111 	tsteq	r2, r1, lsl r1
 524:	081b0803 	ldmdaeq	fp, {r0, r1, fp}
 528:	05130825 	ldreq	r0, [r3, #-2085]	; 0x825
 52c:	01000000 	mrseq	r0, (UNDEF: 0)
 530:	06100011 			; <UNDEFINED> instruction: 0x06100011
 534:	01120111 	tsteq	r2, r1, lsl r1
 538:	081b0803 	ldmdaeq	fp, {r0, r1, fp}
 53c:	05130825 	ldreq	r0, [r3, #-2085]	; 0x825
 540:	01000000 	mrseq	r0, (UNDEF: 0)
 544:	06100011 			; <UNDEFINED> instruction: 0x06100011
 548:	01120111 	tsteq	r2, r1, lsl r1
 54c:	081b0803 	ldmdaeq	fp, {r0, r1, fp}
 550:	05130825 	ldreq	r0, [r3, #-2085]	; 0x825
 554:	Address 0x00000554 is out of bounds.


Disassembly of section .debug_loc:

00000000 <.debug_loc>:
   0:	00000000 	andeq	r0, r0, r0
   4:	00000004 	andeq	r0, r0, r4
   8:	007d0002 	rsbseq	r0, sp, r2
   c:	00000004 	andeq	r0, r0, r4
  10:	00000008 	andeq	r0, r0, r8
  14:	047d0002 	ldrbteq	r0, [sp], #-2
  18:	00000008 	andeq	r0, r0, r8
  1c:	0000007c 	andeq	r0, r0, ip, ror r0
  20:	047b0002 	ldrbteq	r0, [fp], #-2
	...
  2c:	0000007c 	andeq	r0, r0, ip, ror r0
  30:	00000080 	andeq	r0, r0, r0, lsl #1
  34:	007d0002 	rsbseq	r0, sp, r2
  38:	00000080 	andeq	r0, r0, r0, lsl #1
  3c:	00000084 	andeq	r0, r0, r4, lsl #1
  40:	047d0002 	ldrbteq	r0, [sp], #-2
  44:	00000084 	andeq	r0, r0, r4, lsl #1
  48:	000000e8 	andeq	r0, r0, r8, ror #1
  4c:	047b0002 	ldrbteq	r0, [fp], #-2
	...
  5c:	00000004 	andeq	r0, r0, r4
  60:	007d0002 	rsbseq	r0, sp, r2
  64:	00000004 	andeq	r0, r0, r4
  68:	00000008 	andeq	r0, r0, r8
  6c:	047d0002 	ldrbteq	r0, [sp], #-2
  70:	00000008 	andeq	r0, r0, r8
  74:	00000068 	andeq	r0, r0, r8, rrx
  78:	047b0002 	ldrbteq	r0, [fp], #-2
	...
  84:	00000068 	andeq	r0, r0, r8, rrx
  88:	0000006c 	andeq	r0, r0, ip, rrx
  8c:	007d0002 	rsbseq	r0, sp, r2
  90:	0000006c 	andeq	r0, r0, ip, rrx
  94:	00000070 	andeq	r0, r0, r0, ror r0
  98:	047d0002 	ldrbteq	r0, [sp], #-2
  9c:	00000070 	andeq	r0, r0, r0, ror r0
  a0:	000001d0 	ldrdeq	r0, [r0], -r0	; <UNPREDICTABLE>
  a4:	047b0002 	ldrbteq	r0, [fp], #-2
	...
  b0:	000001d0 	ldrdeq	r0, [r0], -r0	; <UNPREDICTABLE>
  b4:	000001d4 	ldrdeq	r0, [r0], -r4
  b8:	007d0002 	rsbseq	r0, sp, r2
  bc:	000001d4 	ldrdeq	r0, [r0], -r4
  c0:	000001d8 	ldrdeq	r0, [r0], -r8
  c4:	047d0002 	ldrbteq	r0, [sp], #-2
  c8:	000001d8 	ldrdeq	r0, [r0], -r8
  cc:	00000288 	andeq	r0, r0, r8, lsl #5
  d0:	047b0002 	ldrbteq	r0, [fp], #-2
	...
  e0:	00000004 	andeq	r0, r0, r4
  e4:	007d0002 	rsbseq	r0, sp, r2
  e8:	00000004 	andeq	r0, r0, r4
  ec:	00000008 	andeq	r0, r0, r8
  f0:	087d0002 	ldmdaeq	sp!, {r1}^
  f4:	00000008 	andeq	r0, r0, r8
  f8:	000000c0 	andeq	r0, r0, r0, asr #1
  fc:	047b0002 	ldrbteq	r0, [fp], #-2
	...
 108:	000000c0 	andeq	r0, r0, r0, asr #1
 10c:	000000c4 	andeq	r0, r0, r4, asr #1
 110:	007d0002 	rsbseq	r0, sp, r2
 114:	000000c4 	andeq	r0, r0, r4, asr #1
 118:	000000c8 	andeq	r0, r0, r8, asr #1
 11c:	087d0002 	ldmdaeq	sp!, {r1}^
 120:	000000c8 	andeq	r0, r0, r8, asr #1
 124:	00000374 	andeq	r0, r0, r4, ror r3
 128:	047b0002 	ldrbteq	r0, [fp], #-2
	...
 138:	00000004 	andeq	r0, r0, r4
 13c:	007d0002 	rsbseq	r0, sp, r2
 140:	00000004 	andeq	r0, r0, r4
 144:	00000008 	andeq	r0, r0, r8
 148:	047d0002 	ldrbteq	r0, [sp], #-2
 14c:	00000008 	andeq	r0, r0, r8
 150:	00000050 	andeq	r0, r0, r0, asr r0
 154:	047b0002 	ldrbteq	r0, [fp], #-2
	...
 160:	00000050 	andeq	r0, r0, r0, asr r0
 164:	00000054 	andeq	r0, r0, r4, asr r0
 168:	007d0002 	rsbseq	r0, sp, r2
 16c:	00000054 	andeq	r0, r0, r4, asr r0
 170:	00000058 	andeq	r0, r0, r8, asr r0
 174:	087d0002 	ldmdaeq	sp!, {r1}^
 178:	00000058 	andeq	r0, r0, r8, asr r0
 17c:	000001f4 	strdeq	r0, [r0], -r4
 180:	047b0002 	ldrbteq	r0, [fp], #-2
	...
 18c:	000001f4 	strdeq	r0, [r0], -r4
 190:	000001f8 	strdeq	r0, [r0], -r8
 194:	007d0002 	rsbseq	r0, sp, r2
 198:	000001f8 	strdeq	r0, [r0], -r8
 19c:	000001fc 	strdeq	r0, [r0], -ip
 1a0:	087d0002 	ldmdaeq	sp!, {r1}^
 1a4:	000001fc 	strdeq	r0, [r0], -ip
 1a8:	00000260 	andeq	r0, r0, r0, ror #4
 1ac:	047b0002 	ldrbteq	r0, [fp], #-2
	...
 1b8:	00000260 	andeq	r0, r0, r0, ror #4
 1bc:	00000264 	andeq	r0, r0, r4, ror #4
 1c0:	007d0002 	rsbseq	r0, sp, r2
 1c4:	00000264 	andeq	r0, r0, r4, ror #4
 1c8:	00000268 	andeq	r0, r0, r8, ror #4
 1cc:	047d0002 	ldrbteq	r0, [sp], #-2
 1d0:	00000268 	andeq	r0, r0, r8, ror #4
 1d4:	000002f4 	strdeq	r0, [r0], -r4
 1d8:	047b0002 	ldrbteq	r0, [fp], #-2
	...
 1e4:	000002f4 	strdeq	r0, [r0], -r4
 1e8:	000002f8 	strdeq	r0, [r0], -r8
 1ec:	007d0002 	rsbseq	r0, sp, r2
 1f0:	000002f8 	strdeq	r0, [r0], -r8
 1f4:	000002fc 	strdeq	r0, [r0], -ip
 1f8:	087d0002 	ldmdaeq	sp!, {r1}^
 1fc:	000002fc 	strdeq	r0, [r0], -ip
 200:	00000788 	andeq	r0, r0, r8, lsl #15
 204:	047b0002 	ldrbteq	r0, [fp], #-2
	...
 210:	00000788 	andeq	r0, r0, r8, lsl #15
 214:	0000078c 	andeq	r0, r0, ip, lsl #15
 218:	007d0002 	rsbseq	r0, sp, r2
 21c:	0000078c 	andeq	r0, r0, ip, lsl #15
 220:	00000790 	muleq	r0, r0, r7
 224:	047d0002 	ldrbteq	r0, [sp], #-2
 228:	00000790 	muleq	r0, r0, r7
 22c:	00000808 	andeq	r0, r0, r8, lsl #16
 230:	047b0002 	ldrbteq	r0, [fp], #-2
	...
 23c:	00000808 	andeq	r0, r0, r8, lsl #16
 240:	0000080c 	andeq	r0, r0, ip, lsl #16
 244:	007d0002 	rsbseq	r0, sp, r2
 248:	0000080c 	andeq	r0, r0, ip, lsl #16
 24c:	00000810 	andeq	r0, r0, r0, lsl r8
 250:	087d0002 	ldmdaeq	sp!, {r1}^
 254:	00000810 	andeq	r0, r0, r0, lsl r8
 258:	00001130 	andeq	r1, r0, r0, lsr r1
 25c:	047b0002 	ldrbteq	r0, [fp], #-2
	...
 268:	00001130 	andeq	r1, r0, r0, lsr r1
 26c:	00001134 	andeq	r1, r0, r4, lsr r1
 270:	007d0002 	rsbseq	r0, sp, r2
 274:	00001134 	andeq	r1, r0, r4, lsr r1
 278:	00001138 	andeq	r1, r0, r8, lsr r1
 27c:	0c7d0002 	ldcleq	0, cr0, [sp], #-8
 280:	00001138 	andeq	r1, r0, r8, lsr r1
 284:	0000113c 	andeq	r1, r0, ip, lsr r1
 288:	147d0002 	ldrbtne	r0, [sp], #-2
 28c:	0000113c 	andeq	r1, r0, ip, lsr r1
 290:	00001180 	andeq	r1, r0, r0, lsl #3
 294:	107b0002 	rsbsne	r0, fp, r2
	...
 2a0:	00001180 	andeq	r1, r0, r0, lsl #3
 2a4:	00001184 	andeq	r1, r0, r4, lsl #3
 2a8:	007d0002 	rsbseq	r0, sp, r2
 2ac:	00001184 	andeq	r1, r0, r4, lsl #3
 2b0:	00001188 	andeq	r1, r0, r8, lsl #3
 2b4:	107d0002 	rsbsne	r0, sp, r2
 2b8:	00001188 	andeq	r1, r0, r8, lsl #3
 2bc:	0000118c 	andeq	r1, r0, ip, lsl #3
 2c0:	187d0002 	ldmdane	sp!, {r1}^
 2c4:	0000118c 	andeq	r1, r0, ip, lsl #3
 2c8:	000011d8 	ldrdeq	r1, [r0], -r8
 2cc:	147b0002 	ldrbtne	r0, [fp], #-2
	...
 2dc:	00000004 	andeq	r0, r0, r4
 2e0:	007d0002 	rsbseq	r0, sp, r2
 2e4:	00000004 	andeq	r0, r0, r4
 2e8:	00000008 	andeq	r0, r0, r8
 2ec:	047d0002 	ldrbteq	r0, [sp], #-2
 2f0:	00000008 	andeq	r0, r0, r8
 2f4:	000000a0 	andeq	r0, r0, r0, lsr #1
 2f8:	047b0002 	ldrbteq	r0, [fp], #-2
	...
 304:	000000a0 	andeq	r0, r0, r0, lsr #1
 308:	000000a4 	andeq	r0, r0, r4, lsr #1
 30c:	007d0002 	rsbseq	r0, sp, r2
 310:	000000a4 	andeq	r0, r0, r4, lsr #1
 314:	000000a8 	andeq	r0, r0, r8, lsr #1
 318:	047d0002 	ldrbteq	r0, [sp], #-2
 31c:	000000a8 	andeq	r0, r0, r8, lsr #1
 320:	00000164 	andeq	r0, r0, r4, ror #2
 324:	047b0002 	ldrbteq	r0, [fp], #-2
	...
 330:	00000164 	andeq	r0, r0, r4, ror #2
 334:	00000168 	andeq	r0, r0, r8, ror #2
 338:	007d0002 	rsbseq	r0, sp, r2
 33c:	00000168 	andeq	r0, r0, r8, ror #2
 340:	0000016c 	andeq	r0, r0, ip, ror #2
 344:	047d0002 	ldrbteq	r0, [sp], #-2
 348:	0000016c 	andeq	r0, r0, ip, ror #2
 34c:	00000190 	muleq	r0, r0, r1
 350:	047b0002 	ldrbteq	r0, [fp], #-2
	...
 35c:	00000190 	muleq	r0, r0, r1
 360:	00000194 	muleq	r0, r4, r1
 364:	007d0002 	rsbseq	r0, sp, r2
 368:	00000194 	muleq	r0, r4, r1
 36c:	00000198 	muleq	r0, r8, r1
 370:	047d0002 	ldrbteq	r0, [sp], #-2
 374:	00000198 	muleq	r0, r8, r1
 378:	000001bc 			; <UNDEFINED> instruction: 0x000001bc
 37c:	047b0002 	ldrbteq	r0, [fp], #-2
	...
 388:	000001bc 			; <UNDEFINED> instruction: 0x000001bc
 38c:	000001c0 	andeq	r0, r0, r0, asr #3
 390:	007d0002 	rsbseq	r0, sp, r2
 394:	000001c0 	andeq	r0, r0, r0, asr #3
 398:	000001c4 	andeq	r0, r0, r4, asr #3
 39c:	047d0002 	ldrbteq	r0, [sp], #-2
 3a0:	000001c4 	andeq	r0, r0, r4, asr #3
 3a4:	00000210 	andeq	r0, r0, r0, lsl r2
 3a8:	047b0002 	ldrbteq	r0, [fp], #-2
	...
 3b8:	00000004 	andeq	r0, r0, r4
 3bc:	007d0002 	rsbseq	r0, sp, r2
 3c0:	00000004 	andeq	r0, r0, r4
 3c4:	00000008 	andeq	r0, r0, r8
 3c8:	047d0002 	ldrbteq	r0, [sp], #-2
 3cc:	00000008 	andeq	r0, r0, r8
 3d0:	00000064 	andeq	r0, r0, r4, rrx
 3d4:	047b0002 	ldrbteq	r0, [fp], #-2
	...
 3e0:	00000064 	andeq	r0, r0, r4, rrx
 3e4:	00000068 	andeq	r0, r0, r8, rrx
 3e8:	007d0002 	rsbseq	r0, sp, r2
 3ec:	00000068 	andeq	r0, r0, r8, rrx
 3f0:	0000006c 	andeq	r0, r0, ip, rrx
 3f4:	047d0002 	ldrbteq	r0, [sp], #-2
 3f8:	0000006c 	andeq	r0, r0, ip, rrx
 3fc:	000000ac 	andeq	r0, r0, ip, lsr #1
 400:	047b0002 	ldrbteq	r0, [fp], #-2
	...
 40c:	000000ac 	andeq	r0, r0, ip, lsr #1
 410:	000000b0 	strheq	r0, [r0], -r0	; <UNPREDICTABLE>
 414:	007d0002 	rsbseq	r0, sp, r2
 418:	000000b0 	strheq	r0, [r0], -r0	; <UNPREDICTABLE>
 41c:	000000b4 	strheq	r0, [r0], -r4
 420:	087d0002 	ldmdaeq	sp!, {r1}^
 424:	000000b4 	strheq	r0, [r0], -r4
 428:	000000f4 	strdeq	r0, [r0], -r4
 42c:	047b0002 	ldrbteq	r0, [fp], #-2
	...

Disassembly of section .debug_aranges:

00000000 <.debug_aranges>:
   0:	0000001c 	andeq	r0, r0, ip, lsl r0
   4:	00000002 	andeq	r0, r0, r2
   8:	00040000 	andeq	r0, r4, r0
   c:	00000000 	andeq	r0, r0, r0
  10:	40008100 	andmi	r8, r0, r0, lsl #2
  14:	000000e8 	andeq	r0, r0, r8, ror #1
	...
  20:	0000001c 	andeq	r0, r0, ip, lsl r0
  24:	00750002 	rsbseq	r0, r5, r2
  28:	00040000 	andeq	r0, r4, r0
  2c:	00000000 	andeq	r0, r0, r0
  30:	400081e8 	andmi	r8, r0, r8, ror #3
  34:	00000288 	andeq	r0, r0, r8, lsl #5
	...
  40:	0000001c 	andeq	r0, r0, ip, lsl r0
  44:	02400002 	subeq	r0, r0, #2
  48:	00040000 	andeq	r0, r4, r0
  4c:	00000000 	andeq	r0, r0, r0
  50:	40008470 	andmi	r8, r0, r0, ror r4
  54:	00000374 	andeq	r0, r0, r4, ror r3
	...
  60:	0000001c 	andeq	r0, r0, ip, lsl r0
  64:	04680002 	strbteq	r0, [r8], #-2
  68:	00040000 	andeq	r0, r4, r0
  6c:	00000000 	andeq	r0, r0, r0
  70:	400087e4 	andmi	r8, r0, r4, ror #15
  74:	000011d8 	ldrdeq	r1, [r0], -r8
	...
  80:	0000001c 	andeq	r0, r0, ip, lsl r0
  84:	091d0002 	ldmdbeq	sp, {r1}
  88:	00040000 	andeq	r0, r4, r0
  8c:	00000000 	andeq	r0, r0, r0
  90:	400099bc 			; <UNDEFINED> instruction: 0x400099bc
  94:	00000210 	andeq	r0, r0, r0, lsl r2
	...
  a0:	0000001c 	andeq	r0, r0, ip, lsl r0
  a4:	0b7f0002 	bleq	1fc00b4 <_start-0x3e047f4c>
  a8:	00040000 	andeq	r0, r4, r0
  ac:	00000000 	andeq	r0, r0, r0
  b0:	40009bcc 	andmi	r9, r0, ip, asr #23
  b4:	000000f4 	strdeq	r0, [r0], -r4
	...
  c0:	0000001c 	andeq	r0, r0, ip, lsl r0
  c4:	0d860002 	stceq	0, cr0, [r6, #8]
  c8:	00040000 	andeq	r0, r4, r0
  cc:	00000000 	andeq	r0, r0, r0
  d0:	40008000 	andmi	r8, r0, r0
  d4:	000000f4 	strdeq	r0, [r0], -r4
	...
  e0:	0000001c 	andeq	r0, r0, ip, lsl r0
  e4:	0dda0002 	ldcleq	0, cr0, [sl, #8]
  e8:	00040000 	andeq	r0, r4, r0
  ec:	00000000 	andeq	r0, r0, r0
  f0:	40009cc0 	andmi	r9, r0, r0, asr #25
  f4:	00000094 	muleq	r0, r4, r0
	...
 100:	0000001c 	andeq	r0, r0, ip, lsl r0
 104:	0e310002 	cdpeq	0, 3, cr0, cr1, cr2, {0}
 108:	00040000 	andeq	r0, r4, r0
 10c:	00000000 	andeq	r0, r0, r0
 110:	40009d54 	andmi	r9, r0, r4, asr sp
 114:	000000b0 	strheq	r0, [r0], -r0	; <UNPREDICTABLE>
	...

Disassembly of section .debug_line:

00000000 <.debug_line>:
   0:	00000042 	andeq	r0, r0, r2, asr #32
   4:	001c0002 	andseq	r0, ip, r2
   8:	01020000 	mrseq	r0, (UNDEF: 2)
   c:	000d0efb 	strdeq	r0, [sp], -fp
  10:	01010101 	tsteq	r1, r1, lsl #2
  14:	01000000 	mrseq	r0, (UNDEF: 0)
  18:	00010000 	andeq	r0, r1, r0
  1c:	2e636461 	cdpcs	4, 6, cr6, cr3, cr1, {3}
  20:	00000063 	andeq	r0, r0, r3, rrx
  24:	05000000 	streq	r0, [r0, #-0]
  28:	00810002 	addeq	r0, r1, r2
  2c:	a04c1540 	subge	r1, ip, r0, asr #10
  30:	67a0bca0 	strvs	fp, [r0, r0, lsr #25]!
  34:	00a069a1 	adceq	r6, r0, r1, lsr #19
  38:	06010402 	streq	r0, [r1], -r2, lsl #8
  3c:	bba0062e 	bllt	fe8018fc <stack+0xbe7f70bc>
  40:	000c022f 	andeq	r0, ip, pc, lsr #4
  44:	00650101 	rsbeq	r0, r5, r1, lsl #2
  48:	00020000 	andeq	r0, r2, r0
  4c:	0000002d 	andeq	r0, r0, sp, lsr #32
  50:	0efb0102 	cdpeq	1, 15, cr0, cr11, cr2, {0}
  54:	0101000d 	tsteq	r1, sp
  58:	00000101 	andeq	r0, r0, r1, lsl #2
  5c:	00000100 	andeq	r0, r0, r0, lsl #2
  60:	656c0001 	strbvs	r0, [ip, #-1]!
  64:	00632e64 	rsbeq	r2, r3, r4, ror #28
  68:	65000000 	strvs	r0, [r0, #-0]
  6c:	6f6e7978 	svcvs	0x006e7978
  70:	34345f73 	ldrtcc	r5, [r4], #-3955	; 0xf73
  74:	682e3231 	stmdavs	lr!, {r0, r4, r5, r9, ip, sp}
  78:	00000000 	andeq	r0, r0, r0
  7c:	02050000 	andeq	r0, r5, #0
  80:	400081e8 	andmi	r8, r0, r8, ror #3
  84:	bebc4c15 	mrclt	12, 5, r4, cr12, cr5, {0}
  88:	ba0a03bb 	blt	280f7c <_start-0x3fd87084>
  8c:	9f9f69d8 	svcls	0x009f69d8
  90:	9f839f83 	svcls	0x00839f83
  94:	a184bf83 	orrge	fp, r4, r3, lsl #31
  98:	a084a184 	addge	sl, r4, r4, lsl #3
  9c:	67bea284 	ldrvs	sl, [lr, r4, lsl #5]!
  a0:	bc68a04b 	stcllt	0, cr10, [r8], #-300	; 0xfffffed4
  a4:	a068a068 	rsbge	sl, r8, r8, rrx
  a8:	0e022f68 	cdpeq	15, 0, cr2, cr2, cr8, {3}
  ac:	a7010100 	strge	r0, [r1, -r0, lsl #2]
  b0:	02000000 	andeq	r0, r0, #0
  b4:	00003600 	andeq	r3, r0, r0, lsl #12
  b8:	fb010200 	blx	408c2 <_start-0x3ffc773e>
  bc:	01000d0e 	tsteq	r0, lr, lsl #26
  c0:	00010101 	andeq	r0, r1, r1, lsl #2
  c4:	00010000 	andeq	r0, r1, r0
  c8:	6d000100 	stfvss	f0, [r0, #-0]
  cc:	2e6e6961 	cdpcs	9, 6, cr6, cr14, cr1, {3}
  d0:	00000063 	andeq	r0, r0, r3, rrx
  d4:	79786500 	ldmdbvc	r8!, {r8, sl, sp, lr}^
  d8:	5f736f6e 	svcpl	0x00736f6e
  dc:	32313434 	eorscc	r3, r1, #52, 8	; 0x34000000
  e0:	0000682e 	andeq	r6, r0, lr, lsr #16
  e4:	70790000 	rsbsvc	r0, r9, r0
  e8:	0000682e 	andeq	r6, r0, lr, lsr #16
  ec:	00000000 	andeq	r0, r0, r0
  f0:	84700205 	ldrbthi	r0, [r0], #-517	; 0x205
  f4:	0a034000 	beq	d00fc <_start-0x3ff37f04>
  f8:	67688301 	strbvs	r8, [r8, -r1, lsl #6]!
  fc:	04020084 	streq	r0, [r2], #-132	; 0x84
 100:	06660601 	strbteq	r0, [r6], -r1, lsl #12
 104:	00846768 	addeq	r6, r4, r8, ror #14
 108:	06010402 	streq	r0, [r1], -r2, lsl #8
 10c:	67680666 	strbvs	r0, [r8, -r6, ror #12]!
 110:	4d686786 	stclmi	7, cr6, [r8, #-536]!	; 0xfffffde8
 114:	2f4c4b69 	svccs	0x004c4b69
 118:	352f2f2f 	strcc	r2, [pc, #-3887]!	; fffff1f1 <stack+0xbfff49b1>
 11c:	85a085a0 	strhi	r8, [r0, #1440]!	; 0x5a0
 120:	4b4b2fa0 	blmi	12cbfa8 <_start-0x3ed3c058>
 124:	039e1003 	orrseq	r1, lr, #3
 128:	83a02e73 	movhi	r2, #1840	; 0x730
 12c:	3583a031 	strcc	sl, [r3, #49]	; 0x31
 130:	0402004b 	streq	r0, [r2], #-75	; 0x4b
 134:	20080601 	andcs	r0, r8, r1, lsl #12
 138:	02004b06 	andeq	r4, r0, #6144	; 0x1800
 13c:	08060104 	stmdaeq	r6, {r2, r8}
 140:	674d0620 	strbvs	r0, [sp, -r0, lsr #12]
 144:	0868849f 	stmdaeq	r8!, {r0, r1, r2, r3, r4, r7, sl, pc}^
 148:	68220891 	stmdavs	r2!, {r0, r4, r7, fp}
 14c:	23089108 	movwcs	r9, #33032	; 0x8108
 150:	67676783 	strbvs	r6, [r7, -r3, lsl #15]!
 154:	000e0230 	andeq	r0, lr, r0, lsr r2
 158:	02370101 	eorseq	r0, r7, #1073741824	; 0x40000000
 15c:	00020000 	andeq	r0, r2, r0
 160:	00000036 	andeq	r0, r0, r6, lsr r0
 164:	0efb0102 	cdpeq	1, 15, cr0, cr11, cr2, {0}
 168:	0101000d 	tsteq	r1, sp
 16c:	00000101 	andeq	r0, r0, r1, lsl #2
 170:	00000100 	andeq	r0, r0, r0, lsl #2
 174:	74630001 	strbtvc	r0, [r3], #-1
 178:	2e657079 	mcrcs	0, 3, r7, cr5, cr9, {3}
 17c:	00000068 	andeq	r0, r0, r8, rrx
 180:	69727000 	ldmdbvs	r2!, {ip, sp, lr}^
 184:	2e66746e 	cdpcs	4, 6, cr7, cr6, cr14, {3}
 188:	00000063 	andeq	r0, r0, r3, rrx
 18c:	64747300 	ldrbtvs	r7, [r4], #-768	; 0x300
 190:	2e677261 	cdpcs	2, 6, cr7, cr7, cr1, {3}
 194:	00000068 	andeq	r0, r0, r8, rrx
 198:	05000000 	streq	r0, [r0, #-0]
 19c:	0087e402 	addeq	lr, r7, r2, lsl #8
 1a0:	00c40340 	sbceq	r0, r4, r0, asr #6
 1a4:	67bb9f01 	ldrvs	r9, [fp, r1, lsl #30]!
 1a8:	0302042f 	movweq	r0, #9263	; 0x242f
 1ac:	bb9e7fbf 	bllt	fe7a00b0 <stack+0xbe795870>
 1b0:	0067834c 	rsbeq	r8, r7, ip, asr #6
 1b4:	06010402 	streq	r0, [r1], -r2, lsl #8
 1b8:	4bf30682 	blmi	ffcc1bc8 <stack+0xbfcb7388>
 1bc:	674d6768 	strbvs	r6, [sp, -r8, ror #14]
 1c0:	7fbb304c 	svcvc	0x00bb304c
 1c4:	01040200 	mrseq	r0, R12_usr
 1c8:	02002e06 	andeq	r2, r0, #6, 28	; 0x60
 1cc:	00d60204 	sbcseq	r0, r6, r4, lsl #4
 1d0:	d6010402 	strle	r0, [r1], -r2, lsl #8
 1d4:	02040200 	andeq	r0, r4, #0, 4
 1d8:	00d70682 	sbcseq	r0, r7, r2, lsl #13
 1dc:	06030402 	streq	r0, [r3], -r2, lsl #8
 1e0:	040200d6 	streq	r0, [r2], #-214	; 0xd6
 1e4:	a3650605 	cmnge	r5, #5242880	; 0x500000
 1e8:	852f6767 	strhi	r6, [pc, #-1895]!	; fffffa89 <stack+0xbfff5249>
 1ec:	210883bb 			; <UNDEFINED> instruction: 0x210883bb
 1f0:	6624039f 			; <UNDEFINED> instruction: 0x6624039f
 1f4:	002f4c83 	eoreq	r4, pc, r3, lsl #25
 1f8:	08010402 	stmdaeq	r1, {r1, sl}
 1fc:	040200c7 	streq	r0, [r2], #-199	; 0xc7
 200:	069e0602 	ldreq	r0, [lr], r2, lsl #12
 204:	38032fa0 	stmdacc	r3, {r5, r7, r8, r9, sl, fp, sp}
 208:	834dd882 	movthi	sp, #55426	; 0xd882
 20c:	0067834b 	rsbeq	r8, r7, fp, asr #6
 210:	06010402 	streq	r0, [r1], -r2, lsl #8
 214:	4b670666 	blmi	19c1bb4 <_start-0x3e64644c>
 218:	01040200 	mrseq	r0, R12_usr
 21c:	02009e06 	andeq	r9, r0, #6, 28	; 0x60
 220:	004a0204 	subeq	r0, sl, r4, lsl #4
 224:	2e030402 	cdpcs	4, 0, cr0, cr3, cr2, {0}
 228:	03040200 	movweq	r0, #16896	; 0x4200
 22c:	02002f06 	andeq	r2, r0, #6, 30
 230:	834b0304 	movthi	r0, #45828	; 0xb304
 234:	83674b67 	cmnhi	r7, #105472	; 0x19c00
 238:	83834b83 	orrhi	r4, r3, #134144	; 0x20c00
 23c:	6783694b 	strvs	r6, [r3, fp, asr #18]
 240:	4b686783 	blmi	1a1a054 <_start-0x3e5edfac>
 244:	835a0867 	cmphi	sl, #6750208	; 0x670000
 248:	01040200 	mrseq	r0, R12_usr
 24c:	69103202 	ldmdbvs	r0, {r1, r9, ip, sp}
 250:	2f83834b 	svccs	0x0083834b
 254:	01040200 	mrseq	r0, R12_usr
 258:	673e08b9 			; <UNDEFINED> instruction: 0x673e08b9
 25c:	d76783bb 			; <UNDEFINED> instruction: 0xd76783bb
 260:	83d9bb67 	bicshi	fp, r9, #105472	; 0x19c00
 264:	0402002f 	streq	r0, [r2], #-47	; 0x2f
 268:	3e08b901 	cdpcc	9, 0, cr11, cr8, cr1, {0}
 26c:	0200d52f 	andeq	sp, r0, #197132288	; 0xbc00000
 270:	2e060104 	adfcss	f0, f6, f4
 274:	2f5a0806 	svccs	0x005a0806
 278:	01040200 	mrseq	r0, R12_usr
 27c:	3e085708 	cdpcc	7, 0, cr5, cr8, cr8, {0}
 280:	0402002f 	streq	r0, [r2], #-47	; 0x2f
 284:	3e08b901 	cdpcc	9, 0, cr11, cr8, cr1, {0}
 288:	00a1a32f 	adceq	sl, r1, pc, lsr #6
 28c:	06010402 	streq	r0, [r1], -r2, lsl #8
 290:	04020066 	streq	r0, [r2], #-102	; 0x66
 294:	06900802 	ldreq	r0, [r0], r2, lsl #16
 298:	03846784 	orreq	r6, r4, #132, 14	; 0x2100000
 29c:	8367ba12 	cmnhi	r7, #73728	; 0x12000
 2a0:	674c32d7 			; <UNDEFINED> instruction: 0x674c32d7
 2a4:	83132e02 	tsthi	r3, #2, 28
 2a8:	86838383 	strhi	r8, [r3], r3, lsl #7
 2ac:	0402004b 	streq	r0, [r2], #-75	; 0x4b
 2b0:	06820601 	streq	r0, [r2], r1, lsl #12
 2b4:	68839f83 	stmvs	r3, {r0, r1, r7, r8, r9, sl, fp, ip, pc}
 2b8:	6b67679f 	blvs	19da13c <_start-0x3e62dec4>
 2bc:	0067834b 	rsbeq	r8, r7, fp, asr #6
 2c0:	06010402 	streq	r0, [r1], -r2, lsl #8
 2c4:	9f830682 	svcls	0x00830682
 2c8:	67a06883 	strvs	r6, [r0, r3, lsl #17]!
 2cc:	02004b4e 	andeq	r4, r0, #79872	; 0x13800
 2d0:	82060104 	andhi	r0, r6, #4, 2
 2d4:	01040200 	mrseq	r0, R12_usr
 2d8:	0200f306 	andeq	pc, r0, #402653184	; 0x18000000
 2dc:	4b490104 	blmi	12406f4 <_start-0x3edc790c>
 2e0:	01040200 	mrseq	r0, R12_usr
 2e4:	02008206 	andeq	r8, r0, #1610612736	; 0x60000000
 2e8:	83060104 	movwhi	r0, #24836	; 0x6104
 2ec:	01040200 	mrseq	r0, R12_usr
 2f0:	00674c49 	rsbeq	r4, r7, r9, asr #24
 2f4:	06010402 	streq	r0, [r1], -r2, lsl #8
 2f8:	4b9f0666 	blmi	fe7c1c98 <stack+0xbe7b7458>
 2fc:	024c6a68 	subeq	r6, ip, #104, 20	; 0x68000
 300:	831401b4 	tsthi	r4, #180, 2	; 0x2d
 304:	0402002f 	streq	r0, [r2], #-47	; 0x2f
 308:	08bcb901 	ldmeq	ip!, {r0, r8, fp, ip, sp, pc}
 30c:	02002f3d 	andeq	r2, r0, #61, 30	; 0xf4
 310:	bcb90104 	ldflts	f0, [r9], #16
 314:	4c679f31 	stclmi	15, cr9, [r7], #-196	; 0xffffff3c
 318:	002f83bc 			; <UNDEFINED> instruction: 0x002f83bc
 31c:	b9010402 	stmdblt	r1, {r1, sl}
 320:	02005a08 	andeq	r5, r0, #8, 20	; 0x8000
 324:	00670204 	rsbeq	r0, r7, r4, lsl #4
 328:	08020402 	stmdaeq	r2, {r1, sl}
 32c:	0402003b 	streq	r0, [r2], #-59	; 0x3b
 330:	06660601 	strbteq	r0, [r6], -r1, lsl #12
 334:	02002f84 	andeq	r2, r0, #132, 30	; 0x210
 338:	08b90104 	ldmeq	r9!, {r2, r8}
 33c:	4b67315a 	blmi	19cc8ac <_start-0x3e63b754>
 340:	3f088169 	svccc	0x00088169
 344:	a39f6732 	orrsge	r6, pc, #13107200	; 0xc80000
 348:	31a09f2b 	lsrcc	r9, fp, #30
 34c:	314b32bb 	strhcc	r3, [fp, #-43]	; 0xffffffd5
 350:	68324b68 	ldmdavs	r2!, {r3, r5, r6, r8, r9, fp, lr}
 354:	d983bb31 	stmible	r3, {r0, r4, r5, r8, r9, fp, ip, sp, pc}
 358:	7803672d 	stmdavc	r3, {r0, r2, r3, r5, r8, r9, sl, sp, lr}
 35c:	2e0f032e 	cdpcs	3, 0, cr0, cr15, cr14, {1}
 360:	0200bb67 	andeq	fp, r0, #105472	; 0x19c00
 364:	66060104 	strvs	r0, [r6], -r4, lsl #2
 368:	67bb6706 	ldrvs	r6, [fp, r6, lsl #14]!
 36c:	83bb67bb 			; <UNDEFINED> instruction: 0x83bb67bb
 370:	9fbc839f 	svcls	0x00bc839f
 374:	087ee203 	ldmdaeq	lr!, {r0, r1, r9, sp, lr, pc}^
 378:	04020074 	streq	r0, [r2], #-116	; 0x74
 37c:	06660601 	strbteq	r0, [r6], -r1, lsl #12
 380:	8201a003 	andhi	sl, r1, #3
 384:	a2856767 	addge	r6, r5, #27000832	; 0x19c0000
 388:	a12fbc67 	teqge	pc, r7, ror #24
 38c:	67f46b86 	ldrbvs	r6, [r4, r6, lsl #23]!
 390:	01000802 	tsteq	r0, r2, lsl #16
 394:	00006401 	andeq	r6, r0, r1, lsl #8
 398:	2d000200 	sfmcs	f0, 4, [r0, #-0]
 39c:	02000000 	andeq	r0, r0, #0
 3a0:	0d0efb01 	vstreq	d15, [lr, #-4]
 3a4:	01010100 	mrseq	r0, (UNDEF: 17)
 3a8:	00000001 	andeq	r0, r0, r1
 3ac:	01000001 	tsteq	r0, r1
 3b0:	6d777000 	ldclvs	0, cr7, [r7, #-0]
 3b4:	0000632e 	andeq	r6, r0, lr, lsr #6
 3b8:	78650000 	stmdavc	r5!, {}^	; <UNPREDICTABLE>
 3bc:	736f6e79 	cmnvc	pc, #1936	; 0x790
 3c0:	3134345f 	teqcc	r4, pc, asr r4
 3c4:	00682e32 	rsbeq	r2, r8, r2, lsr lr
 3c8:	00000000 	andeq	r0, r0, r0
 3cc:	bc020500 	cfstr32lt	mvfx0, [r2], {-0}
 3d0:	16400099 			; <UNDEFINED> instruction: 0x16400099
 3d4:	68a0bc4c 	stmiavs	r0!, {r2, r3, r6, sl, fp, ip, sp, pc}
 3d8:	9fa09fa0 	svcls	0x00a09fa0
 3dc:	bcbda086 	ldclt	0, cr10, [sp], #536	; 0x218
 3e0:	a06868bc 	strhtge	r6, [r8], #-140	; 0xffffff74
 3e4:	4ba19fa0 	blmi	fe86826c <stack+0xbe85da2c>
 3e8:	9f4b859f 	svcls	0x004b859f
 3ec:	00678385 	rsbeq	r8, r7, r5, lsl #7
 3f0:	06010402 	streq	r0, [r1], -r2, lsl #8
 3f4:	2108062e 	tstcs	r8, lr, lsr #12
 3f8:	01000802 	tsteq	r0, r2, lsl #16
 3fc:	00005d01 	andeq	r5, r0, r1, lsl #26
 400:	2e000200 	cdpcs	2, 0, cr0, cr0, cr0, {0}
 404:	02000000 	andeq	r0, r0, #0
 408:	0d0efb01 	vstreq	d15, [lr, #-4]
 40c:	01010100 	mrseq	r0, (UNDEF: 17)
 410:	00000001 	andeq	r0, r0, r1
 414:	01000001 	tsteq	r0, r1
 418:	72617500 	rsbvc	r7, r1, #0, 10
 41c:	00632e74 	rsbeq	r2, r3, r4, ror lr
 420:	65000000 	strvs	r0, [r0, #-0]
 424:	6f6e7978 	svcvs	0x006e7978
 428:	34345f73 	ldrtcc	r5, [r4], #-3955	; 0xf73
 42c:	682e3231 	stmdavs	lr!, {r0, r4, r5, r9, ip, sp}
 430:	00000000 	andeq	r0, r0, r0
 434:	02050000 	andeq	r0, r5, #0
 438:	40009bcc 	andmi	r9, r0, ip, asr #23
 43c:	4d010b03 	vstrmi	d0, [r1, #-12]
 440:	676868be 			; <UNDEFINED> instruction: 0x676868be
 444:	009fa167 	addseq	sl, pc, r7, ror #2
 448:	06010402 	streq	r0, [r1], -r2, lsl #8
 44c:	679f062e 	ldrvs	r0, [pc, lr, lsr #12]
 450:	002f8385 	eoreq	r8, pc, r5, lsl #7
 454:	d5010402 	strle	r0, [r1, #-1026]	; 0x402
 458:	00040284 	andeq	r0, r4, r4, lsl #5
 45c:	00690101 	rsbeq	r0, r9, r1, lsl #2
 460:	00020000 	andeq	r0, r2, r0
 464:	0000001e 	andeq	r0, r0, lr, lsl r0
 468:	0efb0102 	cdpeq	1, 15, cr0, cr11, cr2, {0}
 46c:	0101000d 	tsteq	r1, sp
 470:	00000101 	andeq	r0, r0, r1, lsl #2
 474:	00000100 	andeq	r0, r0, r0, lsl #2
 478:	74730001 	ldrbtvc	r0, [r3], #-1
 47c:	2e747261 	cdpcs	2, 7, cr7, cr4, cr1, {3}
 480:	00000053 	andeq	r0, r0, r3, asr r0
 484:	05000000 	streq	r0, [r0, #-0]
 488:	00800002 	addeq	r0, r0, r2
 48c:	2f2f1540 	svccs	0x002f1540
 490:	2f2f2f2f 	svccs	0x002f2f2f
 494:	f20d032f 	vcgt.s8	d0, d13, d31
 498:	2f2f302f 	svccs	0x002f302f
 49c:	342f302f 	strtcc	r3, [pc], #-47	; 4a4 <_start-0x40007b5c>
 4a0:	2f322f2f 	svccs	0x00322f2f
 4a4:	2f2f2f33 	svccs	0x002f2f33
 4a8:	322f2f2f 	eorcc	r2, pc, #47, 30	; 0xbc
 4ac:	2f302f31 	svccs	0x00302f31
 4b0:	2f2f302f 	svccs	0x002f302f
 4b4:	302f2f30 	eorcc	r2, pc, r0, lsr pc	; <UNPREDICTABLE>
 4b8:	2f302f2f 	svccs	0x00302f2f
 4bc:	820a0335 	andhi	r0, sl, #-738197504	; 0xd4000000
 4c0:	b003302f 	andlt	r3, r3, pc, lsr #32
 4c4:	02024a7f 	andeq	r4, r2, #520192	; 0x7f000
 4c8:	5a010100 	bpl	408d0 <_start-0x3ffc7730>
 4cc:	02000000 	andeq	r0, r0, #0
 4d0:	00002100 	andeq	r2, r0, r0, lsl #2
 4d4:	fb010200 	blx	40cde <_start-0x3ffc7322>
 4d8:	01000d0e 	tsteq	r0, lr, lsl #26
 4dc:	00010101 	andeq	r0, r1, r1, lsl #2
 4e0:	00010000 	andeq	r0, r1, r0
 4e4:	5f000100 	svcpl	0x00000100
 4e8:	76696475 			; <UNDEFINED> instruction: 0x76696475
 4ec:	2e336973 	mrccs	9, 1, r6, cr3, cr3, {3}
 4f0:	00000053 	andeq	r0, r0, r3, asr r0
 4f4:	05000000 	streq	r0, [r0, #-0]
 4f8:	009cc002 	addseq	ip, ip, r2
 4fc:	01110340 	tsteq	r1, r0, asr #6
 500:	2f2f2f2f 	svccs	0x002f2f2f
 504:	2f2f342f 	svccs	0x002f342f
 508:	2f322f2f 	svccs	0x00322f2f
 50c:	342f2f2f 	strtcc	r2, [pc], #-3887	; 514 <_start-0x40007aec>
 510:	2f2f2f2f 	svccs	0x002f2f2f
 514:	2f2f2f2f 	svccs	0x002f2f2f
 518:	2f2f2f2f 	svccs	0x002f2f2f
 51c:	302f2f2f 	eorcc	r2, pc, pc, lsr #30
 520:	2f30302f 	svccs	0x0030302f
 524:	01000202 	tsteq	r0, r2, lsl #4
 528:	00006101 	andeq	r6, r0, r1, lsl #2
 52c:	21000200 	mrscs	r0, R8_usr
 530:	02000000 	andeq	r0, r0, #0
 534:	0d0efb01 	vstreq	d15, [lr, #-4]
 538:	01010100 	mrseq	r0, (UNDEF: 17)
 53c:	00000001 	andeq	r0, r0, r1
 540:	01000001 	tsteq	r0, r1
 544:	6d755f00 	ldclvs	15, cr5, [r5, #-0]
 548:	6973646f 	ldmdbvs	r3!, {r0, r1, r2, r3, r5, r6, sl, sp, lr}^
 54c:	00532e33 	subseq	r2, r3, r3, lsr lr
 550:	00000000 	andeq	r0, r0, r0
 554:	54020500 	strpl	r0, [r2], #-1280	; 0x500
 558:	0340009d 	movteq	r0, #157	; 0x9d
 55c:	2f2f0112 	svccs	0x002f0112
 560:	2f342f2f 	svccs	0x00342f2f
 564:	322f2f2f 	eorcc	r2, pc, #47, 30	; 0xbc
 568:	2f2f2f2f 	svccs	0x002f2f2f
 56c:	2f2f2f33 	svccs	0x002f2f33
 570:	2f2f2f2f 	svccs	0x002f2f2f
 574:	2f2f2f2f 	svccs	0x002f2f2f
 578:	2f2f2f2f 	svccs	0x002f2f2f
 57c:	2f2f352f 	svccs	0x002f352f
 580:	2f2f2f2f 	svccs	0x002f2f2f
 584:	30302f2f 	eorscc	r2, r0, pc, lsr #30
 588:	0002022f 	andeq	r0, r2, pc, lsr #4
 58c:	Address 0x0000058c is out of bounds.


Disassembly of section .debug_str:

00000000 <.debug_str>:
   0:	5f636461 	svcpl	0x00636461
   4:	74696e69 	strbtvc	r6, [r9], #-3689	; 0xe69
   8:	6f687300 	svcvs	0x00687300
   c:	75207472 	strvc	r7, [r0, #-1138]!	; 0x472
  10:	6769736e 	strbvs	r7, [r9, -lr, ror #6]!
  14:	2064656e 	rsbcs	r6, r4, lr, ror #10
  18:	00746e69 	rsbseq	r6, r4, r9, ror #28
  1c:	2e636461 	cdpcs	4, 6, cr6, cr3, cr1, {3}
  20:	65670063 	strbvs	r0, [r7, #-99]!	; 0x63
  24:	64615f74 	strbtvs	r5, [r1], #-3956	; 0xf74
  28:	61645f63 	cmnvs	r4, r3, ror #30
  2c:	2f006174 	svccs	0x00006174
  30:	2f746e6d 	svccs	0x00746e6d
  34:	73666768 	cmnvc	r6, #104, 14	; 0x1a00000
  38:	b185e52f 	orrlt	lr, r5, pc, lsr #10
  3c:	e6abbae4 	strt	fp, [fp], r4, ror #21
  40:	bbe48796 	bllt	ff921ea0 <stack+0xbf917660>
  44:	52412fb6 	subpl	r2, r1, #728	; 0x2d8
  48:	52412f4d 	subpl	r2, r1, #308	; 0x134
  4c:	766f5f4d 	strbtvc	r5, [pc], -sp, asr #30
  50:	47007265 	strmi	r7, [r0, -r5, ror #4]
  54:	4320554e 	teqmi	r0, #327155712	; 0x13800000
  58:	362e3420 	strtcc	r3, [lr], -r0, lsr #8
  5c:	6700342e 	strvs	r3, [r0, -lr, lsr #8]
  60:	6c5f7465 	cfldrdvs	mvd7, [pc], {101}	; 0x65
  64:	665f6465 	ldrbvs	r6, [pc], -r5, ror #8
  68:	0067616c 	rsbeq	r6, r7, ip, ror #2
  6c:	5f64656c 	svcpl	0x0064656c
  70:	74696e69 	strbtvc	r6, [r9], #-3689	; 0xe69
  74:	78706700 	ldmdavc	r0!, {r8, r9, sl, sp, lr}^
  78:	4f430032 	svcmi	0x00430032
  7c:	4e44504e 	cdpmi	0, 4, cr5, cr4, cr14, {2}
  80:	736e7500 	cmnvc	lr, #0, 10
  84:	656e6769 	strbvs	r6, [lr, #-1897]!	; 0x769
  88:	68632064 	stmdavs	r3!, {r2, r5, r6, sp}^
  8c:	67007261 	strvs	r7, [r0, -r1, ror #4]
  90:	00317870 	eorseq	r7, r1, r0, ror r8
  94:	50445550 	subpl	r5, r4, r0, asr r5
  98:	6c004e44 	stcvs	14, cr4, [r0], {68}	; 0x44
  9c:	632e6465 	teqvs	lr, #1694498816	; 0x65000000
  a0:	66706700 	ldrbtvs	r6, [r0], -r0, lsl #14
  a4:	68730033 	ldmdavs	r3!, {r0, r1, r4, r5}^
  a8:	2074726f 	rsbscs	r7, r4, pc, ror #4
  ac:	00746e69 	rsbseq	r6, r4, r9, ror #28
  b0:	746f4e74 	strbtvc	r4, [pc], #-3700	; b8 <_start-0x40007f48>
  b4:	794d0065 	stmdbvc	sp, {r0, r2, r5, r6}^
  b8:	726f6353 	rsbvc	r6, pc, #1275068417	; 0x4c000001
  bc:	656c0065 	strbvs	r0, [ip, #-101]!	; 0x65
  c0:	6a645f64 	bvs	1917e58 <_start-0x3e6f01a8>
  c4:	53794d00 	cmnpl	r9, #0, 26
  c8:	65726f63 	ldrbvs	r6, [r2, #-3939]!	; 0xf63
  cc:	616d0031 	cmnvs	sp, r1, lsr r0
  d0:	6d006e69 	stcvs	14, cr6, [r0, #-420]	; 0xfffffe5c
  d4:	2e6e6961 	cdpcs	9, 6, cr6, cr14, cr1, {3}
  d8:	70670063 	rsbvc	r0, r7, r3, rrx
  dc:	66003378 			; <UNDEFINED> instruction: 0x66003378
  e0:	746e7563 	strbtvc	r7, [lr], #-1379	; 0x563
  e4:	69546d00 	ldmdbvs	r4, {r8, sl, fp, sp, lr}^
  e8:	6d00656d 	cfstr32vs	mvfx6, [r0, #-436]	; 0xfffffe4c
  ec:	656d614e 	strbvs	r6, [sp, #-334]!	; 0x14e
  f0:	625f5f00 	subsvs	r5, pc, #0, 30
  f4:	746c6975 	strbtvc	r6, [ip], #-2421	; 0x975
  f8:	765f6e69 	ldrbvc	r6, [pc], -r9, ror #28
  fc:	696c5f61 	stmdbvs	ip!, {r0, r5, r6, r8, r9, sl, fp, ip, lr}^
 100:	73007473 	movwvc	r7, #1139	; 0x473
 104:	6c706d69 	ldclvs	13, cr6, [r0], #-420	; 0xfffffe5c
 108:	74735f65 	ldrbtvc	r5, [r3], #-3941	; 0xf65
 10c:	756f7472 	strbvc	r7, [pc, #-1138]!	; fffffca2 <stack+0xbfff5462>
 110:	6176006c 	cmnvs	r6, ip, rrx
 114:	0065756c 	rsbeq	r7, r5, ip, ror #10
 118:	6e756f63 	cdpvs	15, 7, cr6, cr5, cr3, {3}
 11c:	6b730074 	blvs	1cc02f4 <_start-0x3e347d0c>
 120:	615f7069 	cmpvs	pc, r9, rrx
 124:	00696f74 	rsbeq	r6, r9, r4, ror pc
 128:	6f745f5f 	svcvs	0x00745f5f
 12c:	65707075 	ldrbvs	r7, [r0, #-117]!	; 0x75
 130:	5f5f0072 	svcpl	0x005f0072
 134:	63756e67 	cmnvs	r5, #1648	; 0x670
 138:	5f61765f 	svcpl	0x0061765f
 13c:	7473696c 	ldrbtvc	r6, [r3], #-2412	; 0x96c
 140:	65727000 	ldrbvs	r7, [r2, #-0]!
 144:	69736963 	ldmdbvs	r3!, {r0, r1, r5, r6, r8, fp, sp, lr}^
 148:	62006e6f 	andvs	r6, r0, #1776	; 0x6f0
 14c:	00657361 	rsbeq	r7, r5, r1, ror #6
 150:	6e697270 	mcrvs	2, 3, r7, cr9, cr0, {3}
 154:	632e6674 	teqvs	lr, #116, 12	; 0x7400000
 158:	6e6f6c00 	cdpvs	12, 6, cr6, cr15, cr0, {0}
 15c:	6e752067 	cdpvs	0, 7, cr2, cr5, cr7, {3}
 160:	6e676973 	mcrvs	9, 3, r6, cr7, cr3, {3}
 164:	69206465 	stmdbvs	r0!, {r0, r2, r5, r6, sl, sp, lr}
 168:	7300746e 	movwvc	r7, #1134	; 0x46e
 16c:	6c706d69 	ldclvs	13, cr6, [r0], #-420	; 0xfffffe5c
 170:	74735f65 	ldrbtvc	r5, [r3], #-3941	; 0xf65
 174:	6c6f7472 	cfstrdvs	mvd7, [pc], #-456	; ffffffb4 <stack+0xbfff5774>
 178:	616c6600 	cmnvs	ip, r0, lsl #12
 17c:	71007367 	tstvc	r0, r7, ror #6
 180:	696c6175 	stmdbvs	ip!, {r0, r2, r4, r5, r6, r8, sp, lr}^
 184:	72656966 	rsbvc	r6, r5, #1671168	; 0x198000
 188:	73657200 	cmnvc	r5, #0, 4
 18c:	00746c75 	rsbseq	r6, r4, r5, ror ip
 190:	65706572 	ldrbvs	r6, [r0, #-1394]!	; 0x572
 194:	73007461 	movwvc	r7, #1121	; 0x461
 198:	6c6e7274 	sfmvs	f7, 2, [lr], #-464	; 0xfffffe30
 19c:	65006e65 	strvs	r6, [r0, #-3685]	; 0xe65
 1a0:	0070646e 	rsbseq	r6, r0, lr, ror #8
 1a4:	7974635f 	ldmdbvc	r4!, {r0, r1, r2, r3, r4, r6, r8, r9, sp, lr}^
 1a8:	64006570 	strvs	r6, [r0], #-1392	; 0x570
 1ac:	74696769 	strbtvc	r6, [r9], #-1897	; 0x769
 1b0:	72700073 	rsbsvc	r0, r0, #115	; 0x73
 1b4:	62746e69 	rsbsvs	r6, r4, #1680	; 0x690
 1b8:	65666675 	strbvs	r6, [r6, #-1653]!	; 0x675
 1bc:	69660072 	stmdbvs	r6!, {r1, r4, r5, r6}^
 1c0:	5f646c65 	svcpl	0x00646c65
 1c4:	74646977 	strbtvc	r6, [r4], #-2423	; 0x977
 1c8:	72610068 	rsbvc	r0, r1, #104	; 0x68
 1cc:	6e007367 	cdpvs	3, 0, cr7, cr0, cr7, {3}
 1d0:	65626d75 	strbvs	r6, [r2, #-3445]!	; 0xd75
 1d4:	6f6c0072 	svcvs	0x006c0072
 1d8:	6920676e 	stmdbvs	r0!, {r1, r2, r3, r5, r6, r8, r9, sl, sp, lr}
 1dc:	7300746e 	movwvc	r7, #1134	; 0x46e
 1e0:	006e6769 	rsbeq	r6, lr, r9, ror #14
 1e4:	65725f5f 	ldrbvs	r5, [r2, #-3935]!	; 0xf5f
 1e8:	69730073 	ldmdbvs	r3!, {r0, r1, r4, r5, r6}^
 1ec:	7600657a 			; <UNDEFINED> instruction: 0x7600657a
 1f0:	69727073 	ldmdbvs	r2!, {r0, r1, r4, r5, r6, ip, sp, lr}^
 1f4:	0066746e 	rsbeq	r7, r6, lr, ror #8
 1f8:	616c6564 	cmnvs	ip, r4, ror #10
 1fc:	6e695f79 	mcrvs	15, 3, r5, cr9, cr9, {3}
 200:	54007469 	strpl	r7, [r0], #-1129	; 0x469
 204:	42504d43 	subsmi	r4, r0, #4288	; 0x10c0
 208:	65640030 	strbvs	r0, [r4, #-48]!	; 0x30
 20c:	6d79616c 	ldfvse	f6, [r9, #-432]!	; 0xfffffe50
 210:	77700073 			; <UNDEFINED> instruction: 0x77700073
 214:	6e695f6d 	cdpvs	15, 6, cr5, cr9, cr13, {3}
 218:	54007469 	strpl	r7, [r0], #-1129	; 0x469
 21c:	31474643 	cmpcc	r7, r3, asr #12
 220:	64706700 	ldrbtvs	r6, [r0], #-1792	; 0x700
 224:	77700030 			; <UNDEFINED> instruction: 0x77700030
 228:	00632e6d 	rsbeq	r2, r3, sp, ror #28
 22c:	504d4354 	subpl	r4, sp, r4, asr r3
 230:	54003142 	strpl	r3, [r0], #-322	; 0x142
 234:	42504d43 	subsmi	r4, r0, #4288	; 0x10c0
 238:	43540032 	cmpmi	r4, #50	; 0x32
 23c:	3342504d 	movtcc	r5, #8269	; 0x204d
 240:	4e435400 	cdpmi	4, 4, cr5, cr3, cr0, {0}
 244:	00314254 	eorseq	r4, r1, r4, asr r2
 248:	544e4354 	strbpl	r4, [lr], #-852	; 0x354
 24c:	54003242 	strpl	r3, [r0], #-578	; 0x242
 250:	42544e43 	subsmi	r4, r4, #1072	; 0x430
 254:	77700033 			; <UNDEFINED> instruction: 0x77700033
 258:	74735f6d 	ldrbtvc	r5, [r3], #-3949	; 0xf6d
 25c:	5400706f 	strpl	r7, [r0], #-111	; 0x6f
 260:	30474643 	subcc	r4, r7, r3, asr #12
 264:	6d777000 	ldclvs	0, cr7, [r7, #-0]
 268:	6174735f 	cmnvs	r4, pc, asr r3
 26c:	54007472 	strpl	r7, [r0], #-1138	; 0x472
 270:	004e4f43 	subeq	r4, lr, r3, asr #30
 274:	544e4354 	strbpl	r4, [lr], #-852	; 0x354
 278:	5400304f 	strpl	r3, [r0], #-79	; 0x4f
 27c:	4f544e43 	svcmi	0x00544e43
 280:	43540031 	cmpmi	r4, #49	; 0x31
 284:	324f544e 	subcc	r5, pc, #1308622848	; 0x4e000000
 288:	4e435400 	cdpmi	4, 4, cr5, cr3, cr0, {0}
 28c:	00334f54 	eorseq	r4, r3, r4, asr pc
 290:	544e4354 	strbpl	r4, [lr], #-852	; 0x354
 294:	5400344f 	strpl	r3, [r0], #-1103	; 0x44f
 298:	5f544e49 	svcpl	0x00544e49
 29c:	41545343 	cmpmi	r4, r3, asr #6
 2a0:	43540054 	cmpmi	r4, #84	; 0x54
 2a4:	3042544e 	subcc	r5, r2, lr, asr #8
 2a8:	4e435400 	cdpmi	4, 4, cr5, cr3, cr0, {0}
 2ac:	00344254 	eorseq	r4, r4, r4, asr r2
 2b0:	74726175 	ldrbtvc	r6, [r2], #-373	; 0x175
 2b4:	49550032 	ldmdbmi	r5, {r1, r4, r5}^
 2b8:	3250544e 	subscc	r5, r0, #1308622848	; 0x4e000000
 2bc:	4e495500 	cdpmi	5, 4, cr5, cr9, cr0, {0}
 2c0:	32505354 	subscc	r5, r0, #84, 6	; 0x50000001
 2c4:	52425500 	subpl	r5, r2, #0, 10
 2c8:	32564944 	subscc	r4, r6, #68, 18	; 0x110000
 2cc:	72617500 	rsbvc	r7, r1, #0, 10
 2d0:	00632e74 	rsbeq	r2, r3, r4, ror lr
 2d4:	4e4f4355 	mcrmi	3, 2, r4, cr15, cr5, {2}
 2d8:	46550032 			; <UNDEFINED> instruction: 0x46550032
 2dc:	54415453 	strbpl	r5, [r1], #-1107	; 0x453
 2e0:	54550032 	ldrbpl	r0, [r5], #-50	; 0x32
 2e4:	41545352 	cmpmi	r4, r2, asr r3
 2e8:	75003254 	strvc	r3, [r0, #-596]	; 0x254
 2ec:	5f747261 	svcpl	0x00747261
 2f0:	74696e69 	strbtvc	r6, [r9], #-3689	; 0xe69
 2f4:	43465500 	movtmi	r5, #25856	; 0x6500
 2f8:	00324e4f 	eorseq	r4, r2, pc, asr #28
 2fc:	48585455 	ldmdami	r8, {r0, r2, r4, r6, sl, ip, lr}^
 300:	4d550032 	ldclmi	0, cr0, [r5, #-200]	; 0xffffff38
 304:	54415453 	strbpl	r5, [r1], #-1107	; 0x453
 308:	49550032 	ldmdbmi	r5, {r1, r4, r5}^
 30c:	324d544e 	subcc	r5, sp, #1308622848	; 0x4e000000
 310:	434c5500 	movtmi	r5, #50432	; 0xc500
 314:	00324e4f 	eorseq	r4, r2, pc, asr #28
 318:	31617067 	cmncc	r1, r7, rrx
 31c:	74757000 	ldrbtvc	r7, [r5], #-0
 320:	45550063 	ldrbmi	r0, [r5, #-99]	; 0x63
 324:	41545352 	cmpmi	r4, r2, asr r3
 328:	70003254 	andvc	r3, r0, r4, asr r2
 32c:	00737475 	rsbseq	r7, r3, r5, ror r4
 330:	4f434d55 	svcmi	0x00434d55
 334:	5500324e 	strpl	r3, [r0, #-590]	; 0x24e
 338:	32485852 	subcc	r5, r8, #5373952	; 0x520000
 33c:	52465500 	subpl	r5, r6, #0, 10
 340:	41564341 	cmpmi	r6, r1, asr #6
 344:	Address 0x00000344 is out of bounds.


Disassembly of section .comment:

00000000 <.comment>:
   0:	3a434347 	bcc	10d0d24 <_start-0x3ef372dc>
   4:	72632820 	rsbvc	r2, r3, #32, 16	; 0x200000
   8:	7473736f 	ldrbtvc	r7, [r3], #-879	; 0x36f
   c:	2d6c6f6f 	stclcs	15, cr6, [ip, #-444]!	; 0xfffffe44
  10:	6820474e 	stmdavs	r0!, {r1, r2, r3, r6, r8, r9, sl, lr}
  14:	65642b67 	strbvs	r2, [r4, #-2919]!	; 0xb67
  18:	6c756166 	ldfvse	f6, [r5], #-408	; 0xfffffe68
  1c:	36322d74 			; <UNDEFINED> instruction: 0x36322d74
  20:	66643538 			; <UNDEFINED> instruction: 0x66643538
  24:	65643961 	strbvs	r3, [r4, #-2401]!	; 0x961
  28:	2d203431 	cfstrscs	mvf3, [r0, #-196]!	; 0xffffff3c
  2c:	30637420 	rsbcc	r7, r3, r0, lsr #8
  30:	29323030 	ldmdbcs	r2!, {r4, r5, ip, sp}
  34:	362e3420 	strtcc	r3, [lr], -r0, lsr #8
  38:	Address 0x00000038 is out of bounds.


Disassembly of section .ARM.attributes:

00000000 <.ARM.attributes>:
   0:	00000f41 	andeq	r0, r0, r1, asr #30
   4:	61656100 	cmnvs	r5, r0, lsl #2
   8:	01006962 	tsteq	r0, r2, ror #18
   c:	00000005 	andeq	r0, r0, r5

Disassembly of section .debug_frame:

00000000 <.debug_frame>:
   0:	0000000c 	andeq	r0, r0, ip
   4:	ffffffff 			; <UNDEFINED> instruction: 0xffffffff
   8:	7c020001 	stcvc	0, cr0, [r2], {1}
   c:	000d0c0e 	andeq	r0, sp, lr, lsl #24
  10:	00000014 	andeq	r0, r0, r4, lsl r0
  14:	00000000 	andeq	r0, r0, r0
  18:	40008100 	andmi	r8, r0, r0, lsl #2
  1c:	0000007c 	andeq	r0, r0, ip, ror r0
  20:	8b040e42 	blhi	103930 <_start-0x3ff046d0>
  24:	0b0d4201 	bleq	350830 <_start-0x3fcb77d0>
  28:	00000014 	andeq	r0, r0, r4, lsl r0
  2c:	00000000 	andeq	r0, r0, r0
  30:	4000817c 	andmi	r8, r0, ip, ror r1
  34:	0000006c 	andeq	r0, r0, ip, rrx
  38:	8b040e42 	blhi	103948 <_start-0x3ff046b8>
  3c:	0b0d4201 	bleq	350848 <_start-0x3fcb77b8>
  40:	0000000c 	andeq	r0, r0, ip
  44:	ffffffff 			; <UNDEFINED> instruction: 0xffffffff
  48:	7c020001 	stcvc	0, cr0, [r2], {1}
  4c:	000d0c0e 	andeq	r0, sp, lr, lsl #24
  50:	00000014 	andeq	r0, r0, r4, lsl r0
  54:	00000040 	andeq	r0, r0, r0, asr #32
  58:	400081e8 	andmi	r8, r0, r8, ror #3
  5c:	00000068 	andeq	r0, r0, r8, rrx
  60:	8b040e42 	blhi	103970 <_start-0x3ff04690>
  64:	0b0d4201 	bleq	350870 <_start-0x3fcb7790>
  68:	00000014 	andeq	r0, r0, r4, lsl r0
  6c:	00000040 	andeq	r0, r0, r0, asr #32
  70:	40008250 	andmi	r8, r0, r0, asr r2
  74:	00000168 	andeq	r0, r0, r8, ror #2
  78:	8b040e42 	blhi	103988 <_start-0x3ff04678>
  7c:	0b0d4201 	bleq	350888 <_start-0x3fcb7778>
  80:	00000014 	andeq	r0, r0, r4, lsl r0
  84:	00000040 	andeq	r0, r0, r0, asr #32
  88:	400083b8 			; <UNDEFINED> instruction: 0x400083b8
  8c:	000000b8 	strheq	r0, [r0], -r8
  90:	8b040e42 	blhi	1039a0 <_start-0x3ff04660>
  94:	0b0d4201 	bleq	3508a0 <_start-0x3fcb7760>
  98:	0000000c 	andeq	r0, r0, ip
  9c:	ffffffff 			; <UNDEFINED> instruction: 0xffffffff
  a0:	7c020001 	stcvc	0, cr0, [r2], {1}
  a4:	000d0c0e 	andeq	r0, sp, lr, lsl #24
  a8:	00000018 	andeq	r0, r0, r8, lsl r0
  ac:	00000098 	muleq	r0, r8, r0
  b0:	40008470 	andmi	r8, r0, r0, ror r4
  b4:	000000c0 	andeq	r0, r0, r0, asr #1
  b8:	8e080e42 	cdphi	14, 0, cr0, cr8, cr2, {2}
  bc:	42028b01 	andmi	r8, r2, #1024	; 0x400
  c0:	00040b0c 	andeq	r0, r4, ip, lsl #22
  c4:	00000018 	andeq	r0, r0, r8, lsl r0
  c8:	00000098 	muleq	r0, r8, r0
  cc:	40008530 	andmi	r8, r0, r0, lsr r5
  d0:	000002b4 			; <UNDEFINED> instruction: 0x000002b4
  d4:	8e080e42 	cdphi	14, 0, cr0, cr8, cr2, {2}
  d8:	42028b01 	andmi	r8, r2, #1024	; 0x400
  dc:	00040b0c 	andeq	r0, r4, ip, lsl #22
  e0:	0000000c 	andeq	r0, r0, ip
  e4:	ffffffff 			; <UNDEFINED> instruction: 0xffffffff
  e8:	7c020001 	stcvc	0, cr0, [r2], {1}
  ec:	000d0c0e 	andeq	r0, sp, lr, lsl #24
  f0:	00000014 	andeq	r0, r0, r4, lsl r0
  f4:	000000e0 	andeq	r0, r0, r0, ror #1
  f8:	400087e4 	andmi	r8, r0, r4, ror #15
  fc:	00000050 	andeq	r0, r0, r0, asr r0
 100:	8b040e42 	blhi	103a10 <_start-0x3ff045f0>
 104:	0b0d4201 	bleq	350910 <_start-0x3fcb76f0>
 108:	00000018 	andeq	r0, r0, r8, lsl r0
 10c:	000000e0 	andeq	r0, r0, r0, ror #1
 110:	40008834 	andmi	r8, r0, r4, lsr r8
 114:	000001a4 	andeq	r0, r0, r4, lsr #3
 118:	8e080e42 	cdphi	14, 0, cr0, cr8, cr2, {2}
 11c:	42028b01 	andmi	r8, r2, #1024	; 0x400
 120:	00040b0c 	andeq	r0, r4, ip, lsl #22
 124:	00000018 	andeq	r0, r0, r8, lsl r0
 128:	000000e0 	andeq	r0, r0, r0, ror #1
 12c:	400089d8 	ldrdmi	r8, [r0], -r8	; <UNPREDICTABLE>
 130:	0000006c 	andeq	r0, r0, ip, rrx
 134:	8e080e42 	cdphi	14, 0, cr0, cr8, cr2, {2}
 138:	42028b01 	andmi	r8, r2, #1024	; 0x400
 13c:	00040b0c 	andeq	r0, r4, ip, lsl #22
 140:	00000014 	andeq	r0, r0, r4, lsl r0
 144:	000000e0 	andeq	r0, r0, r0, ror #1
 148:	40008a44 	andmi	r8, r0, r4, asr #20
 14c:	00000094 	muleq	r0, r4, r0
 150:	8b040e42 	blhi	103a60 <_start-0x3ff045a0>
 154:	0b0d4201 	bleq	350960 <_start-0x3fcb76a0>
 158:	00000018 	andeq	r0, r0, r8, lsl r0
 15c:	000000e0 	andeq	r0, r0, r0, ror #1
 160:	40008ad8 	ldrdmi	r8, [r0], -r8	; <UNPREDICTABLE>
 164:	00000494 	muleq	r0, r4, r4
 168:	8e080e42 	cdphi	14, 0, cr0, cr8, cr2, {2}
 16c:	42028b01 	andmi	r8, r2, #1024	; 0x400
 170:	00040b0c 	andeq	r0, r4, ip, lsl #22
 174:	00000014 	andeq	r0, r0, r4, lsl r0
 178:	000000e0 	andeq	r0, r0, r0, ror #1
 17c:	40008f6c 	andmi	r8, r0, ip, ror #30
 180:	00000080 	andeq	r0, r0, r0, lsl #1
 184:	8b040e42 	blhi	103a94 <_start-0x3ff0456c>
 188:	0b0d4201 	bleq	350994 <_start-0x3fcb766c>
 18c:	00000018 	andeq	r0, r0, r8, lsl r0
 190:	000000e0 	andeq	r0, r0, r0, ror #1
 194:	40008fec 	andmi	r8, r0, ip, ror #31
 198:	00000928 	andeq	r0, r0, r8, lsr #18
 19c:	8e080e42 	cdphi	14, 0, cr0, cr8, cr2, {2}
 1a0:	42028b01 	andmi	r8, r2, #1024	; 0x400
 1a4:	00040b0c 	andeq	r0, r4, ip, lsl #22
 1a8:	00000020 	andeq	r0, r0, r0, lsr #32
 1ac:	000000e0 	andeq	r0, r0, r0, ror #1
 1b0:	40009914 	andmi	r9, r0, r4, lsl r9
 1b4:	00000050 	andeq	r0, r0, r0, asr r0
 1b8:	830c0e42 	movwhi	r0, #52802	; 0xce42
 1bc:	81028201 	tsthi	r2, r1, lsl #4
 1c0:	140e4203 	strne	r4, [lr], #-515	; 0x203
 1c4:	058b048e 	streq	r0, [fp, #1166]	; 0x48e
 1c8:	100b0c42 	andne	r0, fp, r2, asr #24
 1cc:	00000024 	andeq	r0, r0, r4, lsr #32
 1d0:	000000e0 	andeq	r0, r0, r0, ror #1
 1d4:	40009964 	andmi	r9, r0, r4, ror #18
 1d8:	00000058 	andeq	r0, r0, r8, asr r0
 1dc:	83100e42 	tsthi	r0, #1056	; 0x420
 1e0:	81028201 	tsthi	r2, r1, lsl #4
 1e4:	42048003 	andmi	r8, r4, #3
 1e8:	058e180e 	streq	r1, [lr, #2062]	; 0x80e
 1ec:	0c42068b 	mcrreq	6, 8, r0, r2, cr11
 1f0:	0000140b 	andeq	r1, r0, fp, lsl #8
 1f4:	0000000c 	andeq	r0, r0, ip
 1f8:	ffffffff 			; <UNDEFINED> instruction: 0xffffffff
 1fc:	7c020001 	stcvc	0, cr0, [r2], {1}
 200:	000d0c0e 	andeq	r0, sp, lr, lsl #24
 204:	00000014 	andeq	r0, r0, r4, lsl r0
 208:	000001f4 	strdeq	r0, [r0], -r4
 20c:	400099bc 			; <UNDEFINED> instruction: 0x400099bc
 210:	000000a0 	andeq	r0, r0, r0, lsr #1
 214:	8b040e42 	blhi	103b24 <_start-0x3ff044dc>
 218:	0b0d4201 	bleq	350a24 <_start-0x3fcb75dc>
 21c:	00000014 	andeq	r0, r0, r4, lsl r0
 220:	000001f4 	strdeq	r0, [r0], -r4
 224:	40009a5c 	andmi	r9, r0, ip, asr sl
 228:	000000c4 	andeq	r0, r0, r4, asr #1
 22c:	8b040e42 	blhi	103b3c <_start-0x3ff044c4>
 230:	0b0d4201 	bleq	350a3c <_start-0x3fcb75c4>
 234:	00000014 	andeq	r0, r0, r4, lsl r0
 238:	000001f4 	strdeq	r0, [r0], -r4
 23c:	40009b20 	andmi	r9, r0, r0, lsr #22
 240:	0000002c 	andeq	r0, r0, ip, lsr #32
 244:	8b040e42 	blhi	103b54 <_start-0x3ff044ac>
 248:	0b0d4201 	bleq	350a54 <_start-0x3fcb75ac>
 24c:	00000014 	andeq	r0, r0, r4, lsl r0
 250:	000001f4 	strdeq	r0, [r0], -r4
 254:	40009b4c 	andmi	r9, r0, ip, asr #22
 258:	0000002c 	andeq	r0, r0, ip, lsr #32
 25c:	8b040e42 	blhi	103b6c <_start-0x3ff04494>
 260:	0b0d4201 	bleq	350a6c <_start-0x3fcb7594>
 264:	00000014 	andeq	r0, r0, r4, lsl r0
 268:	000001f4 	strdeq	r0, [r0], -r4
 26c:	40009b78 	andmi	r9, r0, r8, ror fp
 270:	00000054 	andeq	r0, r0, r4, asr r0
 274:	8b040e42 	blhi	103b84 <_start-0x3ff0447c>
 278:	0b0d4201 	bleq	350a84 <_start-0x3fcb757c>
 27c:	0000000c 	andeq	r0, r0, ip
 280:	ffffffff 			; <UNDEFINED> instruction: 0xffffffff
 284:	7c020001 	stcvc	0, cr0, [r2], {1}
 288:	000d0c0e 	andeq	r0, sp, lr, lsl #24
 28c:	00000014 	andeq	r0, r0, r4, lsl r0
 290:	0000027c 	andeq	r0, r0, ip, ror r2
 294:	40009bcc 	andmi	r9, r0, ip, asr #23
 298:	00000064 	andeq	r0, r0, r4, rrx
 29c:	8b040e42 	blhi	103bac <_start-0x3ff04454>
 2a0:	0b0d4201 	bleq	350aac <_start-0x3fcb7554>
 2a4:	00000014 	andeq	r0, r0, r4, lsl r0
 2a8:	0000027c 	andeq	r0, r0, ip, ror r2
 2ac:	40009c30 	andmi	r9, r0, r0, lsr ip
 2b0:	00000048 	andeq	r0, r0, r8, asr #32
 2b4:	8b040e42 	blhi	103bc4 <_start-0x3ff0443c>
 2b8:	0b0d4201 	bleq	350ac4 <_start-0x3fcb753c>
 2bc:	00000018 	andeq	r0, r0, r8, lsl r0
 2c0:	0000027c 	andeq	r0, r0, ip, ror r2
 2c4:	40009c78 	andmi	r9, r0, r8, ror ip
 2c8:	00000048 	andeq	r0, r0, r8, asr #32
 2cc:	8e080e42 	cdphi	14, 0, cr0, cr8, cr2, {2}
 2d0:	42028b01 	andmi	r8, r2, #1024	; 0x400
 2d4:	00040b0c 	andeq	r0, r4, ip, lsl #22
