ARM GAS  C:\Users\ADMINI~1.MIC\AppData\Local\Temp\ccXQZI2W.s 			page 1


   1              		.cpu arm7tdmi
   2              		.fpu softvfp
   3              		.eabi_attribute 20, 1
   4              		.eabi_attribute 21, 1
   5              		.eabi_attribute 23, 3
   6              		.eabi_attribute 24, 1
   7              		.eabi_attribute 25, 1
   8              		.eabi_attribute 26, 1
   9              		.eabi_attribute 30, 1
  10              		.eabi_attribute 18, 4
  11              		.file	"main.c"
  12              		.text
  13              	.Ltext0:
  14              		.cfi_sections	.debug_frame
  15              		.align	2
  16              		.global	delay
  17              		.type	delay, %function
  18              	delay:
  19              	.LFB0:
  20              		.file 1 "main.c"
   1:main.c        **** #define GPX2CON 0x11000c40	//灯
   2:main.c        **** #define GPX2DAT 0x11000c44
   3:main.c        **** 
   4:main.c        **** #define GPX1CON 0x11000c20	//按键	INIT
   5:main.c        **** #define GPX1DAT 0x11000c24
   6:main.c        **** #define GPX1PUD 0x11000c28
   7:main.c        **** #define EXT_INT41_CON 0x11000e04
   8:main.c        **** #define EXT_INT41_MASK 0x11000f04
   9:main.c        **** #define EXT_INT41_PEND 0x11000f44
  10:main.c        **** 
  11:main.c        **** #define ICDDCR 0x10490000		//GIC  
  12:main.c        **** #define ICDISER1_CPU0 0x10490104
  13:main.c        **** #define ICDIPTR14_CPU0 0x10490838
  14:main.c        **** #define ICCICR_CPU0  0x10480000
  15:main.c        **** #define ICCPMR_CPU0  0x10480004
  16:main.c        **** #define ICCIAR_CPU0	 0x1048000c
  17:main.c        **** #define ICDICPR1_CPU0 0x10490284
  18:main.c        **** #define ICCEOIR_CPU0 0x10480010
  19:main.c        **** //#define GPF3CON 0x114001E0
  20:main.c        **** //#define GPF3DAT 0x114001E4
  21:main.c        **** 
  22:main.c        **** #define REG_READ(addr) (*(volatile unsigned int *)(addr))
  23:main.c        **** #define REG_WRITE(addr,val) (*(volatile unsigned int *)(addr)=(val))
  24:main.c        **** 
  25:main.c        **** int status=0;
  26:main.c        **** 				
  27:main.c        **** 
  28:main.c        **** void delay(volatile unsigned long dly)
  29:main.c        **** {
  21              		.loc 1 29 0
  22              		.cfi_startproc
  23              		@ Function supports interworking.
  24              		@ args = 0, pretend = 0, frame = 8
  25              		@ frame_needed = 0, uses_anonymous_args = 0
  26              		@ link register save eliminated.
  27              	.LVL0:
  28 0000 08D04DE2 		sub	sp, sp, #8
ARM GAS  C:\Users\ADMINI~1.MIC\AppData\Local\Temp\ccXQZI2W.s 			page 2


  29              	.LCFI0:
  30              		.cfi_def_cfa_offset 8
  31 0004 04008DE5 		str	r0, [sp, #4]
  30:main.c        **** 	int i,j;
  31:main.c        **** 	while(dly--)
  32              		.loc 1 31 0
  33 0008 0500A0E3 		mov	r0, #5
  34              	.LVL1:
  29:main.c        **** {
  35              		.loc 1 29 0
  36 000c 3C109FE5 		ldr	r1, .L8
  37              		.loc 1 31 0
  38 0010 070000EA 		b	.L2
  39              	.L3:
  32:main.c        **** 	{
  33:main.c        **** 		for(i=0;i<5;i++)
  34:main.c        **** 			for(j=0;j<514;j++);
  40              		.loc 1 34 0 discriminator 2
  41 0014 013053E2 		subs	r3, r3, #1
  42 0018 FDFFFF1A 		bne	.L3
  33:main.c        **** 		for(i=0;i<5;i++)
  43              		.loc 1 33 0
  44 001c 012052E2 		subs	r2, r2, #1
  45 0020 0100001A 		bne	.L4
  46 0024 020000EA 		b	.L2
  47              	.LVL2:
  48              	.L5:
  31:main.c        **** 	while(dly--)
  49              		.loc 1 31 0
  50 0028 0020A0E1 		mov	r2, r0
  51              	.L4:
  52              	.LVL3:
  29:main.c        **** {
  53              		.loc 1 29 0 discriminator 1
  54 002c 0130A0E1 		mov	r3, r1
  55 0030 F7FFFFEA 		b	.L3
  56              	.LVL4:
  57              	.L2:
  31:main.c        **** 	while(dly--)
  58              		.loc 1 31 0 discriminator 1
  59 0034 04309DE5 		ldr	r3, [sp, #4]
  60 0038 012043E2 		sub	r2, r3, #1
  61              	.LVL5:
  62 003c 04208DE5 		str	r2, [sp, #4]
  63              	.LVL6:
  64 0040 000053E3 		cmp	r3, #0
  65 0044 F7FFFF1A 		bne	.L5
  35:main.c        **** 	}
  36:main.c        **** }
  66              		.loc 1 36 0
  67 0048 08D08DE2 		add	sp, sp, #8
  68 004c 1EFF2FE1 		bx	lr
  69              	.L9:
  70              		.align	2
  71              	.L8:
  72 0050 02020000 		.word	514
  73              		.cfi_endproc
ARM GAS  C:\Users\ADMINI~1.MIC\AppData\Local\Temp\ccXQZI2W.s 			page 3


  74              	.LFE0:
  75              		.size	delay, .-delay
  76              		.align	2
  77              		.global	do_irq
  78              		.type	do_irq, %function
  79              	do_irq:
  80              	.LFB1:
  37:main.c        **** 
  38:main.c        **** void do_irq(void)
  39:main.c        **** {
  81              		.loc 1 39 0
  82              		.cfi_startproc
  83              		@ Function supports interworking.
  84              		@ args = 0, pretend = 0, frame = 0
  85              		@ frame_needed = 0, uses_anonymous_args = 0
  86              		@ link register save eliminated.
  40:main.c        **** 	int irq_num;
  41:main.c        **** 	irq_num = (REG_READ(ICCIAR_CPU0)) & 0x3ff;//获取中断号
  87              		.loc 1 41 0
  88 0054 80309FE5 		ldr	r3, .L15
  89 0058 0C2093E5 		ldr	r2, [r3, #12]
  90 005c 022BA0E1 		mov	r2, r2, asl #22
  91 0060 222BA0E1 		mov	r2, r2, lsr #22
  92              	.LVL7:
  42:main.c        **** 
  43:main.c        **** 	switch(irq_num)
  93              		.loc 1 43 0
  94 0064 390052E3 		cmp	r2, #57
  95 0068 1400001A 		bne	.L11
  44:main.c        **** 	{
  45:main.c        **** 		case 57:
  46:main.c        **** 			if(status == 0)
  96              		.loc 1 46 0
  97 006c 6C309FE5 		ldr	r3, .L15+4
  98 0070 003093E5 		ldr	r3, [r3, #0]
  99 0074 000053E3 		cmp	r3, #0
  47:main.c        **** 			{//亮
  48:main.c        **** 				REG_WRITE(GPX2DAT,REG_READ(GPX2DAT) & (~(0x1<<7)) | (0x1<<7));
 100              		.loc 1 48 0
 101 0078 1134A0E3 		mov	r3, #285212672
 102 007c 441C93E5 		ldr	r1, [r3, #3140]
 103 0080 80108103 		orreq	r1, r1, #128
 104 0084 441C8305 		streq	r1, [r3, #3140]
  49:main.c        **** 				status = 1;
 105              		.loc 1 49 0
 106 0088 0110A003 		moveq	r1, #1
  50:main.c        **** 			}else{
  51:main.c        **** 			  //灭
  52:main.c        **** 			   REG_WRITE(GPX2DAT,REG_READ(GPX2DAT) & (~(0x1<<7)));
 107              		.loc 1 52 0
 108 008c 8010C113 		bicne	r1, r1, #128
 109 0090 441C8315 		strne	r1, [r3, #3140]
  53:main.c        **** 			   status = 0;
 110              		.loc 1 53 0
 111 0094 0010A013 		movne	r1, #0
 112 0098 40309FE5 		ldr	r3, .L15+4
 113 009c 001083E5 		str	r1, [r3, #0]
ARM GAS  C:\Users\ADMINI~1.MIC\AppData\Local\Temp\ccXQZI2W.s 			page 4


  54:main.c        **** 			}
  55:main.c        **** 			//clear pend
  56:main.c        **** 			REG_WRITE(EXT_INT41_PEND,REG_READ(EXT_INT41_PEND) | (1 << 1));
 114              		.loc 1 56 0
 115 00a0 1134A0E3 		mov	r3, #285212672
 116 00a4 441F93E5 		ldr	r1, [r3, #3908]
 117 00a8 021081E3 		orr	r1, r1, #2
 118 00ac 441F83E5 		str	r1, [r3, #3908]
  57:main.c        **** 			REG_WRITE(ICDICPR1_CPU0,REG_READ(ICDICPR1_CPU0) | (1 << 25));
 119              		.loc 1 57 0
 120 00b0 B73843E2 		sub	r3, r3, #11993088
 121 00b4 841293E5 		ldr	r1, [r3, #644]
 122 00b8 021481E3 		orr	r1, r1, #33554432
 123 00bc 841283E5 		str	r1, [r3, #644]
 124              	.L11:
  58:main.c        **** 			break;
  59:main.c        **** 		default:
  60:main.c        **** 			break;
  61:main.c        **** 	}
  62:main.c        **** 	//clear cpu0 interrupt
  63:main.c        **** 	REG_WRITE(ICCEOIR_CPU0,(REG_READ(ICCEOIR_CPU0) & (~(0x3ff)) | irq_num ));
 125              		.loc 1 63 0
 126 00c0 14309FE5 		ldr	r3, .L15
 127 00c4 101093E5 		ldr	r1, [r3, #16]
 128 00c8 FF1FC1E3 		bic	r1, r1, #1020
 129 00cc 0310C1E3 		bic	r1, r1, #3
 130 00d0 012082E1 		orr	r2, r2, r1
 131              	.LVL8:
 132 00d4 102083E5 		str	r2, [r3, #16]
  64:main.c        **** }
 133              		.loc 1 64 0
 134 00d8 1EFF2FE1 		bx	lr
 135              	.L16:
 136              		.align	2
 137              	.L15:
 138 00dc 00004810 		.word	273154048
 139 00e0 00000000 		.word	.LANCHOR0
 140              		.cfi_endproc
 141              	.LFE1:
 142              		.size	do_irq, .-do_irq
 143              		.align	2
 144              		.global	main
 145              		.type	main, %function
 146              	main:
 147              	.LFB2:
  65:main.c        **** 
  66:main.c        **** int main(void)
  67:main.c        **** {
 148              		.loc 1 67 0
 149              		.cfi_startproc
 150              		@ Function supports interworking.
 151              		@ args = 0, pretend = 0, frame = 0
 152              		@ frame_needed = 1, uses_anonymous_args = 0
 153 00e4 0DC0A0E1 		mov	ip, sp
 154              	.LCFI1:
 155              		.cfi_def_cfa_register 12
 156 00e8 18D82DE9 		stmfd	sp!, {r3, r4, fp, ip, lr, pc}
ARM GAS  C:\Users\ADMINI~1.MIC\AppData\Local\Temp\ccXQZI2W.s 			page 5


 157 00ec 04B04CE2 		sub	fp, ip, #4
 158              		.cfi_offset 14, -8
 159              		.cfi_offset 13, -12
 160              		.cfi_offset 11, -16
 161              		.cfi_offset 4, -20
 162              		.cfi_offset 3, -24
 163              	.LCFI2:
 164              		.cfi_def_cfa 11, 4
  68:main.c        **** 	//GPIO INIT
  69:main.c        **** 	REG_WRITE(GPX1PUD,REG_READ(GPX1PUD)&(~(0X3<<2)));  //禁止上拉下拉
 165              		.loc 1 69 0
 166 00f0 1134A0E3 		mov	r3, #285212672
 167 00f4 282C93E5 		ldr	r2, [r3, #3112]
 168 00f8 0C20C2E3 		bic	r2, r2, #12
 169 00fc 282C83E5 		str	r2, [r3, #3112]
  70:main.c        **** 	REG_WRITE(GPX1CON,REG_READ(GPX1CON)|(0XF<<4));     //设置为外部中断
 170              		.loc 1 70 0
 171 0100 202C93E5 		ldr	r2, [r3, #3104]
 172 0104 F02082E3 		orr	r2, r2, #240
 173 0108 202C83E5 		str	r2, [r3, #3104]
  71:main.c        **** 	REG_WRITE(EXT_INT41_CON,REG_READ(EXT_INT41_CON)&(~(0X7<<4))|(0X2<<4)); //下降沿触发
 174              		.loc 1 71 0
 175 010c 042E93E5 		ldr	r2, [r3, #3588]
 176 0110 7020C2E3 		bic	r2, r2, #112
 177 0114 202082E3 		orr	r2, r2, #32
 178 0118 042E83E5 		str	r2, [r3, #3588]
  72:main.c        **** 	REG_WRITE(EXT_INT41_MASK,REG_READ(EXT_INT41_MASK)&(~(1<<1)));			//设置使能中断
 179              		.loc 1 72 0
 180 011c 042F93E5 		ldr	r2, [r3, #3844]
 181 0120 0220C2E3 		bic	r2, r2, #2
 182 0124 042F83E5 		str	r2, [r3, #3844]
  73:main.c        **** 	//GIC INIT
  74:main.c        **** 	REG_WRITE(ICDDCR,1); //使能GIC
 183              		.loc 1 74 0
 184 0128 64209FE5 		ldr	r2, .L19
 185 012c 0110A0E3 		mov	r1, #1
 186 0130 001082E5 		str	r1, [r2, #0]
  75:main.c        **** 	REG_WRITE(ICDISER1_CPU0,REG_READ(ICDISER1_CPU0)&(~(0X1<<25))|(0X1<<25));	//中断源到分配器
 187              		.loc 1 75 0
 188 0134 040192E5 		ldr	r0, [r2, #260]
 189 0138 020480E3 		orr	r0, r0, #33554432
 190 013c 040182E5 		str	r0, [r2, #260]
  76:main.c        **** 	REG_WRITE(ICDIPTR14_CPU0,REG_READ(ICDIPTR14_CPU0)&(~(0XFF<<8))|1<<8);       //选择CPU接口
 191              		.loc 1 76 0
 192 0140 380892E5 		ldr	r0, [r2, #2104]
 193 0144 FF0CC0E3 		bic	r0, r0, #65280
 194 0148 010C80E3 		orr	r0, r0, #256
 195 014c 380882E5 		str	r0, [r2, #2104]
  77:main.c        **** 	REG_WRITE(ICCICR_CPU0,1);
 196              		.loc 1 77 0
 197 0150 012842E2 		sub	r2, r2, #65536
 198 0154 001082E5 		str	r1, [r2, #0]
  78:main.c        **** 	REG_WRITE(ICCPMR_CPU0,0xff);
 199              		.loc 1 78 0
 200 0158 FF10A0E3 		mov	r1, #255
 201 015c 041082E5 		str	r1, [r2, #4]
  79:main.c        **** 	REG_WRITE(GPX2CON,REG_READ(GPX2CON)&(~(0XF<<28))|(0X1<<28));//设置为输出模式
ARM GAS  C:\Users\ADMINI~1.MIC\AppData\Local\Temp\ccXQZI2W.s 			page 6


 202              		.loc 1 79 0
 203 0160 402C93E5 		ldr	r2, [r3, #3136]
 204 0164 0F22C2E3 		bic	r2, r2, #-268435456
 205 0168 012282E3 		orr	r2, r2, #268435456
 206 016c 402C83E5 		str	r2, [r3, #3136]
  80:main.c        **** 	REG_WRITE(GPX2DAT,REG_READ(GPX2DAT)|(~(0X1<<7))); // LED2灭
 207              		.loc 1 80 0
 208 0170 442C93E5 		ldr	r2, [r3, #3140]
 209 0174 0220E0E1 		mvn	r2, r2
 210 0178 802002E2 		and	r2, r2, #128
 211 017c 0220E0E1 		mvn	r2, r2
 212 0180 442C83E5 		str	r2, [r3, #3140]
  81:main.c        **** 	
  82:main.c        **** 	while(1)
  83:main.c        **** 	{
  84:main.c        **** 	 	delay(10);	
 213              		.loc 1 84 0
 214 0184 0A40A0E3 		mov	r4, #10
 215              	.L18:
 216              		.loc 1 84 0 is_stmt 0 discriminator 1
 217 0188 0400A0E1 		mov	r0, r4
 218 018c FEFFFFEB 		bl	delay
 219 0190 FCFFFFEA 		b	.L18
 220              	.L20:
 221              		.align	2
 222              	.L19:
 223 0194 00004910 		.word	273219584
 224              		.cfi_endproc
 225              	.LFE2:
 226              		.size	main, .-main
 227              		.global	status
 228              		.bss
 229              		.align	2
 230              		.set	.LANCHOR0,. + 0
 231              		.type	status, %object
 232              		.size	status, 4
 233              	status:
 234 0000 00000000 		.space	4
 235              		.text
 236              	.Letext0:
 237              		.section	.debug_info,"",%progbits
 238              	.Ldebug_info0:
 239 0000 D4000000 		.4byte	0xd4
 240 0004 0200     		.2byte	0x2
 241 0006 00000000 		.4byte	.Ldebug_abbrev0
 242 000a 04       		.byte	0x4
 243 000b 01       		.uleb128 0x1
 244 000c 49000000 		.4byte	.LASF5
 245 0010 01       		.byte	0x1
 246 0011 3C000000 		.4byte	.LASF6
 247 0015 00000000 		.4byte	.LASF7
 248 0019 00000000 		.4byte	.Ltext0
 249 001d 98010000 		.4byte	.Letext0
 250 0021 00000000 		.4byte	.Ldebug_line0
 251 0025 02       		.uleb128 0x2
 252 0026 01       		.byte	0x1
 253 0027 43000000 		.4byte	.LASF1
ARM GAS  C:\Users\ADMINI~1.MIC\AppData\Local\Temp\ccXQZI2W.s 			page 7


 254 002b 01       		.byte	0x1
 255 002c 1C       		.byte	0x1c
 256 002d 01       		.byte	0x1
 257 002e 00000000 		.4byte	.LFB0
 258 0032 54000000 		.4byte	.LFE0
 259 0036 00000000 		.4byte	.LLST0
 260 003a 64000000 		.4byte	0x64
 261 003e 03       		.uleb128 0x3
 262 003f 646C7900 		.ascii	"dly\000"
 263 0043 01       		.byte	0x1
 264 0044 1C       		.byte	0x1c
 265 0045 64000000 		.4byte	0x64
 266 0049 20000000 		.4byte	.LLST1
 267 004d 04       		.uleb128 0x4
 268 004e 6900     		.ascii	"i\000"
 269 0050 01       		.byte	0x1
 270 0051 1E       		.byte	0x1e
 271 0052 70000000 		.4byte	0x70
 272 0056 05       		.uleb128 0x5
 273 0057 6A00     		.ascii	"j\000"
 274 0059 01       		.byte	0x1
 275 005a 1E       		.byte	0x1e
 276 005b 70000000 		.4byte	0x70
 277 005f 4A000000 		.4byte	.LLST2
 278 0063 00       		.byte	0
 279 0064 06       		.uleb128 0x6
 280 0065 69000000 		.4byte	0x69
 281 0069 07       		.uleb128 0x7
 282 006a 04       		.byte	0x4
 283 006b 07       		.byte	0x7
 284 006c 5A000000 		.4byte	.LASF0
 285 0070 08       		.uleb128 0x8
 286 0071 04       		.byte	0x4
 287 0072 05       		.byte	0x5
 288 0073 696E7400 		.ascii	"int\000"
 289 0077 09       		.uleb128 0x9
 290 0078 01       		.byte	0x1
 291 0079 6C000000 		.4byte	.LASF2
 292 007d 01       		.byte	0x1
 293 007e 26       		.byte	0x26
 294 007f 01       		.byte	0x1
 295 0080 54000000 		.4byte	.LFB1
 296 0084 E4000000 		.4byte	.LFE1
 297 0088 02       		.byte	0x2
 298 0089 7D       		.byte	0x7d
 299 008a 00       		.sleb128 0
 300 008b 9F000000 		.4byte	0x9f
 301 008f 0A       		.uleb128 0xa
 302 0090 2D000000 		.4byte	.LASF3
 303 0094 01       		.byte	0x1
 304 0095 28       		.byte	0x28
 305 0096 70000000 		.4byte	0x70
 306 009a 5E000000 		.4byte	.LLST3
 307 009e 00       		.byte	0
 308 009f 0B       		.uleb128 0xb
 309 00a0 01       		.byte	0x1
 310 00a1 55000000 		.4byte	.LASF8
ARM GAS  C:\Users\ADMINI~1.MIC\AppData\Local\Temp\ccXQZI2W.s 			page 8


 311 00a5 01       		.byte	0x1
 312 00a6 42       		.byte	0x42
 313 00a7 01       		.byte	0x1
 314 00a8 70000000 		.4byte	0x70
 315 00ac E4000000 		.4byte	.LFB2
 316 00b0 98010000 		.4byte	.LFE2
 317 00b4 71000000 		.4byte	.LLST4
 318 00b8 0C       		.uleb128 0xc
 319 00b9 35000000 		.4byte	.LASF4
 320 00bd 01       		.byte	0x1
 321 00be 19       		.byte	0x19
 322 00bf 70000000 		.4byte	0x70
 323 00c3 01       		.byte	0x1
 324 00c4 01       		.byte	0x1
 325 00c5 0D       		.uleb128 0xd
 326 00c6 35000000 		.4byte	.LASF4
 327 00ca 01       		.byte	0x1
 328 00cb 19       		.byte	0x19
 329 00cc 70000000 		.4byte	0x70
 330 00d0 01       		.byte	0x1
 331 00d1 05       		.byte	0x5
 332 00d2 03       		.byte	0x3
 333 00d3 00000000 		.4byte	status
 334 00d7 00       		.byte	0
 335              		.section	.debug_abbrev,"",%progbits
 336              	.Ldebug_abbrev0:
 337 0000 01       		.uleb128 0x1
 338 0001 11       		.uleb128 0x11
 339 0002 01       		.byte	0x1
 340 0003 25       		.uleb128 0x25
 341 0004 0E       		.uleb128 0xe
 342 0005 13       		.uleb128 0x13
 343 0006 0B       		.uleb128 0xb
 344 0007 03       		.uleb128 0x3
 345 0008 0E       		.uleb128 0xe
 346 0009 1B       		.uleb128 0x1b
 347 000a 0E       		.uleb128 0xe
 348 000b 11       		.uleb128 0x11
 349 000c 01       		.uleb128 0x1
 350 000d 12       		.uleb128 0x12
 351 000e 01       		.uleb128 0x1
 352 000f 10       		.uleb128 0x10
 353 0010 06       		.uleb128 0x6
 354 0011 00       		.byte	0
 355 0012 00       		.byte	0
 356 0013 02       		.uleb128 0x2
 357 0014 2E       		.uleb128 0x2e
 358 0015 01       		.byte	0x1
 359 0016 3F       		.uleb128 0x3f
 360 0017 0C       		.uleb128 0xc
 361 0018 03       		.uleb128 0x3
 362 0019 0E       		.uleb128 0xe
 363 001a 3A       		.uleb128 0x3a
 364 001b 0B       		.uleb128 0xb
 365 001c 3B       		.uleb128 0x3b
 366 001d 0B       		.uleb128 0xb
 367 001e 27       		.uleb128 0x27
ARM GAS  C:\Users\ADMINI~1.MIC\AppData\Local\Temp\ccXQZI2W.s 			page 9


 368 001f 0C       		.uleb128 0xc
 369 0020 11       		.uleb128 0x11
 370 0021 01       		.uleb128 0x1
 371 0022 12       		.uleb128 0x12
 372 0023 01       		.uleb128 0x1
 373 0024 40       		.uleb128 0x40
 374 0025 06       		.uleb128 0x6
 375 0026 01       		.uleb128 0x1
 376 0027 13       		.uleb128 0x13
 377 0028 00       		.byte	0
 378 0029 00       		.byte	0
 379 002a 03       		.uleb128 0x3
 380 002b 05       		.uleb128 0x5
 381 002c 00       		.byte	0
 382 002d 03       		.uleb128 0x3
 383 002e 08       		.uleb128 0x8
 384 002f 3A       		.uleb128 0x3a
 385 0030 0B       		.uleb128 0xb
 386 0031 3B       		.uleb128 0x3b
 387 0032 0B       		.uleb128 0xb
 388 0033 49       		.uleb128 0x49
 389 0034 13       		.uleb128 0x13
 390 0035 02       		.uleb128 0x2
 391 0036 06       		.uleb128 0x6
 392 0037 00       		.byte	0
 393 0038 00       		.byte	0
 394 0039 04       		.uleb128 0x4
 395 003a 34       		.uleb128 0x34
 396 003b 00       		.byte	0
 397 003c 03       		.uleb128 0x3
 398 003d 08       		.uleb128 0x8
 399 003e 3A       		.uleb128 0x3a
 400 003f 0B       		.uleb128 0xb
 401 0040 3B       		.uleb128 0x3b
 402 0041 0B       		.uleb128 0xb
 403 0042 49       		.uleb128 0x49
 404 0043 13       		.uleb128 0x13
 405 0044 00       		.byte	0
 406 0045 00       		.byte	0
 407 0046 05       		.uleb128 0x5
 408 0047 34       		.uleb128 0x34
 409 0048 00       		.byte	0
 410 0049 03       		.uleb128 0x3
 411 004a 08       		.uleb128 0x8
 412 004b 3A       		.uleb128 0x3a
 413 004c 0B       		.uleb128 0xb
 414 004d 3B       		.uleb128 0x3b
 415 004e 0B       		.uleb128 0xb
 416 004f 49       		.uleb128 0x49
 417 0050 13       		.uleb128 0x13
 418 0051 02       		.uleb128 0x2
 419 0052 06       		.uleb128 0x6
 420 0053 00       		.byte	0
 421 0054 00       		.byte	0
 422 0055 06       		.uleb128 0x6
 423 0056 35       		.uleb128 0x35
 424 0057 00       		.byte	0
ARM GAS  C:\Users\ADMINI~1.MIC\AppData\Local\Temp\ccXQZI2W.s 			page 10


 425 0058 49       		.uleb128 0x49
 426 0059 13       		.uleb128 0x13
 427 005a 00       		.byte	0
 428 005b 00       		.byte	0
 429 005c 07       		.uleb128 0x7
 430 005d 24       		.uleb128 0x24
 431 005e 00       		.byte	0
 432 005f 0B       		.uleb128 0xb
 433 0060 0B       		.uleb128 0xb
 434 0061 3E       		.uleb128 0x3e
 435 0062 0B       		.uleb128 0xb
 436 0063 03       		.uleb128 0x3
 437 0064 0E       		.uleb128 0xe
 438 0065 00       		.byte	0
 439 0066 00       		.byte	0
 440 0067 08       		.uleb128 0x8
 441 0068 24       		.uleb128 0x24
 442 0069 00       		.byte	0
 443 006a 0B       		.uleb128 0xb
 444 006b 0B       		.uleb128 0xb
 445 006c 3E       		.uleb128 0x3e
 446 006d 0B       		.uleb128 0xb
 447 006e 03       		.uleb128 0x3
 448 006f 08       		.uleb128 0x8
 449 0070 00       		.byte	0
 450 0071 00       		.byte	0
 451 0072 09       		.uleb128 0x9
 452 0073 2E       		.uleb128 0x2e
 453 0074 01       		.byte	0x1
 454 0075 3F       		.uleb128 0x3f
 455 0076 0C       		.uleb128 0xc
 456 0077 03       		.uleb128 0x3
 457 0078 0E       		.uleb128 0xe
 458 0079 3A       		.uleb128 0x3a
 459 007a 0B       		.uleb128 0xb
 460 007b 3B       		.uleb128 0x3b
 461 007c 0B       		.uleb128 0xb
 462 007d 27       		.uleb128 0x27
 463 007e 0C       		.uleb128 0xc
 464 007f 11       		.uleb128 0x11
 465 0080 01       		.uleb128 0x1
 466 0081 12       		.uleb128 0x12
 467 0082 01       		.uleb128 0x1
 468 0083 40       		.uleb128 0x40
 469 0084 0A       		.uleb128 0xa
 470 0085 01       		.uleb128 0x1
 471 0086 13       		.uleb128 0x13
 472 0087 00       		.byte	0
 473 0088 00       		.byte	0
 474 0089 0A       		.uleb128 0xa
 475 008a 34       		.uleb128 0x34
 476 008b 00       		.byte	0
 477 008c 03       		.uleb128 0x3
 478 008d 0E       		.uleb128 0xe
 479 008e 3A       		.uleb128 0x3a
 480 008f 0B       		.uleb128 0xb
 481 0090 3B       		.uleb128 0x3b
ARM GAS  C:\Users\ADMINI~1.MIC\AppData\Local\Temp\ccXQZI2W.s 			page 11


 482 0091 0B       		.uleb128 0xb
 483 0092 49       		.uleb128 0x49
 484 0093 13       		.uleb128 0x13
 485 0094 02       		.uleb128 0x2
 486 0095 06       		.uleb128 0x6
 487 0096 00       		.byte	0
 488 0097 00       		.byte	0
 489 0098 0B       		.uleb128 0xb
 490 0099 2E       		.uleb128 0x2e
 491 009a 00       		.byte	0
 492 009b 3F       		.uleb128 0x3f
 493 009c 0C       		.uleb128 0xc
 494 009d 03       		.uleb128 0x3
 495 009e 0E       		.uleb128 0xe
 496 009f 3A       		.uleb128 0x3a
 497 00a0 0B       		.uleb128 0xb
 498 00a1 3B       		.uleb128 0x3b
 499 00a2 0B       		.uleb128 0xb
 500 00a3 27       		.uleb128 0x27
 501 00a4 0C       		.uleb128 0xc
 502 00a5 49       		.uleb128 0x49
 503 00a6 13       		.uleb128 0x13
 504 00a7 11       		.uleb128 0x11
 505 00a8 01       		.uleb128 0x1
 506 00a9 12       		.uleb128 0x12
 507 00aa 01       		.uleb128 0x1
 508 00ab 40       		.uleb128 0x40
 509 00ac 06       		.uleb128 0x6
 510 00ad 00       		.byte	0
 511 00ae 00       		.byte	0
 512 00af 0C       		.uleb128 0xc
 513 00b0 34       		.uleb128 0x34
 514 00b1 00       		.byte	0
 515 00b2 03       		.uleb128 0x3
 516 00b3 0E       		.uleb128 0xe
 517 00b4 3A       		.uleb128 0x3a
 518 00b5 0B       		.uleb128 0xb
 519 00b6 3B       		.uleb128 0x3b
 520 00b7 0B       		.uleb128 0xb
 521 00b8 49       		.uleb128 0x49
 522 00b9 13       		.uleb128 0x13
 523 00ba 3F       		.uleb128 0x3f
 524 00bb 0C       		.uleb128 0xc
 525 00bc 3C       		.uleb128 0x3c
 526 00bd 0C       		.uleb128 0xc
 527 00be 00       		.byte	0
 528 00bf 00       		.byte	0
 529 00c0 0D       		.uleb128 0xd
 530 00c1 34       		.uleb128 0x34
 531 00c2 00       		.byte	0
 532 00c3 03       		.uleb128 0x3
 533 00c4 0E       		.uleb128 0xe
 534 00c5 3A       		.uleb128 0x3a
 535 00c6 0B       		.uleb128 0xb
 536 00c7 3B       		.uleb128 0x3b
 537 00c8 0B       		.uleb128 0xb
 538 00c9 49       		.uleb128 0x49
ARM GAS  C:\Users\ADMINI~1.MIC\AppData\Local\Temp\ccXQZI2W.s 			page 12


 539 00ca 13       		.uleb128 0x13
 540 00cb 3F       		.uleb128 0x3f
 541 00cc 0C       		.uleb128 0xc
 542 00cd 02       		.uleb128 0x2
 543 00ce 0A       		.uleb128 0xa
 544 00cf 00       		.byte	0
 545 00d0 00       		.byte	0
 546 00d1 00       		.byte	0
 547              		.section	.debug_loc,"",%progbits
 548              	.Ldebug_loc0:
 549              	.LLST0:
 550 0000 00000000 		.4byte	.LFB0-.Ltext0
 551 0004 04000000 		.4byte	.LCFI0-.Ltext0
 552 0008 0200     		.2byte	0x2
 553 000a 7D       		.byte	0x7d
 554 000b 00       		.sleb128 0
 555 000c 04000000 		.4byte	.LCFI0-.Ltext0
 556 0010 54000000 		.4byte	.LFE0-.Ltext0
 557 0014 0200     		.2byte	0x2
 558 0016 7D       		.byte	0x7d
 559 0017 08       		.sleb128 8
 560 0018 00000000 		.4byte	0
 561 001c 00000000 		.4byte	0
 562              	.LLST1:
 563 0020 00000000 		.4byte	.LVL0-.Ltext0
 564 0024 0C000000 		.4byte	.LVL1-.Ltext0
 565 0028 0100     		.2byte	0x1
 566 002a 50       		.byte	0x50
 567 002b 0C000000 		.4byte	.LVL1-.Ltext0
 568 002f 3C000000 		.4byte	.LVL5-.Ltext0
 569 0033 0200     		.2byte	0x2
 570 0035 91       		.byte	0x91
 571 0036 74       		.sleb128 -12
 572 0037 40000000 		.4byte	.LVL6-.Ltext0
 573 003b 54000000 		.4byte	.LFE0-.Ltext0
 574 003f 0100     		.2byte	0x1
 575 0041 52       		.byte	0x52
 576 0042 00000000 		.4byte	0
 577 0046 00000000 		.4byte	0
 578              	.LLST2:
 579 004a 2C000000 		.4byte	.LVL3-.Ltext0
 580 004e 34000000 		.4byte	.LVL4-.Ltext0
 581 0052 0200     		.2byte	0x2
 582 0054 30       		.byte	0x30
 583 0055 9F       		.byte	0x9f
 584 0056 00000000 		.4byte	0
 585 005a 00000000 		.4byte	0
 586              	.LLST3:
 587 005e 64000000 		.4byte	.LVL7-.Ltext0
 588 0062 D4000000 		.4byte	.LVL8-.Ltext0
 589 0066 0100     		.2byte	0x1
 590 0068 52       		.byte	0x52
 591 0069 00000000 		.4byte	0
 592 006d 00000000 		.4byte	0
 593              	.LLST4:
 594 0071 E4000000 		.4byte	.LFB2-.Ltext0
 595 0075 E8000000 		.4byte	.LCFI1-.Ltext0
ARM GAS  C:\Users\ADMINI~1.MIC\AppData\Local\Temp\ccXQZI2W.s 			page 13


 596 0079 0200     		.2byte	0x2
 597 007b 7D       		.byte	0x7d
 598 007c 00       		.sleb128 0
 599 007d E8000000 		.4byte	.LCFI1-.Ltext0
 600 0081 F0000000 		.4byte	.LCFI2-.Ltext0
 601 0085 0200     		.2byte	0x2
 602 0087 7C       		.byte	0x7c
 603 0088 00       		.sleb128 0
 604 0089 F0000000 		.4byte	.LCFI2-.Ltext0
 605 008d 98010000 		.4byte	.LFE2-.Ltext0
 606 0091 0200     		.2byte	0x2
 607 0093 7B       		.byte	0x7b
 608 0094 04       		.sleb128 4
 609 0095 00000000 		.4byte	0
 610 0099 00000000 		.4byte	0
 611              		.section	.debug_aranges,"",%progbits
 612 0000 1C000000 		.4byte	0x1c
 613 0004 0200     		.2byte	0x2
 614 0006 00000000 		.4byte	.Ldebug_info0
 615 000a 04       		.byte	0x4
 616 000b 00       		.byte	0
 617 000c 0000     		.2byte	0
 618 000e 0000     		.2byte	0
 619 0010 00000000 		.4byte	.Ltext0
 620 0014 98010000 		.4byte	.Letext0-.Ltext0
 621 0018 00000000 		.4byte	0
 622 001c 00000000 		.4byte	0
 623              		.section	.debug_line,"",%progbits
 624              	.Ldebug_line0:
 625 0000 66000000 		.section	.debug_str,"MS",%progbits,1
 625      02001D00 
 625      00000201 
 625      FB0E0D00 
 625      01010101 
 626              	.LASF7:
 627 0000 493A5C63 		.ascii	"I:\\cwy\\16071\\16071-ARM\\code\\project\\key_eint\000"
 627      77795C31 
 627      36303731 
 627      5C313630 
 627      37312D41 
 628              	.LASF3:
 629 002d 6972715F 		.ascii	"irq_num\000"
 629      6E756D00 
 630              	.LASF4:
 631 0035 73746174 		.ascii	"status\000"
 631      757300
 632              	.LASF6:
 633 003c 6D61696E 		.ascii	"main.c\000"
 633      2E6300
 634              	.LASF1:
 635 0043 64656C61 		.ascii	"delay\000"
 635      7900
 636              	.LASF5:
 637 0049 474E5520 		.ascii	"GNU C 4.6.2\000"
 637      4320342E 
 637      362E3200 
 638              	.LASF8:
ARM GAS  C:\Users\ADMINI~1.MIC\AppData\Local\Temp\ccXQZI2W.s 			page 14


 639 0055 6D61696E 		.ascii	"main\000"
 639      00
 640              	.LASF0:
 641 005a 6C6F6E67 		.ascii	"long unsigned int\000"
 641      20756E73 
 641      69676E65 
 641      6420696E 
 641      7400
 642              	.LASF2:
 643 006c 646F5F69 		.ascii	"do_irq\000"
 643      727100
 644              		.ident	"GCC: (GNU) 4.6.2"
ARM GAS  C:\Users\ADMINI~1.MIC\AppData\Local\Temp\ccXQZI2W.s 			page 15


DEFINED SYMBOLS
                            *ABS*:00000000 main.c
C:\Users\ADMINI~1.MIC\AppData\Local\Temp\ccXQZI2W.s:15     .text:00000000 $a
C:\Users\ADMINI~1.MIC\AppData\Local\Temp\ccXQZI2W.s:18     .text:00000000 delay
C:\Users\ADMINI~1.MIC\AppData\Local\Temp\ccXQZI2W.s:72     .text:00000050 $d
C:\Users\ADMINI~1.MIC\AppData\Local\Temp\ccXQZI2W.s:76     .text:00000054 $a
C:\Users\ADMINI~1.MIC\AppData\Local\Temp\ccXQZI2W.s:79     .text:00000054 do_irq
C:\Users\ADMINI~1.MIC\AppData\Local\Temp\ccXQZI2W.s:138    .text:000000dc $d
C:\Users\ADMINI~1.MIC\AppData\Local\Temp\ccXQZI2W.s:143    .text:000000e4 $a
C:\Users\ADMINI~1.MIC\AppData\Local\Temp\ccXQZI2W.s:146    .text:000000e4 main
C:\Users\ADMINI~1.MIC\AppData\Local\Temp\ccXQZI2W.s:223    .text:00000194 $d
C:\Users\ADMINI~1.MIC\AppData\Local\Temp\ccXQZI2W.s:233    .bss:00000000 status
C:\Users\ADMINI~1.MIC\AppData\Local\Temp\ccXQZI2W.s:229    .bss:00000000 $d
                     .debug_frame:00000010 $d

NO UNDEFINED SYMBOLS
