ARM GAS  C:\Users\ADMINI~1.MIC\AppData\Local\Temp\ccXQZI2W.s 			page 1


   1              		.cpu arm7tdmi
   2              		.fpu softvfp
   3              		.eabi_attribute 20, 1
   4              		.eabi_attribute 21, 1
   5              		.eabi_attribute 23, 3
   6              		.eabi_attribute 24, 1
   7              		.eabi_attribute 25, 1
   8              		.eabi_attribute 26, 1
   9              		.eabi_attribute 30, 1
  10              		.eabi_attribute 18, 4
  11              		.file	"main.c"
  12              		.text
  13              	.Ltext0:
  14              		.cfi_sections	.debug_frame
  15              		.align	2
  16              		.global	delay
  17              		.type	delay, %function
  18              	delay:
  19              	.LFB0:
  20              		.file 1 "main.c"
   1:main.c        **** #define GPX2CON 0x11000c40	//灯
   2:main.c        **** #define GPX2DAT 0x11000c44
   3:main.c        **** 
   4:main.c        **** #define GPX1CON 0x11000c20	//按键	INIT
   5:main.c        **** #define GPX1DAT 0x11000c24
   6:main.c        **** #define GPX1PUD 0x11000c28
   7:main.c        **** #define EXT_INT41_CON 0x11000e04
   8:main.c        **** #define EXT_INT41_MASK 0x11000f04
   9:main.c        **** #define EXT_INT41_PEND 0x11000f44
  10:main.c        **** 
  11:main.c        **** #define ICDDCR 0x10490000		//GIC  
  12:main.c        **** #define ICDISER1_CPU0 0x10490104
  13:main.c        **** #define ICDIPTR14_CPU0 0x10490838
  14:main.c        **** #define ICCICR_CPU0  0x10480000
  15:main.c        **** #define ICCPMR_CPU0  0x10480004
  16:main.c        **** #define ICCIAR_CPU0	 0x1048000c
  17:main.c        **** #define ICDICPR1_CPU0 0x10490284
  18:main.c        **** #define ICCEOIR_CPU0 0x10480010
  19:main.c        **** //#define GPF3CON 0x114001E0
  20:main.c        **** //#define GPF3DAT 0x114001E4
  21:main.c        **** 
  22:main.c        **** #define REG_READ(addr) (*(volatile unsigned int *)(addr))
  23:main.c        **** #define REG_WRITE(addr,val) (*(volatile unsigned int *)(addr)=(val))
  24:main.c        **** 
  25:main.c        **** int status=0;
  26:main.c        **** 				
  27:main.c        **** 
  28:main.c        **** void delay(volatile unsigned long dly)
  29:main.c        **** {
  21              		.loc 1 29 0
  22              		.cfi_startproc
  23              		@ Function supports interworking.
  24              		@ args = 0, pretend = 0, frame = 8
  25              		@ frame_needed = 0, uses_anonymous_args = 0
  26              		@ link register save eliminated.
  27              	.LVL0:
  28 0000 08D04DE2 		sub	sp, sp, #8
ARM GAS  C:\Users\ADMINI~1.MIC\AppData\Local\Temp\ccXQZI2W.s 			page 2


  29              	.LCFI0:
  30              		.cfi_def_cfa_offset 8
  31 0004 04008DE5 		str	r0, [sp, #4]
  30:main.c        **** 	int i,j;
  31:main.c        **** 	while(dly--)
  32              		.loc 1 31 0
  33 0008 0500A0E3 		mov	r0, #5
  34              	.LVL1:
  29:main.c        **** {
  35              		.loc 1 29 0
  36 000c 3C109FE5 		ldr	r1, .L8
  37              		.loc 1 31 0
  38 0010 070000EA 		b	.L2
  39              	.L3:
  32:main.c        **** 	{
  33:main.c        **** 		for(i=0;i<5;i++)
  34:main.c        **** 			for(j=0;j<514;j++);
  40              		.loc 1 34 0 discriminator 2
  41 0014 013053E2 		subs	r3, r3, #1
  42 0018 FDFFFF1A 		bne	.L3
  33:main.c        **** 		for(i=0;i<5;i++)
  43              		.loc 1 33 0
  44 001c 012052E2 		subs	r2, r2, #1
  45 0020 0100001A 		bne	.L4
  46 0024 020000EA 		b	.L2
  47              	.LVL2:
  48              	.L5:
  31:main.c        **** 	while(dly--)
  49              		.loc 1 31 0
  50 0028 0020A0E1 		mov	r2, r0
  51              	.L4:
  52              	.LVL3:
  29:main.c        **** {
  53              		.loc 1 29 0 discriminator 1
  54 002c 0130A0E1 		mov	r3, r1
  55 0030 F7FFFFEA 		b	.L3
  56              	.LVL4:
  57              	.L2:
  31:main.c        **** 	while(dly--)
  58              		.loc 1 31 0 discriminator 1
  59 0034 04309DE5 		ldr	r3, [sp, #4]
  60 0038 012043E2 		sub	r2, r3, #1
  61              	.LVL5:
  62 003c 04208DE5 		str	r2, [sp, #4]
  63              	.LVL6:
  64 0040 000053E3 		cmp	r3, #0
  65 0044 F7FFFF1A 		bne	.L5
  35:main.c        **** 	}
  36:main.c        **** }
  66              		.loc 1 36 0
  67 0048 08D08DE2 		add	sp, sp, #8
  68 004c 1EFF2FE1 		bx	lr
  69              	.L9:
  70              		.align	2
  71              	.L8:
  72 0050 02020000 		.word	514
  73              		.cfi_endproc
ARM GAS  C:\Users\ADMINI~1.MIC\AppData\Local\Temp\ccXQZI2W.s 			page 3


  74              	.LFE0:
  75              		.size	delay, .-delay
  76              		.align	2
  77              		.global	do_irq
  78              		.type	do_irq, %function
  79              	do_irq:
  80              	.LFB1:
  37:main.c        **** 
  38:main.c        **** void do_irq(void)
  39:main.c        **** {
  81              		.loc 1 39 0
  82              		.cfi_startproc
  83              		@ Function supports interworking.
  84              		@ args = 0, pretend = 0, frame = 0
  85              		@ frame_needed = 0, uses_anonymous_args = 0
  86              		@ link register save eliminated.
  40:main.c        **** 	int irq_num;
  41:main.c        **** 	irq_num = (REG_READ(ICCIAR_CPU0)) & 0x3ff;//获取中断号
  87              		.loc 1 41 0
  88 0054 80309FE5 		ldr	r3, .L15
  89 0058 0C2093E5 		ldr	r2, [r3, #12]
  90 005c 022BA0E1 		mov	r2, r2, asl #22
  91 0060 222BA0E1 		mov	r2, r2, lsr #22
  92              	.LVL7:
  42:main.c        **** 
  43:main.c        **** 	switch(irq_num)
  93              		.loc 1 43 0
  94 0064 390052E3 		cmp	r2, #57
  95 0068 1400001A 		bne	.L11
  44:main.c        **** 	{
  45:main.c        **** 		case 57:
  46:main.c        **** 			if(status == 0)
  96              		.loc 1 46 0
  97 006c 6C309FE5 		ldr	r3, .L15+4
  98 0070 003093E5 		ldr	r3, [r3, #0]
  99 0074 000053E3 		cmp	r3, #0
  47:main.c        **** 			{//亮
  48:main.c        **** 				REG_WRITE(GPX2DAT,REG_READ(GPX2DAT) & (~(0x1<<7)) | (0x1<<7));
 100              		.loc 1 48 0
 101 0078 1134A0E3 		mov	r3, #285212672
 102 007c 441C93E5 		ldr	r1, [r3, #3140]
 103 0080 80108103 		orreq	r1, r1, #128
 104 0084 441C8305 		streq	r1, [r3, #3140]
  49:main.c        **** 				status = 1;
 105              		.loc 1 49 0
 106 0088 0110A003 		moveq	r1, #1
  50:main.c        **** 			}else{
  51:main.c        **** 			  //灭
  52:main.c        **** 			   REG_WRITE(GPX2DAT,REG_READ(GPX2DAT) & (~(0x1<<7)));
 107              		.loc 1 52 0
 108 008c 8010C113 		bicne	r1, r1, #128
 109 0090 441C8315 		strne	r1, [r3, #3140]
  53:main.c        **** 			   status = 0;
 110              		.loc 1 53 0
 111 0094 0010A013 		movne	r1, #0
 112 0098 40309FE5 		ldr	r3, .L15+4
 113 009c 001083E5 		str	r1, [r3, #0]
ARM GAS  C:\Users\ADMINI~1.MIC\AppData\Local\Temp\ccXQZI2W.s 			page 4


  54:main.c        **** 			}
  55:main.c        **** 			//clear pend
  56:main.c        **** 			REG_WRITE(EXT_INT41_PEND,REG_READ(EXT_INT41_PEND) | (1 << 1));
 114              		.loc 1 56 0
 115 00a0 1134A0E3 		mov	r3, #285212672
 116 00a4 441F93E5 		ldr	r1, [r3, #3908]
 117 00a8 021081E3 		orr	r1, r1, #2
 118 00ac 441F83E5 		str	r1, [r3, #3908]
  57:main.c        **** 			REG_WRITE(ICDICPR1_CPU0,REG_READ(ICDICPR1_CPU0) | (1 << 25));
 119              		.loc 1 57 0
 120 00b0 B73843E2 		sub	r3, r3, #11993088
 121 00b4 841293E5 		ldr	r1, [r3, #644]
 122 00b8 021481E3 		orr	r1, r1, #33554432
 123 00bc 841283E5 		str	r1, [r3, #644]
 124              	.L11:
  58:main.c        **** 			break;
  59:main.c        **** 		default:
  60:main.c        **** 			break;
  61:main.c        **** 	}
  62:main.c        **** 	//clear cpu0 interrupt
  63:main.c        **** 	REG_WRITE(ICCEOIR_CPU0,(REG_READ(ICCEOIR_CPU0) & (~(0x3ff)) | irq_num ));
 125              		.loc 1 63 0
 126 00c0 14309FE5 		ldr	r3, .L15
 127 00c4 101093E5 		ldr	r1, [r3, #16]
 128 00c8 FF1FC1E3 		bic	r1, r1, #1020
 129 00cc 0310C1E3 		bic	r1, r1, #3
 130 00d0 012082E1 		orr	r2, r2, r1
 131              	.LVL8:
 132 00d4 102083E5 		str	r2, [r3, #16]
  64:main.c        **** }
 133              		.loc 1 64 0
 134 00d8 1EFF2FE1 		bx	lr
 135              	.L16:
 136              		.align	2
 137              	.L15:
 138 00dc 00004810 		.word	273154048
 139 00e0 00000000 		.word	.LANCHOR0
 140              		.cfi_endproc
 141              	.LFE1:
 142              		.size	do_irq, .-do_irq
 143              		.align	2
 144              		.global	main
 145              		.type	main, %function
 146              	main:
 147              	.LFB2:
  65:main.c        **** 
  66:main.c        **** int main(void)
  67:main.c        **** {
 148              		.loc 1 67 0
 149              		.cfi_startproc
 150              		@ Function supports interworking.
 151              		@ args = 0, pretend = 0, frame = 0
 152              		@ frame_needed = 1, uses_anonymous_args = 0
 153 00e4 0DC0A0E1 		mov	ip, sp
 154              	.LCFI1:
 155              		.cfi_def_cfa_register 12
 156 00e8 18D82DE9 		stmfd	sp!, {r3, r4, fp, ip, lr, pc}
ARM GAS  C:\Users\ADMINI~1.MIC\AppData\Local\Temp\ccXQZI2W.s 			page 5


 157 00ec 04B04CE2 		sub	fp, ip, #4
 158              		.cfi_offset 14, -8
 159              		.cfi_offset 13, -12
 160              		.cfi_offset 11, -16
 161              		.cfi_offset 4, -20
 162              		.cfi_offset 3, -24
 163              	.LCFI2:
 164              		.cfi_def_cfa 11, 4
  68:main.c        **** 	//GPIO INIT
  69:main.c        **** 	REG_WRITE(GPX1PUD,REG_READ(GPX1PUD)&(~(0X3<<2)));  //禁止上拉下拉
 165              		.loc 1 69 0
 166 00f0 1134A0E3 		mov	r3, #285212672
 167 00f4 282C93E5 		ldr	r2, [r3, #3112]
 168 00f8 0C20C2E3 		bic	r2, r2, #12
 169 00fc 282C83E5 		str	r2, [r3, #3112]
  70:main.c        **** 	REG_WRITE(GPX1CON,REG_READ(GPX1CON)|(0XF<<4));     //设置为外部中断
 170              		.loc 1 70 0
 171 0100 202C93E5 		ldr	r2, [r3, #3104]
 172 0104 F02082E3 		orr	r2, r2, #240
 173 0108 202C83E5 		str	r2, [r3, #3104]
  71:main.c        **** 	REG_WRITE(EXT_INT41_CON,REG_READ(EXT_INT41_CON)&(~(0X7<<4))|(0X2<<4)); //下降沿触发
 174              		.loc 1 71 0
 175 010c 042E93E5 		ldr	r2, [r3, #3588]
 176 0110 7020C2E3 		bic	r2, r2, #112
 177 0114 202082E3 		orr	r2, r2, #32
 178 0118 042E83E5 		str	r2, [r3, #3588]
  72:main.c        **** 	REG_WRITE(EXT_INT41_MASK,REG_READ(EXT_INT41_MASK)&(~(1<<1)));			//设置使能中断
 179              		.loc 1 72 0
 180 011c 042F93E5 		ldr	r2, [r3, #3844]
 181 0120 0220C2E3 		bic	r2, r2, #2
 182 0124 042F83E5 		str	r2, [r3, #3844]
  73:main.c        **** 	//GIC INIT
  74:main.c        **** 	REG_WRITE(ICDDCR,1); //使能GIC
 183              		.loc 1 74 0
 184 0128 64209FE5 		ldr	r2, .L19
 185 012c 0110A0E3 		mov	r1, #1
 186 0130 001082E5 		str	r1, [r2, #0]
  75:main.c        **** 	REG_WRITE(ICDISER1_CPU0,REG_READ(ICDISER1_CPU0)&(~(0X1<<25))|(0X1<<25));	//中断源到分配器
 187              		.loc 1 75 0
 188 0134 040192E5 		ldr	r0, [r2, #260]
 189 0138 020480E3 		orr	r0, r0, #33554432
 190 013c 040182E5 		str	r0, [r2, #260]
  76:main.c        **** 	REG_WRITE(ICDIPTR14_CPU0,REG_READ(ICDIPTR14_CPU0)&(~(0XFF<<8))|1<<8);       //选择CPU接口
 191              		.loc 1 76 0
 192 0140 380892E5 		ldr	r0, [r2, #2104]
 193 0144 FF0CC0E3 		bic	r0, r0, #65280
 194 0148 010C80E3 		orr	r0, r0, #256
 195 014c 380882E5 		str	r0, [r2, #2104]
  77:main.c        **** 	REG_WRITE(ICCICR_CPU0,1);
 196              		.loc 1 77 0
 197 0150 012842E2 		sub	r2, r2, #65536
 198 0154 001082E5 		str	r1, [r2, #0]
  78:main.c        **** 	REG_WRITE(ICCPMR_CPU0,0xff);
 199              		.loc 1 78 0
 200 0158 FF10A0E3 		mov	r1, #255
 201 015c 041082E5 		str	r1, [r2, #4]
  79:main.c        **** 	REG_WRITE(GPX2CON,REG_READ(GPX2CON)&(~(0XF<<28))|(0X1<<28));//设置为输出模式
ARM GAS  C:\Users\ADMINI~1.MIC\AppData\Local\Temp\ccXQZI2W.s 			page 6


 202              		.loc 1 79 0
 203 0160 402C93E5 		ldr	r2, [r3, #3136]
 204 0164 0F22C2E3 		bic	r2, r2, #-268435456
 205 0168 012282E3 		orr	r2, r2, #268435456
 206 016c 402C83E5 		str	r2, [r3, #3136]
  80:main.c        **** 	REG_WRITE(GPX2DAT,REG_READ(GPX2DAT)|(~(0X1<<7))); // LED2灭
 207              		.loc 1 80 0
 208 0170 442C93E5 		ldr	r2, [r3, #3140]
 209 0174 0220E0E1 		mvn	r2, r2
 210 0178 802002E2 		and	r2, r2, #128
 211 017c 0220E0E1 		mvn	r2, r2
 212 0180 442C83E5 		str	r2, [r3, #3140]
  81:main.c        **** 	
  82:main.c        **** 	while(1)
  83:main.c        **** 	{
  84:main.c        **** 	 	delay(10);	
 213              		.loc 1 84 0
 214 0184 0A40A0E3 		mov	r4, #10
 215              	.L18:
 216              		.loc 1 84 0 is_stmt 0 discriminator 1
 217 0188 0400A0E1 		mov	r0, r4
 218 018c FEFFFFEB 		bl	delay
 219 0190 FCFFFFEA 		b	.L18
 220              	.L20:
 221              		.align	2
 222              	.L19:
 223 0194 00004910 		.word	273219584
 224              		.cfi_endproc
 225              	.LFE2:
 226              		.size	main, .-main
 227              		.global	status
 228              		.bss
 229              		.align	2
 230              		.set	.LANCHOR0,. + 0
 231              		.type	status, %object
 232              		.size	status, 4
 233              	status:
 234 0000 00000000 		.space	4
 235              		.text
 236              	.Letext0: