ARM GAS  C:\Users\ADMINI~1.MIC\AppData\Local\Temp\ccHYrmEr.s 			page 1


   1              		.cpu arm7tdmi
   2              		.fpu softvfp
   3              		.eabi_attribute 20, 1
   4              		.eabi_attribute 21, 1
   5              		.eabi_attribute 23, 3
   6              		.eabi_attribute 24, 1
   7              		.eabi_attribute 25, 1
   8              		.eabi_attribute 26, 1
   9              		.eabi_attribute 30, 1
  10              		.eabi_attribute 18, 4
  11              		.file	"main.c"
  12              		.text
  13              	.Ltext0:
  14              		.cfi_sections	.debug_frame
  15              		.align	2
  16              		.global	led_init
  17              		.type	led_init, %function
  18              	led_init:
  19              	.LFB0:
  20              		.file 1 "main.c"
   1:main.c        **** //GPIO --led
   2:main.c        **** #define GPX2CON  0x11000C40
   3:main.c        **** #define GPX2DAT  0x11000C44
   4:main.c        **** //GPIO --key2
   5:main.c        **** #define GPX1CON  0x11000C20
   6:main.c        **** #define GPX1DAT  0x11000C24
   7:main.c        **** #define  GPX1PUD  0x11000c28
   8:main.c        **** 
   9:main.c        **** 
  10:main.c        **** //GPIO--interrupt
  11:main.c        **** #define EXT_INT41_CON 0x11000E04
  12:main.c        **** #define EXT_INT41_MASK 0x11000F04
  13:main.c        **** #define EXT_INT41_PEND 0x11000F44
  14:main.c        **** 
  15:main.c        **** //GIC 
  16:main.c        **** #define ICDISER1_CPU  0x10490104
  17:main.c        **** #define ICDDCR        0x10490000
  18:main.c        **** 
  19:main.c        **** #define ICDIPTR14     0x10490838
  20:main.c        **** #define ICCPMR_CPU0   0x10480004
  21:main.c        **** 
  22:main.c        **** #define ICCICR_CPU0   0x10480000
  23:main.c        **** #define ICDISR1_CPU0  0x10490084
  24:main.c        **** 
  25:main.c        **** #define ICDICPR1_CPU0 0x10490284
  26:main.c        **** #define ICCEOIR       0x10480010
  27:main.c        **** 
  28:main.c        **** #define REG_READ(addr)        (*(volatile unsigned int*)(addr))
  29:main.c        **** #define REG_WRITE(addr,val)   ((*(volatile unsigned int*)(addr)) = (val)) 
  30:main.c        **** 	
  31:main.c        **** #define ICCIAR_CPU0  0x1048000c
  32:main.c        **** 	
  33:main.c        **** //1.设置寄存器
  34:main.c        **** //2.做读写操作
  35:main.c        **** //一般操作:
  36:main.c        **** //[1].硬件初始化
  37:main.c        **** //[2].硬件的操作(读/写)
ARM GAS  C:\Users\ADMINI~1.MIC\AppData\Local\Temp\ccHYrmEr.s 			page 2


  38:main.c        **** //[3].退出操作(操作系统的)
  39:main.c        **** 
  40:main.c        **** void led_init() //初始化 --- 初始化为需要的状态
  41:main.c        **** {
  21              		.loc 1 41 0
  22              		.cfi_startproc
  23              		@ Function supports interworking.
  24              		@ args = 0, pretend = 0, frame = 0
  25              		@ frame_needed = 0, uses_anonymous_args = 0
  26              		@ link register save eliminated.
  42:main.c        **** 	//配置GPX2CON[31:28] = 0x1;
  43:main.c        **** 	int temp = REG_READ( GPX2CON); //(1).读
  27              		.loc 1 43 0
  28 0000 1134A0E3 		mov	r3, #285212672
  29 0004 402C93E5 		ldr	r2, [r3, #3136]
  30              	.LVL0:
  44:main.c        **** 	temp &= ~(0xf<<28);  //(2).修改
  31              		.loc 1 44 0
  32 0008 0F22C2E3 		bic	r2, r2, #-268435456
  33              	.LVL1:
  45:main.c        **** 	temp |= 0x1<<28;
  34              		.loc 1 45 0
  35 000c 012282E3 		orr	r2, r2, #268435456
  36              	.LVL2:
  46:main.c        **** 	REG_WRITE(GPX2CON,temp);//(3).写
  37              		.loc 1 46 0
  38 0010 402C83E5 		str	r2, [r3, #3136]
  47:main.c        **** }	
  39              		.loc 1 47 0
  40 0014 1EFF2FE1 		bx	lr
  41              		.cfi_endproc
  42              	.LFE0:
  43              		.size	led_init, .-led_init
  44              		.align	2
  45              		.global	led_on
  46              		.type	led_on, %function
  47              	led_on:
  48              	.LFB1:
  48:main.c        **** void led_on()
  49:main.c        **** {
  49              		.loc 1 49 0
  50              		.cfi_startproc
  51              		@ Function supports interworking.
  52              		@ args = 0, pretend = 0, frame = 0
  53              		@ frame_needed = 0, uses_anonymous_args = 0
  54              		@ link register save eliminated.
  50:main.c        **** 		 //在GPX2DAT[7]	= 1;
  51:main.c        **** 	int temp = REG_READ( GPX2DAT); //(1).读
  55              		.loc 1 51 0
  56 0018 1134A0E3 		mov	r3, #285212672
  57 001c 442C93E5 		ldr	r2, [r3, #3140]
  58              	.LVL3:
  52:main.c        **** 	temp &= ~(0x1<<7);  //(2).修改
  53:main.c        **** 	temp |= 0x1<<7;
  59              		.loc 1 53 0
  60 0020 802082E3 		orr	r2, r2, #128
  61              	.LVL4:
ARM GAS  C:\Users\ADMINI~1.MIC\AppData\Local\Temp\ccHYrmEr.s 			page 3


  54:main.c        **** 	REG_WRITE(GPX2DAT,temp);//(3).写
  62              		.loc 1 54 0
  63 0024 442C83E5 		str	r2, [r3, #3140]
  55:main.c        **** }
  64              		.loc 1 55 0
  65 0028 1EFF2FE1 		bx	lr
  66              		.cfi_endproc
  67              	.LFE1:
  68              		.size	led_on, .-led_on
  69              		.align	2
  70              		.global	led_off
  71              		.type	led_off, %function
  72              	led_off:
  73              	.LFB2:
  56:main.c        **** void led_off()
  57:main.c        **** {	
  74              		.loc 1 57 0
  75              		.cfi_startproc
  76              		@ Function supports interworking.
  77              		@ args = 0, pretend = 0, frame = 0
  78              		@ frame_needed = 0, uses_anonymous_args = 0
  79              		@ link register save eliminated.
  58:main.c        **** 	//在GPX2DAT[7]	= 0;
  59:main.c        **** 	int temp = REG_READ( GPX2DAT); //(1).读
  80              		.loc 1 59 0
  81 002c 1134A0E3 		mov	r3, #285212672
  82 0030 442C93E5 		ldr	r2, [r3, #3140]
  83              	.LVL5:
  60:main.c        **** 	temp &= ~(0x1<<7);  //(2).修改
  84              		.loc 1 60 0
  85 0034 8020C2E3 		bic	r2, r2, #128
  86              	.LVL6:
  61:main.c        **** 	REG_WRITE(GPX2DAT,temp);//(3).写
  87              		.loc 1 61 0
  88 0038 442C83E5 		str	r2, [r3, #3140]
  62:main.c        **** }	
  89              		.loc 1 62 0
  90 003c 1EFF2FE1 		bx	lr
  91              		.cfi_endproc
  92              	.LFE2:
  93              		.size	led_off, .-led_off
  94              		.align	2
  95              		.global	delays
  96              		.type	delays, %function
  97              	delays:
  98              	.LFB3:
  63:main.c        **** 
  64:main.c        **** 
  65:main.c        **** void delays()
  66:main.c        **** {
  99              		.loc 1 66 0
 100              		.cfi_startproc
 101              		@ Function supports interworking.
 102              		@ args = 0, pretend = 0, frame = 0
 103              		@ frame_needed = 0, uses_anonymous_args = 0
 104              		@ link register save eliminated.
 105              	.LVL7:
ARM GAS  C:\Users\ADMINI~1.MIC\AppData\Local\Temp\ccHYrmEr.s 			page 4


  67:main.c        **** 	 int i = 1000000;
  68:main.c        **** 	 while(i--);
 106              		.loc 1 68 0
 107 0040 08309FE5 		ldr	r3, .L7
 108              	.LVL8:
 109              	.L5:
 110              		.loc 1 68 0 is_stmt 0 discriminator 1
 111 0044 013053E2 		subs	r3, r3, #1
 112 0048 FDFFFF1A 		bne	.L5
  69:main.c        **** }
 113              		.loc 1 69 0 is_stmt 1
 114 004c 1EFF2FE1 		bx	lr
 115              	.L8:
 116              		.align	2
 117              	.L7:
 118 0050 41420F00 		.word	1000001
 119              		.cfi_endproc
 120              	.LFE3:
 121              		.size	delays, .-delays
 122              		.align	2
 123              		.global	key_init
 124              		.type	key_init, %function
 125              	key_init:
 126              	.LFB4:
  70:main.c        **** 
  71:main.c        **** 
  72:main.c        **** //1.硬件初始化
  73:main.c        **** void key_init()
  74:main.c        **** {
 127              		.loc 1 74 0
 128              		.cfi_startproc
 129              		@ Function supports interworking.
 130              		@ args = 0, pretend = 0, frame = 0
 131              		@ frame_needed = 0, uses_anonymous_args = 0
 132              		@ link register save eliminated.
  75:main.c        **** 	 	//配置GPX1CON[7:4] = 0x0;
  76:main.c        **** 	int temp = REG_READ(GPX1CON); //(1).读
 133              		.loc 1 76 0
 134 0054 1134A0E3 		mov	r3, #285212672
 135 0058 202C93E5 		ldr	r2, [r3, #3104]
 136              	.LVL9:
  77:main.c        **** 	temp &= ~(0xf<<4);  //(2).修改
 137              		.loc 1 77 0
 138 005c F020C2E3 		bic	r2, r2, #240
 139              	.LVL10:
  78:main.c        **** 	temp |= 0x0<<4;
  79:main.c        **** 	REG_WRITE(GPX1CON,temp);//(3).写
 140              		.loc 1 79 0
 141 0060 202C83E5 		str	r2, [r3, #3104]
  80:main.c        **** }
 142              		.loc 1 80 0
 143 0064 1EFF2FE1 		bx	lr
 144              		.cfi_endproc
 145              	.LFE4:
 146              		.size	key_init, .-key_init
 147              		.align	2
 148              		.global	get_key_state
ARM GAS  C:\Users\ADMINI~1.MIC\AppData\Local\Temp\ccHYrmEr.s 			page 5


 149              		.type	get_key_state, %function
 150              	get_key_state:
 151              	.LFB5:
  81:main.c        **** 
  82:main.c        **** //2.硬件操作
  83:main.c        **** int get_key_state()
  84:main.c        **** {
 152              		.loc 1 84 0
 153              		.cfi_startproc
 154              		@ Function supports interworking.
 155              		@ args = 0, pretend = 0, frame = 0
 156              		@ frame_needed = 0, uses_anonymous_args = 0
 157              		@ link register save eliminated.
  85:main.c        ****    int state = REG_READ(GPX1DAT);
 158              		.loc 1 85 0
 159 0068 1134A0E3 		mov	r3, #285212672
 160 006c 240C93E5 		ldr	r0, [r3, #3108]
 161              	.LVL11:
  86:main.c        **** 	
  87:main.c        **** 	 return state;
  88:main.c        **** }
 162              		.loc 1 88 0
 163 0070 1EFF2FE1 		bx	lr
 164              		.cfi_endproc
 165              	.LFE5:
 166              		.size	get_key_state, .-get_key_state
 167              		.align	2
 168              		.global	interrup_init
 169              		.type	interrup_init, %function
 170              	interrup_init:
 171              	.LFB6:
  89:main.c        **** 
  90:main.c        **** 
  91:main.c        **** 
  92:main.c        **** //1.中断初始化
  93:main.c        **** void interrup_init()
  94:main.c        **** {
 172              		.loc 1 94 0
 173              		.cfi_startproc
 174              		@ Function supports interworking.
 175              		@ args = 0, pretend = 0, frame = 0
 176              		@ frame_needed = 0, uses_anonymous_args = 0
 177              		@ link register save eliminated.
  95:main.c        **** 	   //(1). muxed  ---选择为中断功能
  96:main.c        ****      //GPX1CON[4:7] = 0b1111 //0xF = WAKEUP_INT1[7] 0x1100_0C20 
  97:main.c        **** 	   REG_WRITE(GPX1CON,REG_READ(GPX1CON)|(0xf<<4));	
 178              		.loc 1 97 0
 179 0074 1134A0E3 		mov	r3, #285212672
 180 0078 202C93E5 		ldr	r2, [r3, #3104]
 181 007c F02082E3 		orr	r2, r2, #240
 182 0080 202C83E5 		str	r2, [r3, #3104]
  98:main.c        **** 	   REG_WRITE(GPX1PUD,(REG_READ(GPX1PUD)&(~(0x3<<2)))); 
 183              		.loc 1 98 0
 184 0084 282C93E5 		ldr	r2, [r3, #3112]
 185 0088 0C20C2E3 		bic	r2, r2, #12
 186 008c 282C83E5 		str	r2, [r3, #3112]
  99:main.c        **** 	   //(2).引脚关于中断的配置
ARM GAS  C:\Users\ADMINI~1.MIC\AppData\Local\Temp\ccHYrmEr.s 			page 6


 100:main.c        **** 	   // falling  ---下降沿 触发中断
 101:main.c        ****      //  EXT_INT41_CON[4:6] = 0b010       //  0x1100_0E04 (0x2)
 102:main.c        **** 	   REG_WRITE(EXT_INT41_CON,(REG_READ(EXT_INT41_CON)&(~(0x7<<4)))|(0x2<<4));
 187              		.loc 1 102 0
 188 0090 042E93E5 		ldr	r2, [r3, #3588]
 189 0094 7020C2E3 		bic	r2, r2, #112
 190 0098 202082E3 		orr	r2, r2, #32
 191 009c 042E83E5 		str	r2, [r3, #3588]
 103:main.c        **** 	   //(3).使能中断
 104:main.c        ****      //EXT_INT41_MASK     = 0x0 ;       //  0x1100_0F04
 105:main.c        **** 	   REG_WRITE(EXT_INT41_MASK,REG_READ(EXT_INT41_MASK)&(~(0x1<<1)));
 192              		.loc 1 105 0
 193 00a0 042F93E5 		ldr	r2, [r3, #3844]
 194 00a4 0220C2E3 		bic	r2, r2, #2
 195 00a8 042F83E5 		str	r2, [r3, #3844]
 106:main.c        **** 	  //(1).enable for distributor      //
 107:main.c        **** 	    //ICDISER1_CPU[25] = 0b1         //0x1049_0104
 108:main.c        ****       //ICDDCR[0] = 0b1                //0x1049_0000
 109:main.c        **** 	  REG_WRITE(ICDISER1_CPU,(REG_READ(ICDISER1_CPU)&(~(0x1<<25))) | (0x1<<25));
 196              		.loc 1 109 0
 197 00ac B73843E2 		sub	r3, r3, #11993088
 198 00b0 042193E5 		ldr	r2, [r3, #260]
 199 00b4 022482E3 		orr	r2, r2, #33554432
 200 00b8 042183E5 		str	r2, [r3, #260]
 110:main.c        **** 	  REG_WRITE(ICDDCR,(REG_READ(ICDDCR)&(~0x1)) | (0x1));
 201              		.loc 1 110 0
 202 00bc 002093E5 		ldr	r2, [r3, #0]
 203 00c0 012082E3 		orr	r2, r2, #1
 204 00c4 002083E5 		str	r2, [r3, #0]
 111:main.c        **** 	  //(2).target cpu0
 112:main.c        ****      //  ICDIPTR14[8:15] = 0b1         //0x1049_0838   
 113:main.c        **** 	                                 //(57除4 商 14 余1) --
 114:main.c        **** 									                  //一个字节控制一个中断
 115:main.c        **** 																		
 116:main.c        **** 			REG_WRITE(ICDIPTR14,(REG_READ(ICDIPTR14)&(~(0xff<<8))) | (0x1<<8));
 205              		.loc 1 116 0
 206 00c8 382893E5 		ldr	r2, [r3, #2104]
 207 00cc FF2CC2E3 		bic	r2, r2, #65280
 208 00d0 012C82E3 		orr	r2, r2, #256
 209 00d4 382883E5 		str	r2, [r3, #2104]
 117:main.c        **** 	   
 118:main.c        ****       //(3).mask priority ----0xff 最低优先级的值
 119:main.c        ****       //ICCPMR_CPU0[0:7] = 0xff        //0x1048_0004			
 120:main.c        **** 		  REG_WRITE(ICCPMR_CPU0,(REG_READ(ICCPMR_CPU0)&(~(0xff))) | (0xff));
 210              		.loc 1 120 0
 211 00d8 24209FE5 		ldr	r2, .L12
 212 00dc 041092E5 		ldr	r1, [r2, #4]
 213 00e0 FF1081E3 		orr	r1, r1, #255
 214 00e4 041082E5 		str	r1, [r2, #4]
 121:main.c        ****      
 122:main.c        **** 	   //(4).enable for cpu0 interface
 123:main.c        ****      //ICCICR_CPU0[0] = 0b1          //0x1048_0000
 124:main.c        **** 	    REG_WRITE(ICCICR_CPU0,(REG_READ(ICCICR_CPU0)&(~(0x1))) | (0x1));
 215              		.loc 1 124 0
 216 00e8 001092E5 		ldr	r1, [r2, #0]
 217 00ec 011081E3 		orr	r1, r1, #1
 218 00f0 001082E5 		str	r1, [r2, #0]
ARM GAS  C:\Users\ADMINI~1.MIC\AppData\Local\Temp\ccHYrmEr.s 			page 7


 125:main.c        ****       //(5). no secure
 126:main.c        ****       //ICDISR1_CPU0[25] = 0b1         //0x1049_0084
 127:main.c        ****       REG_WRITE(ICDISR1_CPU0,(REG_READ(ICDISR1_CPU0)&(~(0x1<<25))) | (0x1<<25));
 219              		.loc 1 127 0
 220 00f4 842093E5 		ldr	r2, [r3, #132]
 221 00f8 022482E3 		orr	r2, r2, #33554432
 222 00fc 842083E5 		str	r2, [r3, #132]
 128:main.c        **** }
 223              		.loc 1 128 0
 224 0100 1EFF2FE1 		bx	lr
 225              	.L13:
 226              		.align	2
 227              	.L12:
 228 0104 00004810 		.word	273154048
 229              		.cfi_endproc
 230              	.LFE6:
 231              		.size	interrup_init, .-interrup_init
 232              		.align	2
 233              		.global	main
 234              		.type	main, %function
 235              	main:
 236              	.LFB7:
 129:main.c        **** 
 130:main.c        **** int flag = 0;
 131:main.c        **** int main()
 132:main.c        **** {
 237              		.loc 1 132 0
 238              		.cfi_startproc
 239              		@ Function supports interworking.
 240              		@ Volatile: function does not return.
 241              		@ args = 0, pretend = 0, frame = 0
 242              		@ frame_needed = 1, uses_anonymous_args = 0
 243 0108 0DC0A0E1 		mov	ip, sp
 244              	.LCFI0:
 245              		.cfi_def_cfa_register 12
 246 010c 00D82DE9 		stmfd	sp!, {fp, ip, lr, pc}
 247 0110 04B04CE2 		sub	fp, ip, #4
 248              		.cfi_offset 14, -8
 249              		.cfi_offset 13, -12
 250              		.cfi_offset 11, -16
 251              	.LCFI1:
 252              		.cfi_def_cfa 11, 4
 133:main.c        **** 	
 134:main.c        ****  //	 int state;
 135:main.c        **** 	 led_init();
 253              		.loc 1 135 0
 254 0114 FEFFFFEB 		bl	led_init
 136:main.c        ****    key_init();
 255              		.loc 1 136 0
 256 0118 FEFFFFEB 		bl	key_init
 137:main.c        **** 	 interrup_init();
 257              		.loc 1 137 0
 258 011c FEFFFFEB 		bl	interrup_init
 259              	.L15:
 138:main.c        **** 		while(1)
 139:main.c        **** 		{				
 140:main.c        **** 				  led_off();
ARM GAS  C:\Users\ADMINI~1.MIC\AppData\Local\Temp\ccHYrmEr.s 			page 8


 260              		.loc 1 140 0 discriminator 1
 261 0120 FEFFFFEB 		bl	led_off
 262 0124 FDFFFFEA 		b	.L15
 263              		.cfi_endproc
 264              	.LFE7:
 265              		.size	main, .-main
 266              		.align	2
 267              		.global	do_irq
 268              		.type	do_irq, %function
 269              	do_irq:
 270              	.LFB8:
 141:main.c        **** 			    //delays();
 142:main.c        **** 			    //led_on();
 143:main.c        **** 		//	    delays();
 144:main.c        **** 		}
 145:main.c        **** 		
 146:main.c        **** 		return 0;
 147:main.c        **** }
 148:main.c        **** 
 149:main.c        **** 
 150:main.c        **** //中断处理函数
 151:main.c        **** 
 152:main.c        **** /*
 153:main.c        **** void do_irq()
 154:main.c        **** {
 155:main.c        **** 	int irq_num  = REG_READ(ICCIAR_CPU0)&0x3ff;
 156:main.c        **** 	
 157:main.c        **** 	switch(irq_num)
 158:main.c        **** 	{
 159:main.c        **** 		case 57:
 160:main.c        **** 			   if(flag == 0)
 161:main.c        **** 				 {
 162:main.c        **** 			      led_off();
 163:main.c        **** 				    flag = 1;
 164:main.c        **** 				 }else if(flag == 1)
 165:main.c        **** 				 {
 166:main.c        **** 					  led_on();
 167:main.c        **** 				    flag = 0;
 168:main.c        **** 				 }
 169:main.c        **** 				 
 170:main.c        **** 				 //清除 中断请求标志
 171:main.c        **** 				 REG_WRITE(EXT_INT41_PEND,REG_READ(EXT_INT41_PEND)|(0x1<<1));
 172:main.c        **** 				 REG_WRITE(ICDICPR1_CPU0,REG_READ(ICDICPR1_CPU0)|(0x1<<25));
 173:main.c        ****           
 174:main.c        ****          break;				 
 175:main.c        **** 		//case 
 176:main.c        **** 		default:
 177:main.c        **** 			break;
 178:main.c        **** 	}
 179:main.c        **** 	 REG_WRITE(ICCEOIR,(REG_READ(ICCEOIR)&(~0x3ff))|irq_num);
 180:main.c        **** 	
 181:main.c        **** }
 182:main.c        **** */
 183:main.c        **** 
 184:main.c        **** void do_irq(void)
 185:main.c        **** {
 271              		.loc 1 185 0
ARM GAS  C:\Users\ADMINI~1.MIC\AppData\Local\Temp\ccHYrmEr.s 			page 9


 272              		.cfi_startproc
 273              		@ Function supports interworking.
 274              		@ args = 0, pretend = 0, frame = 0
 275              		@ frame_needed = 0, uses_anonymous_args = 0
 276              		@ link register save eliminated.
 277              	.LVL12:
 186:main.c        ****   //1.获取中断号
 187:main.c        ****   unsigned int temp = 0;
 188:main.c        **** 	int irq_num = REG_READ(ICCIAR_CPU0)&0x3ff; // 0b11 1111 1111 
 278              		.loc 1 188 0
 279 0128 94309FE5 		ldr	r3, .L21
 280 012c 0C2093E5 		ldr	r2, [r3, #12]
 281 0130 022BA0E1 		mov	r2, r2, asl #22
 282 0134 222BA0E1 		mov	r2, r2, lsr #22
 283              	.LVL13:
 189:main.c        **** 
 190:main.c        **** 	switch(irq_num)
 284              		.loc 1 190 0
 285 0138 390052E3 		cmp	r2, #57
 286 013c 1900001A 		bne	.L17
 191:main.c        **** 	{
 192:main.c        **** 	    case 57:
 193:main.c        **** 	     if(flag == 0)
 287              		.loc 1 193 0
 288 0140 80309FE5 		ldr	r3, .L21+4
 289 0144 003093E5 		ldr	r3, [r3, #0]
 290 0148 000053E3 		cmp	r3, #0
 291 014c 0700001A 		bne	.L19
 194:main.c        **** 			 {
 195:main.c        **** 		       //按下---亮
 196:main.c        **** 			     temp = REG_READ(GPX2DAT); 
 292              		.loc 1 196 0
 293 0150 1134A0E3 		mov	r3, #285212672
 294 0154 441C93E5 		ldr	r1, [r3, #3140]
 295              	.LVL14:
 197:main.c        **** 			     temp = (~(0x1<<7))&temp;
 198:main.c        **** 			     temp = (0x1 << 7)|temp;
 296              		.loc 1 198 0
 297 0158 801081E3 		orr	r1, r1, #128
 298              	.LVL15:
 199:main.c        **** 			     REG_WRITE(GPX2DAT,temp);
 299              		.loc 1 199 0
 300 015c 441C83E5 		str	r1, [r3, #3140]
 200:main.c        **** 				 flag = 1;
 301              		.loc 1 200 0
 302 0160 0110A0E3 		mov	r1, #1
 303              	.LVL16:
 304 0164 5C309FE5 		ldr	r3, .L21+4
 305              	.LVL17:
 306 0168 001083E5 		str	r1, [r3, #0]
 307 016c 050000EA 		b	.L20
 308              	.LVL18:
 309              	.L19:
 201:main.c        **** 			 } else 
 202:main.c        **** 			 {
 203:main.c        **** 			       //不按---灭 
 204:main.c        **** 			     REG_READ(GPX2DAT); 
ARM GAS  C:\Users\ADMINI~1.MIC\AppData\Local\Temp\ccHYrmEr.s 			page 10


 310              		.loc 1 204 0
 311 0170 1114A0E3 		mov	r1, #285212672
 312 0174 443C91E5 		ldr	r3, [r1, #3140]
 205:main.c        **** 				   temp = (~(0x1<<7))&temp;
 206:main.c        **** 				   temp = (0x0 << 7)|temp;
 207:main.c        **** 				   REG_WRITE(GPX2DAT,temp);
 313              		.loc 1 207 0
 314 0178 0030A0E3 		mov	r3, #0
 315 017c 443C81E5 		str	r3, [r1, #3140]
 208:main.c        **** 				   flag = 0;
 316              		.loc 1 208 0
 317 0180 40109FE5 		ldr	r1, .L21+4
 318 0184 003081E5 		str	r3, [r1, #0]
 319              	.LVL19:
 320              	.L20:
 209:main.c        **** 		     }
 210:main.c        **** 			     //清除中断
 211:main.c        **** 			     REG_WRITE(EXT_INT41_PEND,(REG_READ( EXT_INT41_PEND)&(~(0x1<<1))) | (0x1<<1));
 321              		.loc 1 211 0
 322 0188 1134A0E3 		mov	r3, #285212672
 323 018c 441F93E5 		ldr	r1, [r3, #3908]
 324 0190 021081E3 		orr	r1, r1, #2
 325 0194 441F83E5 		str	r1, [r3, #3908]
 212:main.c        **** 		       REG_WRITE(ICDICPR1_CPU0 ,(REG_READ(ICDICPR1_CPU0)&(~(0x1<<25)))  | (0x1<<25));
 326              		.loc 1 212 0
 327 0198 B73843E2 		sub	r3, r3, #11993088
 328 019c 841293E5 		ldr	r1, [r3, #644]
 329 01a0 021481E3 		orr	r1, r1, #33554432
 330 01a4 841283E5 		str	r1, [r3, #644]
 331              	.L17:
 213:main.c        **** 			 break;
 214:main.c        **** 
 215:main.c        **** 		default:
 216:main.c        **** 		     break;
 217:main.c        **** 	}
 218:main.c        **** 	REG_WRITE(ICCEOIR,(REG_READ(ICCEOIR) & (~(0x3ff)) | irq_num ));	
 332              		.loc 1 218 0
 333 01a8 14309FE5 		ldr	r3, .L21
 334 01ac 101093E5 		ldr	r1, [r3, #16]
 335 01b0 FF1FC1E3 		bic	r1, r1, #1020
 336 01b4 0310C1E3 		bic	r1, r1, #3
 337 01b8 012082E1 		orr	r2, r2, r1
 338              	.LVL20:
 339 01bc 102083E5 		str	r2, [r3, #16]
 219:main.c        **** 	//清除结束中断信号
 220:main.c        ****   //REG_WRITE(ICCEOIR,REG_READ(ICCIAR_CPU0) | irq_num);
 221:main.c        **** }...
 340              		.loc 1 221 0
 341 01c0 1EFF2FE1 		bx	lr
 342              	.L22:
 343              		.align	2
 344              	.L21:
 345 01c4 00004810 		.word	273154048
 346 01c8 00000000 		.word	.LANCHOR0
 347              		.cfi_endproc
 348              	.LFE8:
 349              		.size	do_irq, .-do_irq
ARM GAS  C:\Users\ADMINI~1.MIC\AppData\Local\Temp\ccHYrmEr.s 			page 11


 350              		.global	flag
 351              		.bss
 352              		.align	2
 353              		.set	.LANCHOR0,. + 0
 354              		.type	flag, %object
 355              		.size	flag, 4
 356              	flag:
 357 0000 00000000 		.space	4
 358              		.text
 359              	.Letext0: