
mmu.elf:     file format elf32-littlearm


Disassembly of section .text:

40008000 <_start>:
40008000:	ea00000d 	b	4000803c <reset>
40008004:	e59ff014 	ldr	pc, [pc, #20]	; 40008020 <_undefined_instruction>
40008008:	e59ff014 	ldr	pc, [pc, #20]	; 40008024 <_software_interrupt>
4000800c:	e59ff014 	ldr	pc, [pc, #20]	; 40008028 <_prefetch_abort>
40008010:	e59ff014 	ldr	pc, [pc, #20]	; 4000802c <_data_abort>
40008014:	e59ff014 	ldr	pc, [pc, #20]	; 40008030 <_not_used>
40008018:	e59ff014 	ldr	pc, [pc, #20]	; 40008034 <_irq>
4000801c:	e59ff014 	ldr	pc, [pc, #20]	; 40008038 <_fiq>

40008020 <_undefined_instruction>:
40008020:	40008020 	andmi	r8, r0, r0, lsr #32

40008024 <_software_interrupt>:
40008024:	40008024 	andmi	r8, r0, r4, lsr #32

40008028 <_prefetch_abort>:
40008028:	40008028 	andmi	r8, r0, r8, lsr #32

4000802c <_data_abort>:
4000802c:	4000802c 	andmi	r8, r0, ip, lsr #32

40008030 <_not_used>:
40008030:	40008030 	andmi	r8, r0, r0, lsr r0

40008034 <_irq>:
40008034:	40008034 	andmi	r8, r0, r4, lsr r0

40008038 <_fiq>:
40008038:	40008038 	andmi	r8, r0, r8, lsr r0

4000803c <reset>:
4000803c:	e59f0110 	ldr	r0, [pc, #272]	; 40008154 <stacktop+0x4>
40008040:	ee0c0f10 	mcr	15, 0, r0, cr12, cr0, {0}
40008044:	e10f0000 	mrs	r0, CPSR
40008048:	e3c0001f 	bic	r0, r0, #31
4000804c:	e38000d3 	orr	r0, r0, #211	; 0xd3
40008050:	e129f000 	msr	CPSR_fc, r0
40008054:	e3e0020f 	mvn	r0, #-268435456	; 0xf0000000
40008058:	ee010f50 	mcr	15, 0, r0, cr1, cr0, {2}
4000805c:	e3a00000 	mov	r0, #0
40008060:	ee080f17 	mcr	15, 0, r0, cr8, cr7, {0}
40008064:	ee070f15 	mcr	15, 0, r0, cr7, cr5, {0}
40008068:	e3a03101 	mov	r3, #1073741824	; 0x40000000
4000806c:	eee83a10 	vmsr	fpexc, r3
40008070:	ee110f10 	mrc	15, 0, r0, cr1, cr0, {0}
40008074:	e3c00a02 	bic	r0, r0, #8192	; 0x2000
40008078:	e3c00007 	bic	r0, r0, #7
4000807c:	e3800a01 	orr	r0, r0, #4096	; 0x1000
40008080:	e3800002 	orr	r0, r0, #2
40008084:	e3800b02 	orr	r0, r0, #2048	; 0x800
40008088:	ee010f10 	mcr	15, 0, r0, cr1, cr0, {0}
4000808c:	e59f00c4 	ldr	r0, [pc, #196]	; 40008158 <stacktop+0x8>
40008090:	e5901000 	ldr	r1, [r0]
40008094:	e3c1180f 	bic	r1, r1, #983040	; 0xf0000
40008098:	e3811801 	orr	r1, r1, #65536	; 0x10000
4000809c:	e5801000 	str	r1, [r0]
400080a0:	e59f00b4 	ldr	r0, [pc, #180]	; 4000815c <stacktop+0xc>
400080a4:	e5901000 	ldr	r1, [r0]
400080a8:	e3c11c03 	bic	r1, r1, #768	; 0x300
400080ac:	e5801000 	str	r1, [r0]
400080b0:	e59f00a8 	ldr	r0, [pc, #168]	; 40008160 <stacktop+0x10>
400080b4:	e5901000 	ldr	r1, [r0]
400080b8:	e3811010 	orr	r1, r1, #16
400080bc:	e5801000 	str	r1, [r0]

400080c0 <init_stack>:
400080c0:	e59f0088 	ldr	r0, [pc, #136]	; 40008150 <stacktop>
400080c4:	e1a0d000 	mov	sp, r0
400080c8:	e2400c02 	sub	r0, r0, #512	; 0x200
400080cc:	e329f0d2 	msr	CPSR_fc, #210	; 0xd2
400080d0:	e1a0d000 	mov	sp, r0
400080d4:	e2400c02 	sub	r0, r0, #512	; 0x200
400080d8:	e329f0d1 	msr	CPSR_fc, #209	; 0xd1
400080dc:	e1a0d000 	mov	sp, r0
400080e0:	e2400000 	sub	r0, r0, #0
400080e4:	e329f0d7 	msr	CPSR_fc, #215	; 0xd7
400080e8:	e1a0d000 	mov	sp, r0
400080ec:	e2400000 	sub	r0, r0, #0
400080f0:	e329f0db 	msr	CPSR_fc, #219	; 0xdb
400080f4:	e1a0d000 	mov	sp, r0
400080f8:	e2400000 	sub	r0, r0, #0
400080fc:	e329f01f 	msr	CPSR_fc, #31
40008100:	e1a0d000 	mov	sp, r0
40008104:	ea00060d 	b	40009940 <main>
40008108:	e1a00000 	nop			; (mov r0, r0)
4000810c:	e1a00000 	nop			; (mov r0, r0)

40008110 <mmu_disable>:
40008110:	ee110f10 	mrc	15, 0, r0, cr1, cr0, {0}
40008114:	e3c00001 	bic	r0, r0, #1
40008118:	ee010f10 	mcr	15, 0, r0, cr1, cr0, {0}
4000811c:	e1a0f00e 	mov	pc, lr

40008120 <mmu_enable>:
40008120:	ee110f10 	mrc	15, 0, r0, cr1, cr0, {0}
40008124:	e3800001 	orr	r0, r0, #1
40008128:	ee010f10 	mcr	15, 0, r0, cr1, cr0, {0}
4000812c:	e1a0f00e 	mov	pc, lr

40008130 <mmu_set>:
40008130:	e3a00441 	mov	r0, #1090519040	; 0x41000000
40008134:	ee020f10 	mcr	15, 0, r0, cr2, cr0, {0}
40008138:	e3e05000 	mvn	r5, #0
4000813c:	ee035f10 	mcr	15, 0, r5, cr3, cr0, {0}
40008140:	ee110f10 	mrc	15, 0, r0, cr1, cr0, {0}
40008144:	e3800001 	orr	r0, r0, #1
40008148:	ee010f10 	mcr	15, 0, r0, cr1, cr0, {0}
4000814c:	e1a0f00e 	mov	pc, lr

40008150 <stacktop>:
40008150:	4000a230 	andmi	sl, r0, r0, lsr r2
40008154:	40008000 	andmi	r8, r0, r0
40008158:	114001e0 	smlalttne	r0, r0, r0, r1	; <UNPREDICTABLE>
4000815c:	114001e8 	smlalttne	r0, r0, r8, r1	; <UNPREDICTABLE>
40008160:	114001e4 	smlalttne	r0, r0, r4, r1	; <UNPREDICTABLE>
40008164:	e1a00000 	nop			; (mov r0, r0)
40008168:	e1a00000 	nop			; (mov r0, r0)
4000816c:	e1a00000 	nop			; (mov r0, r0)

40008170 <wait_mux_state>:
40008170:	e7901002 	ldr	r1, [r0, r2]
40008174:	e1510003 	cmp	r1, r3
40008178:	1afffffc 	bne	40008170 <wait_mux_state>
4000817c:	e1a0f00e 	mov	pc, lr

40008180 <wait_pll_lock>:
40008180:	e7901002 	ldr	r1, [r0, r2]
40008184:	e3110202 	tst	r1, #536870912	; 0x20000000
40008188:	0afffffc 	beq	40008180 <wait_pll_lock>
4000818c:	e1a0f00e 	mov	pc, lr

40008190 <system_clock_init>:
40008190:	e92d4000 	push	{lr}
40008194:	e59f0148 	ldr	r0, [pc, #328]	; 400082e4 <system_clock_init+0x154>
40008198:	e59f1148 	ldr	r1, [pc, #328]	; 400082e8 <system_clock_init+0x158>
4000819c:	e59f2148 	ldr	r2, [pc, #328]	; 400082ec <system_clock_init+0x15c>
400081a0:	e7801002 	str	r1, [r0, r2]
400081a4:	e3a02b51 	mov	r2, #82944	; 0x14400
400081a8:	e59f3140 	ldr	r3, [pc, #320]	; 400082f0 <system_clock_init+0x160>
400081ac:	ebffffef 	bl	40008170 <wait_mux_state>
400081b0:	e59f113c 	ldr	r1, [pc, #316]	; 400082f4 <system_clock_init+0x164>
400081b4:	e59f213c 	ldr	r2, [pc, #316]	; 400082f8 <system_clock_init+0x168>
400081b8:	e7801002 	str	r1, [r0, r2]
400081bc:	e59f1138 	ldr	r1, [pc, #312]	; 400082fc <system_clock_init+0x16c>
400081c0:	e59f2138 	ldr	r2, [pc, #312]	; 40008300 <system_clock_init+0x170>
400081c4:	e7801002 	str	r1, [r0, r2]
400081c8:	e3a01000 	mov	r1, #0
400081cc:	e59f2130 	ldr	r2, [pc, #304]	; 40008304 <system_clock_init+0x174>
400081d0:	e7801002 	str	r1, [r0, r2]
400081d4:	e59f212c 	ldr	r2, [pc, #300]	; 40008308 <system_clock_init+0x178>
400081d8:	e59f312c 	ldr	r3, [pc, #300]	; 4000830c <system_clock_init+0x17c>
400081dc:	ebffffe3 	bl	40008170 <wait_mux_state>
400081e0:	e3a01a01 	mov	r1, #4096	; 0x1000
400081e4:	e59f2124 	ldr	r2, [pc, #292]	; 40008310 <system_clock_init+0x180>
400081e8:	e7801002 	str	r1, [r0, r2]
400081ec:	e59f2120 	ldr	r2, [pc, #288]	; 40008314 <system_clock_init+0x184>
400081f0:	e59f3120 	ldr	r3, [pc, #288]	; 40008318 <system_clock_init+0x188>
400081f4:	ebffffdd 	bl	40008170 <wait_mux_state>
400081f8:	e59f111c 	ldr	r1, [pc, #284]	; 4000831c <system_clock_init+0x18c>
400081fc:	e59f211c 	ldr	r2, [pc, #284]	; 40008320 <system_clock_init+0x190>
40008200:	e7801002 	str	r1, [r0, r2]
40008204:	e3a01010 	mov	r1, #16
40008208:	e3a02c42 	mov	r2, #16896	; 0x4200
4000820c:	e7801002 	str	r1, [r0, r2]
40008210:	e3a02b11 	mov	r2, #17408	; 0x4400
40008214:	e3a03021 	mov	r3, #33	; 0x21
40008218:	ebffffd4 	bl	40008170 <wait_mux_state>
4000821c:	e3a01013 	mov	r1, #19
40008220:	e3a02c45 	mov	r2, #17664	; 0x4500
40008224:	e7801002 	str	r1, [r0, r2]
40008228:	e3a01010 	mov	r1, #16
4000822c:	e3a02c82 	mov	r2, #33280	; 0x8200
40008230:	e7801002 	str	r1, [r0, r2]
40008234:	e3a02b21 	mov	r2, #33792	; 0x8400
40008238:	e3a03021 	mov	r3, #33	; 0x21
4000823c:	ebffffcb 	bl	40008170 <wait_mux_state>
40008240:	e3a01013 	mov	r1, #19
40008244:	e3a02c85 	mov	r2, #34048	; 0x8500
40008248:	e7801002 	str	r1, [r0, r2]
4000824c:	e59f10d0 	ldr	r1, [pc, #208]	; 40008324 <system_clock_init+0x194>
40008250:	e3a02905 	mov	r2, #81920	; 0x14000
40008254:	e7801002 	str	r1, [r0, r2]
40008258:	e59f10c4 	ldr	r1, [pc, #196]	; 40008324 <system_clock_init+0x194>
4000825c:	e59f20c4 	ldr	r2, [pc, #196]	; 40008328 <system_clock_init+0x198>
40008260:	e7801002 	str	r1, [r0, r2]
40008264:	e59f10c0 	ldr	r1, [pc, #192]	; 4000832c <system_clock_init+0x19c>
40008268:	e59f20c0 	ldr	r2, [pc, #192]	; 40008330 <system_clock_init+0x1a0>
4000826c:	e7801002 	str	r1, [r0, r2]
40008270:	e59f10b4 	ldr	r1, [pc, #180]	; 4000832c <system_clock_init+0x19c>
40008274:	e59f20b8 	ldr	r2, [pc, #184]	; 40008334 <system_clock_init+0x1a4>
40008278:	e7801002 	str	r1, [r0, r2]
4000827c:	e59f10b4 	ldr	r1, [pc, #180]	; 40008338 <system_clock_init+0x1a8>
40008280:	e59f20b4 	ldr	r2, [pc, #180]	; 4000833c <system_clock_init+0x1ac>
40008284:	e7801002 	str	r1, [r0, r2]
40008288:	e3a01004 	mov	r1, #4
4000828c:	e59f20ac 	ldr	r2, [pc, #172]	; 40008340 <system_clock_init+0x1b0>
40008290:	e7801002 	str	r1, [r0, r2]
40008294:	e59f10a8 	ldr	r1, [pc, #168]	; 40008344 <system_clock_init+0x1b4>
40008298:	e59f20a8 	ldr	r2, [pc, #168]	; 40008348 <system_clock_init+0x1b8>
4000829c:	e7801002 	str	r1, [r0, r2]
400082a0:	e59f10a4 	ldr	r1, [pc, #164]	; 4000834c <system_clock_init+0x1bc>
400082a4:	e59f20a4 	ldr	r2, [pc, #164]	; 40008350 <system_clock_init+0x1c0>
400082a8:	e7801002 	str	r1, [r0, r2]
400082ac:	e59f1090 	ldr	r1, [pc, #144]	; 40008344 <system_clock_init+0x1b4>
400082b0:	e59f209c 	ldr	r2, [pc, #156]	; 40008354 <system_clock_init+0x1c4>
400082b4:	e7801002 	str	r1, [r0, r2]
400082b8:	e59f1098 	ldr	r1, [pc, #152]	; 40008358 <system_clock_init+0x1c8>
400082bc:	e59f2098 	ldr	r2, [pc, #152]	; 4000835c <system_clock_init+0x1cc>
400082c0:	e7801002 	str	r1, [r0, r2]
400082c4:	e59f0018 	ldr	r0, [pc, #24]	; 400082e4 <system_clock_init+0x154>
400082c8:	e59f1090 	ldr	r1, [pc, #144]	; 40008360 <system_clock_init+0x1d0>
400082cc:	e59f2090 	ldr	r2, [pc, #144]	; 40008364 <system_clock_init+0x1d4>
400082d0:	e7801002 	str	r1, [r0, r2]
400082d4:	e59f108c 	ldr	r1, [pc, #140]	; 40008368 <system_clock_init+0x1d8>
400082d8:	e59f208c 	ldr	r2, [pc, #140]	; 4000836c <system_clock_init+0x1dc>
400082dc:	e7801002 	str	r1, [r0, r2]
400082e0:	e8bd8000 	pop	{pc}
400082e4:	10030000 	andne	r0, r3, r0
400082e8:	01000001 	tsteq	r0, r1
400082ec:	00014200 	andeq	r4, r1, r0, lsl #4
400082f0:	02110002 	andseq	r0, r1, #2
400082f4:	00111113 	andseq	r1, r1, r3, lsl r1
400082f8:	00010500 	andeq	r0, r1, r0, lsl #10
400082fc:	01010100 	mrseq	r0, (UNDEF: 17)
40008300:	00010504 	andeq	r0, r1, r4, lsl #10
40008304:	0000c210 	andeq	ip, r0, r0, lsl r2
40008308:	0000c410 	andeq	ip, r0, r0, lsl r4
4000830c:	11111111 	tstne	r1, r1, lsl r1
40008310:	0000c214 	andeq	ip, r0, r4, lsl r2
40008314:	0000c414 	andeq	ip, r0, r4, lsl r4
40008318:	01112110 	tsteq	r1, r0, lsl r1
4000831c:	00005473 	andeq	r5, r0, r3, ror r4
40008320:	0000c510 	andeq	ip, r0, r0, lsl r5
40008324:	000002f1 	strdeq	r0, [r0], -r1
40008328:	00010008 	andeq	r0, r1, r8
4000832c:	00002321 	andeq	r2, r0, r1, lsr #6
40008330:	0000c010 	andeq	ip, r0, r0, lsl r0
40008334:	0000c020 	andeq	ip, r0, r0, lsr #32
40008338:	01143730 	tsteq	r4, r0, lsr r7
4000833c:	00014500 	andeq	r4, r1, r0, lsl #10
40008340:	00014504 	andeq	r4, r1, r4, lsl #10
40008344:	00803800 	addeq	r3, r0, r0, lsl #16
40008348:	00014104 	andeq	r4, r1, r4, lsl #2
4000834c:	807d0300 	rsbshi	r0, sp, r0, lsl #6
40008350:	00014100 	andeq	r4, r1, r0, lsl #2
40008354:	0001010c 	andeq	r0, r1, ip, lsl #2
40008358:	80640300 	rsbhi	r0, r4, r0, lsl #6
4000835c:	00010108 	andeq	r0, r1, r8, lsl #2
40008360:	00666666 	rsbeq	r6, r6, r6, ror #12
40008364:	0000c250 	andeq	ip, r0, r0, asr r2
40008368:	00777777 	rsbseq	r7, r7, r7, ror r7
4000836c:	0000c550 	andeq	ip, r0, r0, asr r5

40008370 <__toupper>:
40008370:	e52db004 	push	{fp}		; (str fp, [sp, #-4]!)
40008374:	e28db000 	add	fp, sp, #0
40008378:	e24dd004 	sub	sp, sp, #4
4000837c:	e1a03000 	mov	r3, r0
40008380:	e54b3004 	strb	r3, [fp, #-4]
40008384:	e55b3004 	ldrb	r3, [fp, #-4]
40008388:	e59f202c 	ldr	r2, [pc, #44]	; 400083bc <__toupper+0x4c>
4000838c:	e7d23003 	ldrb	r3, [r2, r3]
40008390:	e2033002 	and	r3, r3, #2
40008394:	e3530000 	cmp	r3, #0
40008398:	0a000002 	beq	400083a8 <__toupper+0x38>
4000839c:	e55b3004 	ldrb	r3, [fp, #-4]
400083a0:	e2433020 	sub	r3, r3, #32
400083a4:	e54b3004 	strb	r3, [fp, #-4]
400083a8:	e55b3004 	ldrb	r3, [fp, #-4]
400083ac:	e1a00003 	mov	r0, r3
400083b0:	e28bd000 	add	sp, fp, #0
400083b4:	e8bd0800 	pop	{fp}
400083b8:	e12fff1e 	bx	lr
400083bc:	4000a230 	andmi	sl, r0, r0, lsr r2

400083c0 <simple_strtoul>:
400083c0:	e92d4800 	push	{fp, lr}
400083c4:	e28db004 	add	fp, sp, #4
400083c8:	e24dd014 	sub	sp, sp, #20
400083cc:	e50b0010 	str	r0, [fp, #-16]
400083d0:	e50b1014 	str	r1, [fp, #-20]
400083d4:	e50b2018 	str	r2, [fp, #-24]
400083d8:	e3a03000 	mov	r3, #0
400083dc:	e50b3008 	str	r3, [fp, #-8]
400083e0:	e51b3010 	ldr	r3, [fp, #-16]
400083e4:	e5d33000 	ldrb	r3, [r3]
400083e8:	e3530030 	cmp	r3, #48	; 0x30
400083ec:	1a000018 	bne	40008454 <simple_strtoul+0x94>
400083f0:	e51b3010 	ldr	r3, [fp, #-16]
400083f4:	e2833001 	add	r3, r3, #1
400083f8:	e50b3010 	str	r3, [fp, #-16]
400083fc:	e51b3010 	ldr	r3, [fp, #-16]
40008400:	e5d33000 	ldrb	r3, [r3]
40008404:	e3530078 	cmp	r3, #120	; 0x78
40008408:	1a00000c 	bne	40008440 <simple_strtoul+0x80>
4000840c:	e51b3010 	ldr	r3, [fp, #-16]
40008410:	e2833001 	add	r3, r3, #1
40008414:	e5d33000 	ldrb	r3, [r3]
40008418:	e59f2144 	ldr	r2, [pc, #324]	; 40008564 <simple_strtoul+0x1a4>
4000841c:	e7d23003 	ldrb	r3, [r2, r3]
40008420:	e2033044 	and	r3, r3, #68	; 0x44
40008424:	e3530000 	cmp	r3, #0
40008428:	0a000004 	beq	40008440 <simple_strtoul+0x80>
4000842c:	e3a03010 	mov	r3, #16
40008430:	e50b3018 	str	r3, [fp, #-24]
40008434:	e51b3010 	ldr	r3, [fp, #-16]
40008438:	e2833001 	add	r3, r3, #1
4000843c:	e50b3010 	str	r3, [fp, #-16]
40008440:	e51b3018 	ldr	r3, [fp, #-24]
40008444:	e3530000 	cmp	r3, #0
40008448:	1a000001 	bne	40008454 <simple_strtoul+0x94>
4000844c:	e3a03008 	mov	r3, #8
40008450:	e50b3018 	str	r3, [fp, #-24]
40008454:	e51b3018 	ldr	r3, [fp, #-24]
40008458:	e3530000 	cmp	r3, #0
4000845c:	1a00000c 	bne	40008494 <simple_strtoul+0xd4>
40008460:	e3a0300a 	mov	r3, #10
40008464:	e50b3018 	str	r3, [fp, #-24]
40008468:	ea000009 	b	40008494 <simple_strtoul+0xd4>
4000846c:	e51b3008 	ldr	r3, [fp, #-8]
40008470:	e51b2018 	ldr	r2, [fp, #-24]
40008474:	e0020293 	mul	r2, r3, r2
40008478:	e51b300c 	ldr	r3, [fp, #-12]
4000847c:	e0823003 	add	r3, r2, r3
40008480:	e50b3008 	str	r3, [fp, #-8]
40008484:	e51b3010 	ldr	r3, [fp, #-16]
40008488:	e2833001 	add	r3, r3, #1
4000848c:	e50b3010 	str	r3, [fp, #-16]
40008490:	ea000000 	b	40008498 <simple_strtoul+0xd8>
40008494:	e1a00000 	nop			; (mov r0, r0)
40008498:	e51b3010 	ldr	r3, [fp, #-16]
4000849c:	e5d33000 	ldrb	r3, [r3]
400084a0:	e59f20bc 	ldr	r2, [pc, #188]	; 40008564 <simple_strtoul+0x1a4>
400084a4:	e7d23003 	ldrb	r3, [r2, r3]
400084a8:	e2033044 	and	r3, r3, #68	; 0x44
400084ac:	e3530000 	cmp	r3, #0
400084b0:	0a000020 	beq	40008538 <simple_strtoul+0x178>
400084b4:	e51b3010 	ldr	r3, [fp, #-16]
400084b8:	e5d33000 	ldrb	r3, [r3]
400084bc:	e59f20a0 	ldr	r2, [pc, #160]	; 40008564 <simple_strtoul+0x1a4>
400084c0:	e7d23003 	ldrb	r3, [r2, r3]
400084c4:	e2033004 	and	r3, r3, #4
400084c8:	e3530000 	cmp	r3, #0
400084cc:	0a000003 	beq	400084e0 <simple_strtoul+0x120>
400084d0:	e51b3010 	ldr	r3, [fp, #-16]
400084d4:	e5d33000 	ldrb	r3, [r3]
400084d8:	e2433030 	sub	r3, r3, #48	; 0x30
400084dc:	ea000010 	b	40008524 <simple_strtoul+0x164>
400084e0:	e51b3010 	ldr	r3, [fp, #-16]
400084e4:	e5d33000 	ldrb	r3, [r3]
400084e8:	e59f2074 	ldr	r2, [pc, #116]	; 40008564 <simple_strtoul+0x1a4>
400084ec:	e7d23003 	ldrb	r3, [r2, r3]
400084f0:	e2033002 	and	r3, r3, #2
400084f4:	e3530000 	cmp	r3, #0
400084f8:	0a000006 	beq	40008518 <simple_strtoul+0x158>
400084fc:	e51b3010 	ldr	r3, [fp, #-16]
40008500:	e5d33000 	ldrb	r3, [r3]
40008504:	e1a00003 	mov	r0, r3
40008508:	ebffff98 	bl	40008370 <__toupper>
4000850c:	e1a03000 	mov	r3, r0
40008510:	e2433037 	sub	r3, r3, #55	; 0x37
40008514:	ea000002 	b	40008524 <simple_strtoul+0x164>
40008518:	e51b3010 	ldr	r3, [fp, #-16]
4000851c:	e5d33000 	ldrb	r3, [r3]
40008520:	e2433037 	sub	r3, r3, #55	; 0x37
40008524:	e50b300c 	str	r3, [fp, #-12]
40008528:	e51b200c 	ldr	r2, [fp, #-12]
4000852c:	e51b3018 	ldr	r3, [fp, #-24]
40008530:	e1520003 	cmp	r2, r3
40008534:	3affffcc 	bcc	4000846c <simple_strtoul+0xac>
40008538:	e51b3014 	ldr	r3, [fp, #-20]
4000853c:	e3530000 	cmp	r3, #0
40008540:	0a000002 	beq	40008550 <simple_strtoul+0x190>
40008544:	e51b3014 	ldr	r3, [fp, #-20]
40008548:	e51b2010 	ldr	r2, [fp, #-16]
4000854c:	e5832000 	str	r2, [r3]
40008550:	e51b3008 	ldr	r3, [fp, #-8]
40008554:	e1a00003 	mov	r0, r3
40008558:	e24bd004 	sub	sp, fp, #4
4000855c:	e8bd4800 	pop	{fp, lr}
40008560:	e12fff1e 	bx	lr
40008564:	4000a230 	andmi	sl, r0, r0, lsr r2

40008568 <simple_strtol>:
40008568:	e92d4800 	push	{fp, lr}
4000856c:	e28db004 	add	fp, sp, #4
40008570:	e24dd00c 	sub	sp, sp, #12
40008574:	e50b0008 	str	r0, [fp, #-8]
40008578:	e50b100c 	str	r1, [fp, #-12]
4000857c:	e50b2010 	str	r2, [fp, #-16]
40008580:	e51b3008 	ldr	r3, [fp, #-8]
40008584:	e5d33000 	ldrb	r3, [r3]
40008588:	e353002d 	cmp	r3, #45	; 0x2d
4000858c:	1a000008 	bne	400085b4 <simple_strtol+0x4c>
40008590:	e51b3008 	ldr	r3, [fp, #-8]
40008594:	e2833001 	add	r3, r3, #1
40008598:	e1a00003 	mov	r0, r3
4000859c:	e51b100c 	ldr	r1, [fp, #-12]
400085a0:	e51b2010 	ldr	r2, [fp, #-16]
400085a4:	ebffff85 	bl	400083c0 <simple_strtoul>
400085a8:	e1a03000 	mov	r3, r0
400085ac:	e2633000 	rsb	r3, r3, #0
400085b0:	ea000004 	b	400085c8 <simple_strtol+0x60>
400085b4:	e51b0008 	ldr	r0, [fp, #-8]
400085b8:	e51b100c 	ldr	r1, [fp, #-12]
400085bc:	e51b2010 	ldr	r2, [fp, #-16]
400085c0:	ebffff7e 	bl	400083c0 <simple_strtoul>
400085c4:	e1a03000 	mov	r3, r0
400085c8:	e1a00003 	mov	r0, r3
400085cc:	e24bd004 	sub	sp, fp, #4
400085d0:	e8bd4800 	pop	{fp, lr}
400085d4:	e12fff1e 	bx	lr

400085d8 <skip_atoi>:
400085d8:	e52db004 	push	{fp}		; (str fp, [sp, #-4]!)
400085dc:	e28db000 	add	fp, sp, #0
400085e0:	e24dd008 	sub	sp, sp, #8
400085e4:	e50b0008 	str	r0, [fp, #-8]
400085e8:	e3a03000 	mov	r3, #0
400085ec:	e50b3004 	str	r3, [fp, #-4]
400085f0:	ea00000e 	b	40008630 <skip_atoi+0x58>
400085f4:	e51b2004 	ldr	r2, [fp, #-4]
400085f8:	e1a03002 	mov	r3, r2
400085fc:	e1a03103 	lsl	r3, r3, #2
40008600:	e0833002 	add	r3, r3, r2
40008604:	e1a03083 	lsl	r3, r3, #1
40008608:	e1a01003 	mov	r1, r3
4000860c:	e51b3008 	ldr	r3, [fp, #-8]
40008610:	e5933000 	ldr	r3, [r3]
40008614:	e5d32000 	ldrb	r2, [r3]
40008618:	e0812002 	add	r2, r1, r2
4000861c:	e2422030 	sub	r2, r2, #48	; 0x30
40008620:	e50b2004 	str	r2, [fp, #-4]
40008624:	e2832001 	add	r2, r3, #1
40008628:	e51b3008 	ldr	r3, [fp, #-8]
4000862c:	e5832000 	str	r2, [r3]
40008630:	e51b3008 	ldr	r3, [fp, #-8]
40008634:	e5933000 	ldr	r3, [r3]
40008638:	e5d33000 	ldrb	r3, [r3]
4000863c:	e353002f 	cmp	r3, #47	; 0x2f
40008640:	9a000004 	bls	40008658 <skip_atoi+0x80>
40008644:	e51b3008 	ldr	r3, [fp, #-8]
40008648:	e5933000 	ldr	r3, [r3]
4000864c:	e5d33000 	ldrb	r3, [r3]
40008650:	e3530039 	cmp	r3, #57	; 0x39
40008654:	9affffe6 	bls	400085f4 <skip_atoi+0x1c>
40008658:	e51b3004 	ldr	r3, [fp, #-4]
4000865c:	e1a00003 	mov	r0, r3
40008660:	e28bd000 	add	sp, fp, #0
40008664:	e8bd0800 	pop	{fp}
40008668:	e12fff1e 	bx	lr

4000866c <number>:
4000866c:	e92d4800 	push	{fp, lr}
40008670:	e28db004 	add	fp, sp, #4
40008674:	e24dd068 	sub	sp, sp, #104	; 0x68
40008678:	e50b0060 	str	r0, [fp, #-96]	; 0x60
4000867c:	e50b1064 	str	r1, [fp, #-100]	; 0x64
40008680:	e50b2068 	str	r2, [fp, #-104]	; 0x68
40008684:	e50b306c 	str	r3, [fp, #-108]	; 0x6c
40008688:	e59f346c 	ldr	r3, [pc, #1132]	; 40008afc <number+0x490>
4000868c:	e50b300c 	str	r3, [fp, #-12]
40008690:	e59b3008 	ldr	r3, [fp, #8]
40008694:	e2033040 	and	r3, r3, #64	; 0x40
40008698:	e3530000 	cmp	r3, #0
4000869c:	0a000001 	beq	400086a8 <number+0x3c>
400086a0:	e59f3458 	ldr	r3, [pc, #1112]	; 40008b00 <number+0x494>
400086a4:	e50b300c 	str	r3, [fp, #-12]
400086a8:	e59b3008 	ldr	r3, [fp, #8]
400086ac:	e2033010 	and	r3, r3, #16
400086b0:	e3530000 	cmp	r3, #0
400086b4:	0a000002 	beq	400086c4 <number+0x58>
400086b8:	e59b3008 	ldr	r3, [fp, #8]
400086bc:	e3c33001 	bic	r3, r3, #1
400086c0:	e58b3008 	str	r3, [fp, #8]
400086c4:	e51b3068 	ldr	r3, [fp, #-104]	; 0x68
400086c8:	e3530001 	cmp	r3, #1
400086cc:	9a000002 	bls	400086dc <number+0x70>
400086d0:	e51b3068 	ldr	r3, [fp, #-104]	; 0x68
400086d4:	e3530024 	cmp	r3, #36	; 0x24
400086d8:	9a000001 	bls	400086e4 <number+0x78>
400086dc:	e3a03000 	mov	r3, #0
400086e0:	ea000101 	b	40008aec <number+0x480>
400086e4:	e59b3008 	ldr	r3, [fp, #8]
400086e8:	e2033001 	and	r3, r3, #1
400086ec:	e20330ff 	and	r3, r3, #255	; 0xff
400086f0:	e3530000 	cmp	r3, #0
400086f4:	0a000001 	beq	40008700 <number+0x94>
400086f8:	e3a03030 	mov	r3, #48	; 0x30
400086fc:	ea000000 	b	40008704 <number+0x98>
40008700:	e3a03020 	mov	r3, #32
40008704:	e54b3011 	strb	r3, [fp, #-17]
40008708:	e3a03000 	mov	r3, #0
4000870c:	e54b3005 	strb	r3, [fp, #-5]
40008710:	e59b3008 	ldr	r3, [fp, #8]
40008714:	e2033002 	and	r3, r3, #2
40008718:	e3530000 	cmp	r3, #0
4000871c:	0a00001e 	beq	4000879c <number+0x130>
40008720:	e51b3064 	ldr	r3, [fp, #-100]	; 0x64
40008724:	e3530000 	cmp	r3, #0
40008728:	aa000008 	bge	40008750 <number+0xe4>
4000872c:	e3a0302d 	mov	r3, #45	; 0x2d
40008730:	e54b3005 	strb	r3, [fp, #-5]
40008734:	e51b3064 	ldr	r3, [fp, #-100]	; 0x64
40008738:	e2633000 	rsb	r3, r3, #0
4000873c:	e50b3064 	str	r3, [fp, #-100]	; 0x64
40008740:	e51b306c 	ldr	r3, [fp, #-108]	; 0x6c
40008744:	e2433001 	sub	r3, r3, #1
40008748:	e50b306c 	str	r3, [fp, #-108]	; 0x6c
4000874c:	ea000012 	b	4000879c <number+0x130>
40008750:	e59b3008 	ldr	r3, [fp, #8]
40008754:	e2033004 	and	r3, r3, #4
40008758:	e3530000 	cmp	r3, #0
4000875c:	0a000005 	beq	40008778 <number+0x10c>
40008760:	e3a0302b 	mov	r3, #43	; 0x2b
40008764:	e54b3005 	strb	r3, [fp, #-5]
40008768:	e51b306c 	ldr	r3, [fp, #-108]	; 0x6c
4000876c:	e2433001 	sub	r3, r3, #1
40008770:	e50b306c 	str	r3, [fp, #-108]	; 0x6c
40008774:	ea000008 	b	4000879c <number+0x130>
40008778:	e59b3008 	ldr	r3, [fp, #8]
4000877c:	e2033008 	and	r3, r3, #8
40008780:	e3530000 	cmp	r3, #0
40008784:	0a000004 	beq	4000879c <number+0x130>
40008788:	e3a03020 	mov	r3, #32
4000878c:	e54b3005 	strb	r3, [fp, #-5]
40008790:	e51b306c 	ldr	r3, [fp, #-108]	; 0x6c
40008794:	e2433001 	sub	r3, r3, #1
40008798:	e50b306c 	str	r3, [fp, #-108]	; 0x6c
4000879c:	e59b3008 	ldr	r3, [fp, #8]
400087a0:	e2033020 	and	r3, r3, #32
400087a4:	e3530000 	cmp	r3, #0
400087a8:	0a00000c 	beq	400087e0 <number+0x174>
400087ac:	e51b3068 	ldr	r3, [fp, #-104]	; 0x68
400087b0:	e3530010 	cmp	r3, #16
400087b4:	1a000003 	bne	400087c8 <number+0x15c>
400087b8:	e51b306c 	ldr	r3, [fp, #-108]	; 0x6c
400087bc:	e2433002 	sub	r3, r3, #2
400087c0:	e50b306c 	str	r3, [fp, #-108]	; 0x6c
400087c4:	ea000005 	b	400087e0 <number+0x174>
400087c8:	e51b3068 	ldr	r3, [fp, #-104]	; 0x68
400087cc:	e3530008 	cmp	r3, #8
400087d0:	1a000002 	bne	400087e0 <number+0x174>
400087d4:	e51b306c 	ldr	r3, [fp, #-108]	; 0x6c
400087d8:	e2433001 	sub	r3, r3, #1
400087dc:	e50b306c 	str	r3, [fp, #-108]	; 0x6c
400087e0:	e3a03000 	mov	r3, #0
400087e4:	e50b3010 	str	r3, [fp, #-16]
400087e8:	e51b3064 	ldr	r3, [fp, #-100]	; 0x64
400087ec:	e3530000 	cmp	r3, #0
400087f0:	1a000027 	bne	40008894 <number+0x228>
400087f4:	e3e03057 	mvn	r3, #87	; 0x57
400087f8:	e51b2010 	ldr	r2, [fp, #-16]
400087fc:	e24b0004 	sub	r0, fp, #4
40008800:	e0802002 	add	r2, r0, r2
40008804:	e0823003 	add	r3, r2, r3
40008808:	e3a02030 	mov	r2, #48	; 0x30
4000880c:	e5c32000 	strb	r2, [r3]
40008810:	e51b3010 	ldr	r3, [fp, #-16]
40008814:	e2833001 	add	r3, r3, #1
40008818:	e50b3010 	str	r3, [fp, #-16]
4000881c:	ea00001f 	b	400088a0 <number+0x234>
40008820:	e51b2010 	ldr	r2, [fp, #-16]
40008824:	e59b3004 	ldr	r3, [fp, #4]
40008828:	e1520003 	cmp	r2, r3
4000882c:	da000018 	ble	40008894 <number+0x228>
40008830:	e51b3064 	ldr	r3, [fp, #-100]	; 0x64
40008834:	e1a00003 	mov	r0, r3
40008838:	e51b1068 	ldr	r1, [fp, #-104]	; 0x68
4000883c:	eb0003c2 	bl	4000974c <__umodsi3>
40008840:	e1a03000 	mov	r3, r0
40008844:	e50b3018 	str	r3, [fp, #-24]
40008848:	e51b3064 	ldr	r3, [fp, #-100]	; 0x64
4000884c:	e1a00003 	mov	r0, r3
40008850:	e51b1068 	ldr	r1, [fp, #-104]	; 0x68
40008854:	eb000397 	bl	400096b8 <__udivsi3>
40008858:	e1a03000 	mov	r3, r0
4000885c:	e50b3064 	str	r3, [fp, #-100]	; 0x64
40008860:	e51b3018 	ldr	r3, [fp, #-24]
40008864:	e51b200c 	ldr	r2, [fp, #-12]
40008868:	e0823003 	add	r3, r2, r3
4000886c:	e5d32000 	ldrb	r2, [r3]
40008870:	e3e03057 	mvn	r3, #87	; 0x57
40008874:	e51b1010 	ldr	r1, [fp, #-16]
40008878:	e24b0004 	sub	r0, fp, #4
4000887c:	e0801001 	add	r1, r0, r1
40008880:	e0813003 	add	r3, r1, r3
40008884:	e5c32000 	strb	r2, [r3]
40008888:	e51b3010 	ldr	r3, [fp, #-16]
4000888c:	e2833001 	add	r3, r3, #1
40008890:	e50b3010 	str	r3, [fp, #-16]
40008894:	e51b3064 	ldr	r3, [fp, #-100]	; 0x64
40008898:	e3530000 	cmp	r3, #0
4000889c:	1affffdf 	bne	40008820 <number+0x1b4>
400088a0:	e51b3010 	ldr	r3, [fp, #-16]
400088a4:	e58b3004 	str	r3, [fp, #4]
400088a8:	e51b206c 	ldr	r2, [fp, #-108]	; 0x6c
400088ac:	e59b3004 	ldr	r3, [fp, #4]
400088b0:	e0633002 	rsb	r3, r3, r2
400088b4:	e50b306c 	str	r3, [fp, #-108]	; 0x6c
400088b8:	e59b3008 	ldr	r3, [fp, #8]
400088bc:	e2033011 	and	r3, r3, #17
400088c0:	e3530000 	cmp	r3, #0
400088c4:	1a000010 	bne	4000890c <number+0x2a0>
400088c8:	ea000005 	b	400088e4 <number+0x278>
400088cc:	e51b3060 	ldr	r3, [fp, #-96]	; 0x60
400088d0:	e3a02020 	mov	r2, #32
400088d4:	e5c32000 	strb	r2, [r3]
400088d8:	e51b3060 	ldr	r3, [fp, #-96]	; 0x60
400088dc:	e2833001 	add	r3, r3, #1
400088e0:	e50b3060 	str	r3, [fp, #-96]	; 0x60
400088e4:	e51b306c 	ldr	r3, [fp, #-108]	; 0x6c
400088e8:	e3530000 	cmp	r3, #0
400088ec:	d3a03000 	movle	r3, #0
400088f0:	c3a03001 	movgt	r3, #1
400088f4:	e20330ff 	and	r3, r3, #255	; 0xff
400088f8:	e51b206c 	ldr	r2, [fp, #-108]	; 0x6c
400088fc:	e2422001 	sub	r2, r2, #1
40008900:	e50b206c 	str	r2, [fp, #-108]	; 0x6c
40008904:	e3530000 	cmp	r3, #0
40008908:	1affffef 	bne	400088cc <number+0x260>
4000890c:	e55b3005 	ldrb	r3, [fp, #-5]
40008910:	e3530000 	cmp	r3, #0
40008914:	0a000005 	beq	40008930 <number+0x2c4>
40008918:	e51b3060 	ldr	r3, [fp, #-96]	; 0x60
4000891c:	e55b2005 	ldrb	r2, [fp, #-5]
40008920:	e5c32000 	strb	r2, [r3]
40008924:	e51b3060 	ldr	r3, [fp, #-96]	; 0x60
40008928:	e2833001 	add	r3, r3, #1
4000892c:	e50b3060 	str	r3, [fp, #-96]	; 0x60
40008930:	e59b3008 	ldr	r3, [fp, #8]
40008934:	e2033020 	and	r3, r3, #32
40008938:	e3530000 	cmp	r3, #0
4000893c:	0a000019 	beq	400089a8 <number+0x33c>
40008940:	e51b3068 	ldr	r3, [fp, #-104]	; 0x68
40008944:	e3530008 	cmp	r3, #8
40008948:	1a000006 	bne	40008968 <number+0x2fc>
4000894c:	e51b3060 	ldr	r3, [fp, #-96]	; 0x60
40008950:	e3a02030 	mov	r2, #48	; 0x30
40008954:	e5c32000 	strb	r2, [r3]
40008958:	e51b3060 	ldr	r3, [fp, #-96]	; 0x60
4000895c:	e2833001 	add	r3, r3, #1
40008960:	e50b3060 	str	r3, [fp, #-96]	; 0x60
40008964:	ea00000f 	b	400089a8 <number+0x33c>
40008968:	e51b3068 	ldr	r3, [fp, #-104]	; 0x68
4000896c:	e3530010 	cmp	r3, #16
40008970:	1a00000c 	bne	400089a8 <number+0x33c>
40008974:	e51b3060 	ldr	r3, [fp, #-96]	; 0x60
40008978:	e3a02030 	mov	r2, #48	; 0x30
4000897c:	e5c32000 	strb	r2, [r3]
40008980:	e51b3060 	ldr	r3, [fp, #-96]	; 0x60
40008984:	e2833001 	add	r3, r3, #1
40008988:	e50b3060 	str	r3, [fp, #-96]	; 0x60
4000898c:	e51b300c 	ldr	r3, [fp, #-12]
40008990:	e5d32021 	ldrb	r2, [r3, #33]	; 0x21
40008994:	e51b3060 	ldr	r3, [fp, #-96]	; 0x60
40008998:	e5c32000 	strb	r2, [r3]
4000899c:	e51b3060 	ldr	r3, [fp, #-96]	; 0x60
400089a0:	e2833001 	add	r3, r3, #1
400089a4:	e50b3060 	str	r3, [fp, #-96]	; 0x60
400089a8:	e59b3008 	ldr	r3, [fp, #8]
400089ac:	e2033010 	and	r3, r3, #16
400089b0:	e3530000 	cmp	r3, #0
400089b4:	1a000018 	bne	40008a1c <number+0x3b0>
400089b8:	ea000005 	b	400089d4 <number+0x368>
400089bc:	e51b3060 	ldr	r3, [fp, #-96]	; 0x60
400089c0:	e55b2011 	ldrb	r2, [fp, #-17]
400089c4:	e5c32000 	strb	r2, [r3]
400089c8:	e51b3060 	ldr	r3, [fp, #-96]	; 0x60
400089cc:	e2833001 	add	r3, r3, #1
400089d0:	e50b3060 	str	r3, [fp, #-96]	; 0x60
400089d4:	e51b306c 	ldr	r3, [fp, #-108]	; 0x6c
400089d8:	e3530000 	cmp	r3, #0
400089dc:	d3a03000 	movle	r3, #0
400089e0:	c3a03001 	movgt	r3, #1
400089e4:	e20330ff 	and	r3, r3, #255	; 0xff
400089e8:	e51b206c 	ldr	r2, [fp, #-108]	; 0x6c
400089ec:	e2422001 	sub	r2, r2, #1
400089f0:	e50b206c 	str	r2, [fp, #-108]	; 0x6c
400089f4:	e3530000 	cmp	r3, #0
400089f8:	1affffef 	bne	400089bc <number+0x350>
400089fc:	ea000006 	b	40008a1c <number+0x3b0>
40008a00:	e51b3060 	ldr	r3, [fp, #-96]	; 0x60
40008a04:	e3a02030 	mov	r2, #48	; 0x30
40008a08:	e5c32000 	strb	r2, [r3]
40008a0c:	e51b3060 	ldr	r3, [fp, #-96]	; 0x60
40008a10:	e2833001 	add	r3, r3, #1
40008a14:	e50b3060 	str	r3, [fp, #-96]	; 0x60
40008a18:	ea000000 	b	40008a20 <number+0x3b4>
40008a1c:	e1a00000 	nop			; (mov r0, r0)
40008a20:	e59b2004 	ldr	r2, [fp, #4]
40008a24:	e51b3010 	ldr	r3, [fp, #-16]
40008a28:	e1520003 	cmp	r2, r3
40008a2c:	d3a03000 	movle	r3, #0
40008a30:	c3a03001 	movgt	r3, #1
40008a34:	e20330ff 	and	r3, r3, #255	; 0xff
40008a38:	e59b2004 	ldr	r2, [fp, #4]
40008a3c:	e2422001 	sub	r2, r2, #1
40008a40:	e58b2004 	str	r2, [fp, #4]
40008a44:	e3530000 	cmp	r3, #0
40008a48:	1affffec 	bne	40008a00 <number+0x394>
40008a4c:	ea00000a 	b	40008a7c <number+0x410>
40008a50:	e3e03057 	mvn	r3, #87	; 0x57
40008a54:	e51b2010 	ldr	r2, [fp, #-16]
40008a58:	e24b1004 	sub	r1, fp, #4
40008a5c:	e0812002 	add	r2, r1, r2
40008a60:	e0823003 	add	r3, r2, r3
40008a64:	e5d32000 	ldrb	r2, [r3]
40008a68:	e51b3060 	ldr	r3, [fp, #-96]	; 0x60
40008a6c:	e5c32000 	strb	r2, [r3]
40008a70:	e51b3060 	ldr	r3, [fp, #-96]	; 0x60
40008a74:	e2833001 	add	r3, r3, #1
40008a78:	e50b3060 	str	r3, [fp, #-96]	; 0x60
40008a7c:	e51b3010 	ldr	r3, [fp, #-16]
40008a80:	e3530000 	cmp	r3, #0
40008a84:	d3a03000 	movle	r3, #0
40008a88:	c3a03001 	movgt	r3, #1
40008a8c:	e20330ff 	and	r3, r3, #255	; 0xff
40008a90:	e51b2010 	ldr	r2, [fp, #-16]
40008a94:	e2422001 	sub	r2, r2, #1
40008a98:	e50b2010 	str	r2, [fp, #-16]
40008a9c:	e3530000 	cmp	r3, #0
40008aa0:	1affffea 	bne	40008a50 <number+0x3e4>
40008aa4:	ea000005 	b	40008ac0 <number+0x454>
40008aa8:	e51b3060 	ldr	r3, [fp, #-96]	; 0x60
40008aac:	e3a02020 	mov	r2, #32
40008ab0:	e5c32000 	strb	r2, [r3]
40008ab4:	e51b3060 	ldr	r3, [fp, #-96]	; 0x60
40008ab8:	e2833001 	add	r3, r3, #1
40008abc:	e50b3060 	str	r3, [fp, #-96]	; 0x60
40008ac0:	e51b306c 	ldr	r3, [fp, #-108]	; 0x6c
40008ac4:	e3530000 	cmp	r3, #0
40008ac8:	d3a03000 	movle	r3, #0
40008acc:	c3a03001 	movgt	r3, #1
40008ad0:	e20330ff 	and	r3, r3, #255	; 0xff
40008ad4:	e51b206c 	ldr	r2, [fp, #-108]	; 0x6c
40008ad8:	e2422001 	sub	r2, r2, #1
40008adc:	e50b206c 	str	r2, [fp, #-108]	; 0x6c
40008ae0:	e3530000 	cmp	r3, #0
40008ae4:	1affffef 	bne	40008aa8 <number+0x43c>
40008ae8:	e51b3060 	ldr	r3, [fp, #-96]	; 0x60
40008aec:	e1a00003 	mov	r0, r3
40008af0:	e24bd004 	sub	sp, fp, #4
40008af4:	e8bd4800 	pop	{fp, lr}
40008af8:	e12fff1e 	bx	lr
40008afc:	400099d8 	ldrdmi	r9, [r0], -r8
40008b00:	40009a00 	andmi	r9, r0, r0, lsl #20

40008b04 <strnlen>:
40008b04:	e52db004 	push	{fp}		; (str fp, [sp, #-4]!)
40008b08:	e28db000 	add	fp, sp, #0
40008b0c:	e24dd00c 	sub	sp, sp, #12
40008b10:	e50b0008 	str	r0, [fp, #-8]
40008b14:	e50b100c 	str	r1, [fp, #-12]
40008b18:	e51b3008 	ldr	r3, [fp, #-8]
40008b1c:	e50b3004 	str	r3, [fp, #-4]
40008b20:	ea000002 	b	40008b30 <strnlen+0x2c>
40008b24:	e51b3004 	ldr	r3, [fp, #-4]
40008b28:	e2833001 	add	r3, r3, #1
40008b2c:	e50b3004 	str	r3, [fp, #-4]
40008b30:	e51b300c 	ldr	r3, [fp, #-12]
40008b34:	e3530000 	cmp	r3, #0
40008b38:	03a03000 	moveq	r3, #0
40008b3c:	13a03001 	movne	r3, #1
40008b40:	e20330ff 	and	r3, r3, #255	; 0xff
40008b44:	e51b200c 	ldr	r2, [fp, #-12]
40008b48:	e2422001 	sub	r2, r2, #1
40008b4c:	e50b200c 	str	r2, [fp, #-12]
40008b50:	e3530000 	cmp	r3, #0
40008b54:	0a000003 	beq	40008b68 <strnlen+0x64>
40008b58:	e51b3004 	ldr	r3, [fp, #-4]
40008b5c:	e5d33000 	ldrb	r3, [r3]
40008b60:	e3530000 	cmp	r3, #0
40008b64:	1affffee 	bne	40008b24 <strnlen+0x20>
40008b68:	e51b2004 	ldr	r2, [fp, #-4]
40008b6c:	e51b3008 	ldr	r3, [fp, #-8]
40008b70:	e0633002 	rsb	r3, r3, r2
40008b74:	e1a00003 	mov	r0, r3
40008b78:	e28bd000 	add	sp, fp, #0
40008b7c:	e8bd0800 	pop	{fp}
40008b80:	e12fff1e 	bx	lr

40008b84 <vsprintf>:
40008b84:	e92d4800 	push	{fp, lr}
40008b88:	e28db004 	add	fp, sp, #4
40008b8c:	e24dd044 	sub	sp, sp, #68	; 0x44
40008b90:	e50b0038 	str	r0, [fp, #-56]	; 0x38
40008b94:	e50b103c 	str	r1, [fp, #-60]	; 0x3c
40008b98:	e50b2040 	str	r2, [fp, #-64]	; 0x40
40008b9c:	e51b3038 	ldr	r3, [fp, #-56]	; 0x38
40008ba0:	e50b3014 	str	r3, [fp, #-20]
40008ba4:	ea000235 	b	40009480 <vsprintf+0x8fc>
40008ba8:	e51b303c 	ldr	r3, [fp, #-60]	; 0x3c
40008bac:	e5d33000 	ldrb	r3, [r3]
40008bb0:	e3530025 	cmp	r3, #37	; 0x25
40008bb4:	0a000007 	beq	40008bd8 <vsprintf+0x54>
40008bb8:	e51b303c 	ldr	r3, [fp, #-60]	; 0x3c
40008bbc:	e5d32000 	ldrb	r2, [r3]
40008bc0:	e51b3014 	ldr	r3, [fp, #-20]
40008bc4:	e5c32000 	strb	r2, [r3]
40008bc8:	e51b3014 	ldr	r3, [fp, #-20]
40008bcc:	e2833001 	add	r3, r3, #1
40008bd0:	e50b3014 	str	r3, [fp, #-20]
40008bd4:	ea000226 	b	40009474 <vsprintf+0x8f0>
40008bd8:	e3a03000 	mov	r3, #0
40008bdc:	e50b301c 	str	r3, [fp, #-28]
40008be0:	e51b303c 	ldr	r3, [fp, #-60]	; 0x3c
40008be4:	e2833001 	add	r3, r3, #1
40008be8:	e50b303c 	str	r3, [fp, #-60]	; 0x3c
40008bec:	e51b303c 	ldr	r3, [fp, #-60]	; 0x3c
40008bf0:	e5d33000 	ldrb	r3, [r3]
40008bf4:	e2433020 	sub	r3, r3, #32
40008bf8:	e3530010 	cmp	r3, #16
40008bfc:	979ff103 	ldrls	pc, [pc, r3, lsl #2]
40008c00:	ea000024 	b	40008c98 <vsprintf+0x114>
40008c04:	40008c68 	andmi	r8, r0, r8, ror #24
40008c08:	40008c98 	mulmi	r0, r8, ip
40008c0c:	40008c98 	mulmi	r0, r8, ip
40008c10:	40008c78 	andmi	r8, r0, r8, ror ip
40008c14:	40008c98 	mulmi	r0, r8, ip
40008c18:	40008c98 	mulmi	r0, r8, ip
40008c1c:	40008c98 	mulmi	r0, r8, ip
40008c20:	40008c98 	mulmi	r0, r8, ip
40008c24:	40008c98 	mulmi	r0, r8, ip
40008c28:	40008c98 	mulmi	r0, r8, ip
40008c2c:	40008c98 	mulmi	r0, r8, ip
40008c30:	40008c58 	andmi	r8, r0, r8, asr ip
40008c34:	40008c98 	mulmi	r0, r8, ip
40008c38:	40008c48 	andmi	r8, r0, r8, asr #24
40008c3c:	40008c98 	mulmi	r0, r8, ip
40008c40:	40008c98 	mulmi	r0, r8, ip
40008c44:	40008c88 	andmi	r8, r0, r8, lsl #25
40008c48:	e51b301c 	ldr	r3, [fp, #-28]
40008c4c:	e3833010 	orr	r3, r3, #16
40008c50:	e50b301c 	str	r3, [fp, #-28]
40008c54:	eaffffe1 	b	40008be0 <vsprintf+0x5c>
40008c58:	e51b301c 	ldr	r3, [fp, #-28]
40008c5c:	e3833004 	orr	r3, r3, #4
40008c60:	e50b301c 	str	r3, [fp, #-28]
40008c64:	eaffffdd 	b	40008be0 <vsprintf+0x5c>
40008c68:	e51b301c 	ldr	r3, [fp, #-28]
40008c6c:	e3833008 	orr	r3, r3, #8
40008c70:	e50b301c 	str	r3, [fp, #-28]
40008c74:	eaffffd9 	b	40008be0 <vsprintf+0x5c>
40008c78:	e51b301c 	ldr	r3, [fp, #-28]
40008c7c:	e3833020 	orr	r3, r3, #32
40008c80:	e50b301c 	str	r3, [fp, #-28]
40008c84:	eaffffd5 	b	40008be0 <vsprintf+0x5c>
40008c88:	e51b301c 	ldr	r3, [fp, #-28]
40008c8c:	e3833001 	orr	r3, r3, #1
40008c90:	e50b301c 	str	r3, [fp, #-28]
40008c94:	eaffffd1 	b	40008be0 <vsprintf+0x5c>
40008c98:	e3e03000 	mvn	r3, #0
40008c9c:	e50b3020 	str	r3, [fp, #-32]
40008ca0:	e51b303c 	ldr	r3, [fp, #-60]	; 0x3c
40008ca4:	e5d33000 	ldrb	r3, [r3]
40008ca8:	e353002f 	cmp	r3, #47	; 0x2f
40008cac:	9a000008 	bls	40008cd4 <vsprintf+0x150>
40008cb0:	e51b303c 	ldr	r3, [fp, #-60]	; 0x3c
40008cb4:	e5d33000 	ldrb	r3, [r3]
40008cb8:	e3530039 	cmp	r3, #57	; 0x39
40008cbc:	8a000004 	bhi	40008cd4 <vsprintf+0x150>
40008cc0:	e24b303c 	sub	r3, fp, #60	; 0x3c
40008cc4:	e1a00003 	mov	r0, r3
40008cc8:	ebfffe42 	bl	400085d8 <skip_atoi>
40008ccc:	e50b0020 	str	r0, [fp, #-32]
40008cd0:	ea000014 	b	40008d28 <vsprintf+0x1a4>
40008cd4:	e51b303c 	ldr	r3, [fp, #-60]	; 0x3c
40008cd8:	e5d33000 	ldrb	r3, [r3]
40008cdc:	e353002a 	cmp	r3, #42	; 0x2a
40008ce0:	1a000010 	bne	40008d28 <vsprintf+0x1a4>
40008ce4:	e51b303c 	ldr	r3, [fp, #-60]	; 0x3c
40008ce8:	e2833001 	add	r3, r3, #1
40008cec:	e50b303c 	str	r3, [fp, #-60]	; 0x3c
40008cf0:	e51b3040 	ldr	r3, [fp, #-64]	; 0x40
40008cf4:	e2832004 	add	r2, r3, #4
40008cf8:	e50b2040 	str	r2, [fp, #-64]	; 0x40
40008cfc:	e5933000 	ldr	r3, [r3]
40008d00:	e50b3020 	str	r3, [fp, #-32]
40008d04:	e51b3020 	ldr	r3, [fp, #-32]
40008d08:	e3530000 	cmp	r3, #0
40008d0c:	aa000005 	bge	40008d28 <vsprintf+0x1a4>
40008d10:	e51b3020 	ldr	r3, [fp, #-32]
40008d14:	e2633000 	rsb	r3, r3, #0
40008d18:	e50b3020 	str	r3, [fp, #-32]
40008d1c:	e51b301c 	ldr	r3, [fp, #-28]
40008d20:	e3833010 	orr	r3, r3, #16
40008d24:	e50b301c 	str	r3, [fp, #-28]
40008d28:	e3e03000 	mvn	r3, #0
40008d2c:	e50b3024 	str	r3, [fp, #-36]	; 0x24
40008d30:	e51b303c 	ldr	r3, [fp, #-60]	; 0x3c
40008d34:	e5d33000 	ldrb	r3, [r3]
40008d38:	e353002e 	cmp	r3, #46	; 0x2e
40008d3c:	1a000020 	bne	40008dc4 <vsprintf+0x240>
40008d40:	e51b303c 	ldr	r3, [fp, #-60]	; 0x3c
40008d44:	e2833001 	add	r3, r3, #1
40008d48:	e50b303c 	str	r3, [fp, #-60]	; 0x3c
40008d4c:	e51b303c 	ldr	r3, [fp, #-60]	; 0x3c
40008d50:	e5d33000 	ldrb	r3, [r3]
40008d54:	e353002f 	cmp	r3, #47	; 0x2f
40008d58:	9a000008 	bls	40008d80 <vsprintf+0x1fc>
40008d5c:	e51b303c 	ldr	r3, [fp, #-60]	; 0x3c
40008d60:	e5d33000 	ldrb	r3, [r3]
40008d64:	e3530039 	cmp	r3, #57	; 0x39
40008d68:	8a000004 	bhi	40008d80 <vsprintf+0x1fc>
40008d6c:	e24b303c 	sub	r3, fp, #60	; 0x3c
40008d70:	e1a00003 	mov	r0, r3
40008d74:	ebfffe17 	bl	400085d8 <skip_atoi>
40008d78:	e50b0024 	str	r0, [fp, #-36]	; 0x24
40008d7c:	ea00000b 	b	40008db0 <vsprintf+0x22c>
40008d80:	e51b303c 	ldr	r3, [fp, #-60]	; 0x3c
40008d84:	e5d33000 	ldrb	r3, [r3]
40008d88:	e353002a 	cmp	r3, #42	; 0x2a
40008d8c:	1a000007 	bne	40008db0 <vsprintf+0x22c>
40008d90:	e51b303c 	ldr	r3, [fp, #-60]	; 0x3c
40008d94:	e2833001 	add	r3, r3, #1
40008d98:	e50b303c 	str	r3, [fp, #-60]	; 0x3c
40008d9c:	e51b3040 	ldr	r3, [fp, #-64]	; 0x40
40008da0:	e2832004 	add	r2, r3, #4
40008da4:	e50b2040 	str	r2, [fp, #-64]	; 0x40
40008da8:	e5933000 	ldr	r3, [r3]
40008dac:	e50b3024 	str	r3, [fp, #-36]	; 0x24
40008db0:	e51b3024 	ldr	r3, [fp, #-36]	; 0x24
40008db4:	e3530000 	cmp	r3, #0
40008db8:	aa000001 	bge	40008dc4 <vsprintf+0x240>
40008dbc:	e3a03000 	mov	r3, #0
40008dc0:	e50b3024 	str	r3, [fp, #-36]	; 0x24
40008dc4:	e3e03000 	mvn	r3, #0
40008dc8:	e50b3028 	str	r3, [fp, #-40]	; 0x28
40008dcc:	e51b303c 	ldr	r3, [fp, #-60]	; 0x3c
40008dd0:	e5d33000 	ldrb	r3, [r3]
40008dd4:	e3530068 	cmp	r3, #104	; 0x68
40008dd8:	0a000017 	beq	40008e3c <vsprintf+0x2b8>
40008ddc:	e51b303c 	ldr	r3, [fp, #-60]	; 0x3c
40008de0:	e5d33000 	ldrb	r3, [r3]
40008de4:	e353006c 	cmp	r3, #108	; 0x6c
40008de8:	0a000013 	beq	40008e3c <vsprintf+0x2b8>
40008dec:	e51b303c 	ldr	r3, [fp, #-60]	; 0x3c
40008df0:	e5d33000 	ldrb	r3, [r3]
40008df4:	e353004c 	cmp	r3, #76	; 0x4c
40008df8:	0a00000f 	beq	40008e3c <vsprintf+0x2b8>
40008dfc:	e51b303c 	ldr	r3, [fp, #-60]	; 0x3c
40008e00:	e5d33000 	ldrb	r3, [r3]
40008e04:	e353005a 	cmp	r3, #90	; 0x5a
40008e08:	0a00000b 	beq	40008e3c <vsprintf+0x2b8>
40008e0c:	e51b303c 	ldr	r3, [fp, #-60]	; 0x3c
40008e10:	e5d33000 	ldrb	r3, [r3]
40008e14:	e353007a 	cmp	r3, #122	; 0x7a
40008e18:	0a000007 	beq	40008e3c <vsprintf+0x2b8>
40008e1c:	e51b303c 	ldr	r3, [fp, #-60]	; 0x3c
40008e20:	e5d33000 	ldrb	r3, [r3]
40008e24:	e3530074 	cmp	r3, #116	; 0x74
40008e28:	0a000003 	beq	40008e3c <vsprintf+0x2b8>
40008e2c:	e51b303c 	ldr	r3, [fp, #-60]	; 0x3c
40008e30:	e5d33000 	ldrb	r3, [r3]
40008e34:	e3530071 	cmp	r3, #113	; 0x71
40008e38:	1a000012 	bne	40008e88 <vsprintf+0x304>
40008e3c:	e51b303c 	ldr	r3, [fp, #-60]	; 0x3c
40008e40:	e5d33000 	ldrb	r3, [r3]
40008e44:	e50b3028 	str	r3, [fp, #-40]	; 0x28
40008e48:	e51b3028 	ldr	r3, [fp, #-40]	; 0x28
40008e4c:	e353006c 	cmp	r3, #108	; 0x6c
40008e50:	1a000009 	bne	40008e7c <vsprintf+0x2f8>
40008e54:	e51b303c 	ldr	r3, [fp, #-60]	; 0x3c
40008e58:	e2833001 	add	r3, r3, #1
40008e5c:	e5d33000 	ldrb	r3, [r3]
40008e60:	e353006c 	cmp	r3, #108	; 0x6c
40008e64:	1a000004 	bne	40008e7c <vsprintf+0x2f8>
40008e68:	e3a03071 	mov	r3, #113	; 0x71
40008e6c:	e50b3028 	str	r3, [fp, #-40]	; 0x28
40008e70:	e51b303c 	ldr	r3, [fp, #-60]	; 0x3c
40008e74:	e2833001 	add	r3, r3, #1
40008e78:	e50b303c 	str	r3, [fp, #-60]	; 0x3c
40008e7c:	e51b303c 	ldr	r3, [fp, #-60]	; 0x3c
40008e80:	e2833001 	add	r3, r3, #1
40008e84:	e50b303c 	str	r3, [fp, #-60]	; 0x3c
40008e88:	e3a0300a 	mov	r3, #10
40008e8c:	e50b3010 	str	r3, [fp, #-16]
40008e90:	e51b303c 	ldr	r3, [fp, #-60]	; 0x3c
40008e94:	e5d33000 	ldrb	r3, [r3]
40008e98:	e2433025 	sub	r3, r3, #37	; 0x25
40008e9c:	e3530053 	cmp	r3, #83	; 0x53
40008ea0:	979ff103 	ldrls	pc, [pc, r3, lsl #2]
40008ea4:	ea00010d 	b	400092e0 <vsprintf+0x75c>
40008ea8:	40009290 	mulmi	r0, r0, r2
40008eac:	400092e0 	andmi	r9, r0, r0, ror #5
40008eb0:	400092e0 	andmi	r9, r0, r0, ror #5
40008eb4:	400092e0 	andmi	r9, r0, r0, ror #5
40008eb8:	400092e0 	andmi	r9, r0, r0, ror #5
40008ebc:	400092e0 	andmi	r9, r0, r0, ror #5
40008ec0:	400092e0 	andmi	r9, r0, r0, ror #5
40008ec4:	400092e0 	andmi	r9, r0, r0, ror #5
40008ec8:	400092e0 	andmi	r9, r0, r0, ror #5
40008ecc:	400092e0 	andmi	r9, r0, r0, ror #5
40008ed0:	400092e0 	andmi	r9, r0, r0, ror #5
40008ed4:	400092e0 	andmi	r9, r0, r0, ror #5
40008ed8:	400092e0 	andmi	r9, r0, r0, ror #5
40008edc:	400092e0 	andmi	r9, r0, r0, ror #5
40008ee0:	400092e0 	andmi	r9, r0, r0, ror #5
40008ee4:	400092e0 	andmi	r9, r0, r0, ror #5
40008ee8:	400092e0 	andmi	r9, r0, r0, ror #5
40008eec:	400092e0 	andmi	r9, r0, r0, ror #5
40008ef0:	400092e0 	andmi	r9, r0, r0, ror #5
40008ef4:	400092e0 	andmi	r9, r0, r0, ror #5
40008ef8:	400092e0 	andmi	r9, r0, r0, ror #5
40008efc:	400092e0 	andmi	r9, r0, r0, ror #5
40008f00:	400092e0 	andmi	r9, r0, r0, ror #5
40008f04:	400092e0 	andmi	r9, r0, r0, ror #5
40008f08:	400092e0 	andmi	r9, r0, r0, ror #5
40008f0c:	400092e0 	andmi	r9, r0, r0, ror #5
40008f10:	400092e0 	andmi	r9, r0, r0, ror #5
40008f14:	400092e0 	andmi	r9, r0, r0, ror #5
40008f18:	400092e0 	andmi	r9, r0, r0, ror #5
40008f1c:	400092e0 	andmi	r9, r0, r0, ror #5
40008f20:	400092e0 	andmi	r9, r0, r0, ror #5
40008f24:	400092e0 	andmi	r9, r0, r0, ror #5
40008f28:	400092e0 	andmi	r9, r0, r0, ror #5
40008f2c:	400092e0 	andmi	r9, r0, r0, ror #5
40008f30:	400092e0 	andmi	r9, r0, r0, ror #5
40008f34:	400092e0 	andmi	r9, r0, r0, ror #5
40008f38:	400092e0 	andmi	r9, r0, r0, ror #5
40008f3c:	400092e0 	andmi	r9, r0, r0, ror #5
40008f40:	400092e0 	andmi	r9, r0, r0, ror #5
40008f44:	400092e0 	andmi	r9, r0, r0, ror #5
40008f48:	400092e0 	andmi	r9, r0, r0, ror #5
40008f4c:	400092e0 	andmi	r9, r0, r0, ror #5
40008f50:	400092e0 	andmi	r9, r0, r0, ror #5
40008f54:	400092e0 	andmi	r9, r0, r0, ror #5
40008f58:	400092e0 	andmi	r9, r0, r0, ror #5
40008f5c:	400092e0 	andmi	r9, r0, r0, ror #5
40008f60:	400092e0 	andmi	r9, r0, r0, ror #5
40008f64:	400092e0 	andmi	r9, r0, r0, ror #5
40008f68:	400092e0 	andmi	r9, r0, r0, ror #5
40008f6c:	400092e0 	andmi	r9, r0, r0, ror #5
40008f70:	400092e0 	andmi	r9, r0, r0, ror #5
40008f74:	400092b8 			; <UNDEFINED> instruction: 0x400092b8
40008f78:	400092e0 	andmi	r9, r0, r0, ror #5
40008f7c:	400092e0 	andmi	r9, r0, r0, ror #5
40008f80:	400092e0 	andmi	r9, r0, r0, ror #5
40008f84:	400092e0 	andmi	r9, r0, r0, ror #5
40008f88:	400092e0 	andmi	r9, r0, r0, ror #5
40008f8c:	400092e0 	andmi	r9, r0, r0, ror #5
40008f90:	400092e0 	andmi	r9, r0, r0, ror #5
40008f94:	400092e0 	andmi	r9, r0, r0, ror #5
40008f98:	400092e0 	andmi	r9, r0, r0, ror #5
40008f9c:	400092e0 	andmi	r9, r0, r0, ror #5
40008fa0:	40008ff8 	strdmi	r8, [r0], -r8	; <UNPREDICTABLE>
40008fa4:	400092d0 	ldrdmi	r9, [r0], -r0
40008fa8:	400092e0 	andmi	r9, r0, r0, ror #5
40008fac:	400092e0 	andmi	r9, r0, r0, ror #5
40008fb0:	400092e0 	andmi	r9, r0, r0, ror #5
40008fb4:	400092e0 	andmi	r9, r0, r0, ror #5
40008fb8:	400092d0 	ldrdmi	r9, [r0], -r0
40008fbc:	400092e0 	andmi	r9, r0, r0, ror #5
40008fc0:	400092e0 	andmi	r9, r0, r0, ror #5
40008fc4:	400092e0 	andmi	r9, r0, r0, ror #5
40008fc8:	400092e0 	andmi	r9, r0, r0, ror #5
40008fcc:	4000922c 	andmi	r9, r0, ip, lsr #4
40008fd0:	400092ac 	andmi	r9, r0, ip, lsr #5
40008fd4:	400091d0 	ldrdmi	r9, [r0], -r0
40008fd8:	400092e0 	andmi	r9, r0, r0, ror #5
40008fdc:	400092e0 	andmi	r9, r0, r0, ror #5
40008fe0:	4000909c 	mulmi	r0, ip, r0
40008fe4:	400092e0 	andmi	r9, r0, r0, ror #5
40008fe8:	40009338 	andmi	r9, r0, r8, lsr r3
40008fec:	400092e0 	andmi	r9, r0, r0, ror #5
40008ff0:	400092e0 	andmi	r9, r0, r0, ror #5
40008ff4:	400092c4 	andmi	r9, r0, r4, asr #5
40008ff8:	e51b301c 	ldr	r3, [fp, #-28]
40008ffc:	e2033010 	and	r3, r3, #16
40009000:	e3530000 	cmp	r3, #0
40009004:	1a00000c 	bne	4000903c <vsprintf+0x4b8>
40009008:	ea000005 	b	40009024 <vsprintf+0x4a0>
4000900c:	e51b3014 	ldr	r3, [fp, #-20]
40009010:	e3a02020 	mov	r2, #32
40009014:	e5c32000 	strb	r2, [r3]
40009018:	e51b3014 	ldr	r3, [fp, #-20]
4000901c:	e2833001 	add	r3, r3, #1
40009020:	e50b3014 	str	r3, [fp, #-20]
40009024:	e51b3020 	ldr	r3, [fp, #-32]
40009028:	e2433001 	sub	r3, r3, #1
4000902c:	e50b3020 	str	r3, [fp, #-32]
40009030:	e51b3020 	ldr	r3, [fp, #-32]
40009034:	e3530000 	cmp	r3, #0
40009038:	cafffff3 	bgt	4000900c <vsprintf+0x488>
4000903c:	e51b3040 	ldr	r3, [fp, #-64]	; 0x40
40009040:	e2832004 	add	r2, r3, #4
40009044:	e50b2040 	str	r2, [fp, #-64]	; 0x40
40009048:	e5933000 	ldr	r3, [r3]
4000904c:	e20320ff 	and	r2, r3, #255	; 0xff
40009050:	e51b3014 	ldr	r3, [fp, #-20]
40009054:	e5c32000 	strb	r2, [r3]
40009058:	e51b3014 	ldr	r3, [fp, #-20]
4000905c:	e2833001 	add	r3, r3, #1
40009060:	e50b3014 	str	r3, [fp, #-20]
40009064:	ea000005 	b	40009080 <vsprintf+0x4fc>
40009068:	e51b3014 	ldr	r3, [fp, #-20]
4000906c:	e3a02020 	mov	r2, #32
40009070:	e5c32000 	strb	r2, [r3]
40009074:	e51b3014 	ldr	r3, [fp, #-20]
40009078:	e2833001 	add	r3, r3, #1
4000907c:	e50b3014 	str	r3, [fp, #-20]
40009080:	e51b3020 	ldr	r3, [fp, #-32]
40009084:	e2433001 	sub	r3, r3, #1
40009088:	e50b3020 	str	r3, [fp, #-32]
4000908c:	e51b3020 	ldr	r3, [fp, #-32]
40009090:	e3530000 	cmp	r3, #0
40009094:	cafffff3 	bgt	40009068 <vsprintf+0x4e4>
40009098:	ea0000f5 	b	40009474 <vsprintf+0x8f0>
4000909c:	e51b3040 	ldr	r3, [fp, #-64]	; 0x40
400090a0:	e2832004 	add	r2, r3, #4
400090a4:	e50b2040 	str	r2, [fp, #-64]	; 0x40
400090a8:	e5933000 	ldr	r3, [r3]
400090ac:	e50b3018 	str	r3, [fp, #-24]
400090b0:	e51b3018 	ldr	r3, [fp, #-24]
400090b4:	e3530000 	cmp	r3, #0
400090b8:	1a000001 	bne	400090c4 <vsprintf+0x540>
400090bc:	e59f33f4 	ldr	r3, [pc, #1012]	; 400094b8 <vsprintf+0x934>
400090c0:	e50b3018 	str	r3, [fp, #-24]
400090c4:	e51b3024 	ldr	r3, [fp, #-36]	; 0x24
400090c8:	e51b0018 	ldr	r0, [fp, #-24]
400090cc:	e1a01003 	mov	r1, r3
400090d0:	ebfffe8b 	bl	40008b04 <strnlen>
400090d4:	e1a03000 	mov	r3, r0
400090d8:	e50b302c 	str	r3, [fp, #-44]	; 0x2c
400090dc:	e51b301c 	ldr	r3, [fp, #-28]
400090e0:	e2033010 	and	r3, r3, #16
400090e4:	e3530000 	cmp	r3, #0
400090e8:	1a000011 	bne	40009134 <vsprintf+0x5b0>
400090ec:	ea000005 	b	40009108 <vsprintf+0x584>
400090f0:	e51b3014 	ldr	r3, [fp, #-20]
400090f4:	e3a02020 	mov	r2, #32
400090f8:	e5c32000 	strb	r2, [r3]
400090fc:	e51b3014 	ldr	r3, [fp, #-20]
40009100:	e2833001 	add	r3, r3, #1
40009104:	e50b3014 	str	r3, [fp, #-20]
40009108:	e51b2020 	ldr	r2, [fp, #-32]
4000910c:	e51b302c 	ldr	r3, [fp, #-44]	; 0x2c
40009110:	e1520003 	cmp	r2, r3
40009114:	d3a03000 	movle	r3, #0
40009118:	c3a03001 	movgt	r3, #1
4000911c:	e20330ff 	and	r3, r3, #255	; 0xff
40009120:	e51b2020 	ldr	r2, [fp, #-32]
40009124:	e2422001 	sub	r2, r2, #1
40009128:	e50b2020 	str	r2, [fp, #-32]
4000912c:	e3530000 	cmp	r3, #0
40009130:	1affffee 	bne	400090f0 <vsprintf+0x56c>
40009134:	e3a03000 	mov	r3, #0
40009138:	e50b300c 	str	r3, [fp, #-12]
4000913c:	ea00000c 	b	40009174 <vsprintf+0x5f0>
40009140:	e51b3018 	ldr	r3, [fp, #-24]
40009144:	e5d32000 	ldrb	r2, [r3]
40009148:	e51b3014 	ldr	r3, [fp, #-20]
4000914c:	e5c32000 	strb	r2, [r3]
40009150:	e51b3014 	ldr	r3, [fp, #-20]
40009154:	e2833001 	add	r3, r3, #1
40009158:	e50b3014 	str	r3, [fp, #-20]
4000915c:	e51b3018 	ldr	r3, [fp, #-24]
40009160:	e2833001 	add	r3, r3, #1
40009164:	e50b3018 	str	r3, [fp, #-24]
40009168:	e51b300c 	ldr	r3, [fp, #-12]
4000916c:	e2833001 	add	r3, r3, #1
40009170:	e50b300c 	str	r3, [fp, #-12]
40009174:	e51b200c 	ldr	r2, [fp, #-12]
40009178:	e51b302c 	ldr	r3, [fp, #-44]	; 0x2c
4000917c:	e1520003 	cmp	r2, r3
40009180:	baffffee 	blt	40009140 <vsprintf+0x5bc>
40009184:	ea000005 	b	400091a0 <vsprintf+0x61c>
40009188:	e51b3014 	ldr	r3, [fp, #-20]
4000918c:	e3a02020 	mov	r2, #32
40009190:	e5c32000 	strb	r2, [r3]
40009194:	e51b3014 	ldr	r3, [fp, #-20]
40009198:	e2833001 	add	r3, r3, #1
4000919c:	e50b3014 	str	r3, [fp, #-20]
400091a0:	e51b2020 	ldr	r2, [fp, #-32]
400091a4:	e51b302c 	ldr	r3, [fp, #-44]	; 0x2c
400091a8:	e1520003 	cmp	r2, r3
400091ac:	d3a03000 	movle	r3, #0
400091b0:	c3a03001 	movgt	r3, #1
400091b4:	e20330ff 	and	r3, r3, #255	; 0xff
400091b8:	e51b2020 	ldr	r2, [fp, #-32]
400091bc:	e2422001 	sub	r2, r2, #1
400091c0:	e50b2020 	str	r2, [fp, #-32]
400091c4:	e3530000 	cmp	r3, #0
400091c8:	1affffee 	bne	40009188 <vsprintf+0x604>
400091cc:	ea0000a8 	b	40009474 <vsprintf+0x8f0>
400091d0:	e51b3020 	ldr	r3, [fp, #-32]
400091d4:	e3730001 	cmn	r3, #1
400091d8:	1a000004 	bne	400091f0 <vsprintf+0x66c>
400091dc:	e3a03008 	mov	r3, #8
400091e0:	e50b3020 	str	r3, [fp, #-32]
400091e4:	e51b301c 	ldr	r3, [fp, #-28]
400091e8:	e3833001 	orr	r3, r3, #1
400091ec:	e50b301c 	str	r3, [fp, #-28]
400091f0:	e51b3040 	ldr	r3, [fp, #-64]	; 0x40
400091f4:	e2832004 	add	r2, r3, #4
400091f8:	e50b2040 	str	r2, [fp, #-64]	; 0x40
400091fc:	e5933000 	ldr	r3, [r3]
40009200:	e51b2024 	ldr	r2, [fp, #-36]	; 0x24
40009204:	e58d2000 	str	r2, [sp]
40009208:	e51b201c 	ldr	r2, [fp, #-28]
4000920c:	e58d2004 	str	r2, [sp, #4]
40009210:	e51b0014 	ldr	r0, [fp, #-20]
40009214:	e1a01003 	mov	r1, r3
40009218:	e3a02010 	mov	r2, #16
4000921c:	e51b3020 	ldr	r3, [fp, #-32]
40009220:	ebfffd11 	bl	4000866c <number>
40009224:	e50b0014 	str	r0, [fp, #-20]
40009228:	ea000091 	b	40009474 <vsprintf+0x8f0>
4000922c:	e51b3028 	ldr	r3, [fp, #-40]	; 0x28
40009230:	e353006c 	cmp	r3, #108	; 0x6c
40009234:	1a00000a 	bne	40009264 <vsprintf+0x6e0>
40009238:	e51b3040 	ldr	r3, [fp, #-64]	; 0x40
4000923c:	e2832004 	add	r2, r3, #4
40009240:	e50b2040 	str	r2, [fp, #-64]	; 0x40
40009244:	e5933000 	ldr	r3, [r3]
40009248:	e50b3030 	str	r3, [fp, #-48]	; 0x30
4000924c:	e51b2014 	ldr	r2, [fp, #-20]
40009250:	e51b3038 	ldr	r3, [fp, #-56]	; 0x38
40009254:	e0632002 	rsb	r2, r3, r2
40009258:	e51b3030 	ldr	r3, [fp, #-48]	; 0x30
4000925c:	e5832000 	str	r2, [r3]
40009260:	ea000083 	b	40009474 <vsprintf+0x8f0>
40009264:	e51b3040 	ldr	r3, [fp, #-64]	; 0x40
40009268:	e2832004 	add	r2, r3, #4
4000926c:	e50b2040 	str	r2, [fp, #-64]	; 0x40
40009270:	e5933000 	ldr	r3, [r3]
40009274:	e50b3034 	str	r3, [fp, #-52]	; 0x34
40009278:	e51b2014 	ldr	r2, [fp, #-20]
4000927c:	e51b3038 	ldr	r3, [fp, #-56]	; 0x38
40009280:	e0632002 	rsb	r2, r3, r2
40009284:	e51b3034 	ldr	r3, [fp, #-52]	; 0x34
40009288:	e5832000 	str	r2, [r3]
4000928c:	ea000078 	b	40009474 <vsprintf+0x8f0>
40009290:	e51b3014 	ldr	r3, [fp, #-20]
40009294:	e3a02025 	mov	r2, #37	; 0x25
40009298:	e5c32000 	strb	r2, [r3]
4000929c:	e51b3014 	ldr	r3, [fp, #-20]
400092a0:	e2833001 	add	r3, r3, #1
400092a4:	e50b3014 	str	r3, [fp, #-20]
400092a8:	ea000071 	b	40009474 <vsprintf+0x8f0>
400092ac:	e3a03008 	mov	r3, #8
400092b0:	e50b3010 	str	r3, [fp, #-16]
400092b4:	ea000020 	b	4000933c <vsprintf+0x7b8>
400092b8:	e51b301c 	ldr	r3, [fp, #-28]
400092bc:	e3833040 	orr	r3, r3, #64	; 0x40
400092c0:	e50b301c 	str	r3, [fp, #-28]
400092c4:	e3a03010 	mov	r3, #16
400092c8:	e50b3010 	str	r3, [fp, #-16]
400092cc:	ea00001a 	b	4000933c <vsprintf+0x7b8>
400092d0:	e51b301c 	ldr	r3, [fp, #-28]
400092d4:	e3833002 	orr	r3, r3, #2
400092d8:	e50b301c 	str	r3, [fp, #-28]
400092dc:	ea000015 	b	40009338 <vsprintf+0x7b4>
400092e0:	e51b3014 	ldr	r3, [fp, #-20]
400092e4:	e3a02025 	mov	r2, #37	; 0x25
400092e8:	e5c32000 	strb	r2, [r3]
400092ec:	e51b3014 	ldr	r3, [fp, #-20]
400092f0:	e2833001 	add	r3, r3, #1
400092f4:	e50b3014 	str	r3, [fp, #-20]
400092f8:	e51b303c 	ldr	r3, [fp, #-60]	; 0x3c
400092fc:	e5d33000 	ldrb	r3, [r3]
40009300:	e3530000 	cmp	r3, #0
40009304:	0a000007 	beq	40009328 <vsprintf+0x7a4>
40009308:	e51b303c 	ldr	r3, [fp, #-60]	; 0x3c
4000930c:	e5d32000 	ldrb	r2, [r3]
40009310:	e51b3014 	ldr	r3, [fp, #-20]
40009314:	e5c32000 	strb	r2, [r3]
40009318:	e51b3014 	ldr	r3, [fp, #-20]
4000931c:	e2833001 	add	r3, r3, #1
40009320:	e50b3014 	str	r3, [fp, #-20]
40009324:	ea000052 	b	40009474 <vsprintf+0x8f0>
40009328:	e51b303c 	ldr	r3, [fp, #-60]	; 0x3c
4000932c:	e2433001 	sub	r3, r3, #1
40009330:	e50b303c 	str	r3, [fp, #-60]	; 0x3c
40009334:	ea00004e 	b	40009474 <vsprintf+0x8f0>
40009338:	e1a00000 	nop			; (mov r0, r0)
4000933c:	e51b3028 	ldr	r3, [fp, #-40]	; 0x28
40009340:	e353006c 	cmp	r3, #108	; 0x6c
40009344:	1a000005 	bne	40009360 <vsprintf+0x7dc>
40009348:	e51b3040 	ldr	r3, [fp, #-64]	; 0x40
4000934c:	e2832004 	add	r2, r3, #4
40009350:	e50b2040 	str	r2, [fp, #-64]	; 0x40
40009354:	e5933000 	ldr	r3, [r3]
40009358:	e50b3008 	str	r3, [fp, #-8]
4000935c:	ea000038 	b	40009444 <vsprintf+0x8c0>
40009360:	e51b3028 	ldr	r3, [fp, #-40]	; 0x28
40009364:	e353005a 	cmp	r3, #90	; 0x5a
40009368:	0a000002 	beq	40009378 <vsprintf+0x7f4>
4000936c:	e51b3028 	ldr	r3, [fp, #-40]	; 0x28
40009370:	e353007a 	cmp	r3, #122	; 0x7a
40009374:	1a000005 	bne	40009390 <vsprintf+0x80c>
40009378:	e51b3040 	ldr	r3, [fp, #-64]	; 0x40
4000937c:	e2832004 	add	r2, r3, #4
40009380:	e50b2040 	str	r2, [fp, #-64]	; 0x40
40009384:	e5933000 	ldr	r3, [r3]
40009388:	e50b3008 	str	r3, [fp, #-8]
4000938c:	ea00002c 	b	40009444 <vsprintf+0x8c0>
40009390:	e51b3028 	ldr	r3, [fp, #-40]	; 0x28
40009394:	e3530074 	cmp	r3, #116	; 0x74
40009398:	1a000005 	bne	400093b4 <vsprintf+0x830>
4000939c:	e51b3040 	ldr	r3, [fp, #-64]	; 0x40
400093a0:	e2832004 	add	r2, r3, #4
400093a4:	e50b2040 	str	r2, [fp, #-64]	; 0x40
400093a8:	e5933000 	ldr	r3, [r3]
400093ac:	e50b3008 	str	r3, [fp, #-8]
400093b0:	ea000023 	b	40009444 <vsprintf+0x8c0>
400093b4:	e51b3028 	ldr	r3, [fp, #-40]	; 0x28
400093b8:	e3530068 	cmp	r3, #104	; 0x68
400093bc:	1a000011 	bne	40009408 <vsprintf+0x884>
400093c0:	e51b3040 	ldr	r3, [fp, #-64]	; 0x40
400093c4:	e2832004 	add	r2, r3, #4
400093c8:	e50b2040 	str	r2, [fp, #-64]	; 0x40
400093cc:	e5933000 	ldr	r3, [r3]
400093d0:	e1a03803 	lsl	r3, r3, #16
400093d4:	e1a03823 	lsr	r3, r3, #16
400093d8:	e50b3008 	str	r3, [fp, #-8]
400093dc:	e51b301c 	ldr	r3, [fp, #-28]
400093e0:	e2033002 	and	r3, r3, #2
400093e4:	e3530000 	cmp	r3, #0
400093e8:	0a000015 	beq	40009444 <vsprintf+0x8c0>
400093ec:	e51b3008 	ldr	r3, [fp, #-8]
400093f0:	e1a03803 	lsl	r3, r3, #16
400093f4:	e1a03823 	lsr	r3, r3, #16
400093f8:	e1a03803 	lsl	r3, r3, #16
400093fc:	e1a03843 	asr	r3, r3, #16
40009400:	e50b3008 	str	r3, [fp, #-8]
40009404:	ea00000e 	b	40009444 <vsprintf+0x8c0>
40009408:	e51b301c 	ldr	r3, [fp, #-28]
4000940c:	e2033002 	and	r3, r3, #2
40009410:	e3530000 	cmp	r3, #0
40009414:	0a000005 	beq	40009430 <vsprintf+0x8ac>
40009418:	e51b3040 	ldr	r3, [fp, #-64]	; 0x40
4000941c:	e2832004 	add	r2, r3, #4
40009420:	e50b2040 	str	r2, [fp, #-64]	; 0x40
40009424:	e5933000 	ldr	r3, [r3]
40009428:	e50b3008 	str	r3, [fp, #-8]
4000942c:	ea000004 	b	40009444 <vsprintf+0x8c0>
40009430:	e51b3040 	ldr	r3, [fp, #-64]	; 0x40
40009434:	e2832004 	add	r2, r3, #4
40009438:	e50b2040 	str	r2, [fp, #-64]	; 0x40
4000943c:	e5933000 	ldr	r3, [r3]
40009440:	e50b3008 	str	r3, [fp, #-8]
40009444:	e51b2008 	ldr	r2, [fp, #-8]
40009448:	e51b3010 	ldr	r3, [fp, #-16]
4000944c:	e51b1024 	ldr	r1, [fp, #-36]	; 0x24
40009450:	e58d1000 	str	r1, [sp]
40009454:	e51b101c 	ldr	r1, [fp, #-28]
40009458:	e58d1004 	str	r1, [sp, #4]
4000945c:	e51b0014 	ldr	r0, [fp, #-20]
40009460:	e1a01002 	mov	r1, r2
40009464:	e1a02003 	mov	r2, r3
40009468:	e51b3020 	ldr	r3, [fp, #-32]
4000946c:	ebfffc7e 	bl	4000866c <number>
40009470:	e50b0014 	str	r0, [fp, #-20]
40009474:	e51b303c 	ldr	r3, [fp, #-60]	; 0x3c
40009478:	e2833001 	add	r3, r3, #1
4000947c:	e50b303c 	str	r3, [fp, #-60]	; 0x3c
40009480:	e51b303c 	ldr	r3, [fp, #-60]	; 0x3c
40009484:	e5d33000 	ldrb	r3, [r3]
40009488:	e3530000 	cmp	r3, #0
4000948c:	1afffdc5 	bne	40008ba8 <vsprintf+0x24>
40009490:	e51b3014 	ldr	r3, [fp, #-20]
40009494:	e3a02000 	mov	r2, #0
40009498:	e5c32000 	strb	r2, [r3]
4000949c:	e51b2014 	ldr	r2, [fp, #-20]
400094a0:	e51b3038 	ldr	r3, [fp, #-56]	; 0x38
400094a4:	e0633002 	rsb	r3, r3, r2
400094a8:	e1a00003 	mov	r0, r3
400094ac:	e24bd004 	sub	sp, fp, #4
400094b0:	e8bd4800 	pop	{fp, lr}
400094b4:	e12fff1e 	bx	lr
400094b8:	40009a28 	andmi	r9, r0, r8, lsr #20

400094bc <sprintf>:
400094bc:	e92d000e 	push	{r1, r2, r3}
400094c0:	e92d4800 	push	{fp, lr}
400094c4:	e28db004 	add	fp, sp, #4
400094c8:	e24dd00c 	sub	sp, sp, #12
400094cc:	e50b0010 	str	r0, [fp, #-16]
400094d0:	e28b2008 	add	r2, fp, #8
400094d4:	e24b300c 	sub	r3, fp, #12
400094d8:	e5832000 	str	r2, [r3]
400094dc:	e51b300c 	ldr	r3, [fp, #-12]
400094e0:	e51b0010 	ldr	r0, [fp, #-16]
400094e4:	e59b1004 	ldr	r1, [fp, #4]
400094e8:	e1a02003 	mov	r2, r3
400094ec:	ebfffda4 	bl	40008b84 <vsprintf>
400094f0:	e50b0008 	str	r0, [fp, #-8]
400094f4:	e51b3008 	ldr	r3, [fp, #-8]
400094f8:	e1a00003 	mov	r0, r3
400094fc:	e24bd004 	sub	sp, fp, #4
40009500:	e8bd4800 	pop	{fp, lr}
40009504:	e28dd00c 	add	sp, sp, #12
40009508:	e12fff1e 	bx	lr

4000950c <printf>:
4000950c:	e92d000f 	push	{r0, r1, r2, r3}
40009510:	e92d4800 	push	{fp, lr}
40009514:	e28db004 	add	fp, sp, #4
40009518:	e24dd06c 	sub	sp, sp, #108	; 0x6c
4000951c:	e28b2008 	add	r2, fp, #8
40009520:	e24b300c 	sub	r3, fp, #12
40009524:	e5832000 	str	r2, [r3]
40009528:	e51b300c 	ldr	r3, [fp, #-12]
4000952c:	e24b2070 	sub	r2, fp, #112	; 0x70
40009530:	e1a00002 	mov	r0, r2
40009534:	e59b1004 	ldr	r1, [fp, #4]
40009538:	e1a02003 	mov	r2, r3
4000953c:	ebfffd90 	bl	40008b84 <vsprintf>
40009540:	e1a03000 	mov	r3, r0
40009544:	e50b3008 	str	r3, [fp, #-8]
40009548:	e24b3070 	sub	r3, fp, #112	; 0x70
4000954c:	e1a00003 	mov	r0, r3
40009550:	eb000033 	bl	40009624 <puts>
40009554:	e24bd004 	sub	sp, fp, #4
40009558:	e8bd4800 	pop	{fp, lr}
4000955c:	e28dd010 	add	sp, sp, #16
40009560:	e12fff1e 	bx	lr

40009564 <uart_init>:
40009564:	e52db004 	push	{fp}		; (str fp, [sp, #-4]!)
40009568:	e28db000 	add	fp, sp, #0
4000956c:	e59f304c 	ldr	r3, [pc, #76]	; 400095c0 <uart_init+0x5c>
40009570:	e59f2048 	ldr	r2, [pc, #72]	; 400095c0 <uart_init+0x5c>
40009574:	e5922000 	ldr	r2, [r2]
40009578:	e3c220ff 	bic	r2, r2, #255	; 0xff
4000957c:	e3822022 	orr	r2, r2, #34	; 0x22
40009580:	e5832000 	str	r2, [r3]
40009584:	e59f3038 	ldr	r3, [pc, #56]	; 400095c4 <uart_init+0x60>
40009588:	e3a02003 	mov	r2, #3
4000958c:	e5832000 	str	r2, [r3]
40009590:	e59f302c 	ldr	r3, [pc, #44]	; 400095c4 <uart_init+0x60>
40009594:	e3a02005 	mov	r2, #5
40009598:	e5832004 	str	r2, [r3, #4]
4000959c:	e59f3020 	ldr	r3, [pc, #32]	; 400095c4 <uart_init+0x60>
400095a0:	e3a02035 	mov	r2, #53	; 0x35
400095a4:	e5832028 	str	r2, [r3, #40]	; 0x28
400095a8:	e59f3014 	ldr	r3, [pc, #20]	; 400095c4 <uart_init+0x60>
400095ac:	e3a02005 	mov	r2, #5
400095b0:	e583202c 	str	r2, [r3, #44]	; 0x2c
400095b4:	e28bd000 	add	sp, fp, #0
400095b8:	e8bd0800 	pop	{fp}
400095bc:	e12fff1e 	bx	lr
400095c0:	11400020 	cmpne	r0, r0, lsr #32
400095c4:	13820000 	orrne	r0, r2, #0

400095c8 <putc>:
400095c8:	e92d4800 	push	{fp, lr}
400095cc:	e28db004 	add	fp, sp, #4
400095d0:	e24dd004 	sub	sp, sp, #4
400095d4:	e1a03000 	mov	r3, r0
400095d8:	e54b3008 	strb	r3, [fp, #-8]
400095dc:	e1a00000 	nop			; (mov r0, r0)
400095e0:	e59f3038 	ldr	r3, [pc, #56]	; 40009620 <putc+0x58>
400095e4:	e5933010 	ldr	r3, [r3, #16]
400095e8:	e2033002 	and	r3, r3, #2
400095ec:	e3530000 	cmp	r3, #0
400095f0:	0afffffa 	beq	400095e0 <putc+0x18>
400095f4:	e59f3024 	ldr	r3, [pc, #36]	; 40009620 <putc+0x58>
400095f8:	e55b2008 	ldrb	r2, [fp, #-8]
400095fc:	e5832020 	str	r2, [r3, #32]
40009600:	e55b3008 	ldrb	r3, [fp, #-8]
40009604:	e353000a 	cmp	r3, #10
40009608:	1a000001 	bne	40009614 <putc+0x4c>
4000960c:	e3a0000d 	mov	r0, #13
40009610:	ebffffec 	bl	400095c8 <putc>
40009614:	e24bd004 	sub	sp, fp, #4
40009618:	e8bd4800 	pop	{fp, lr}
4000961c:	e12fff1e 	bx	lr
40009620:	13820000 	orrne	r0, r2, #0

40009624 <puts>:
40009624:	e92d4800 	push	{fp, lr}
40009628:	e28db004 	add	fp, sp, #4
4000962c:	e24dd004 	sub	sp, sp, #4
40009630:	e50b0008 	str	r0, [fp, #-8]
40009634:	ea000006 	b	40009654 <puts+0x30>
40009638:	e51b3008 	ldr	r3, [fp, #-8]
4000963c:	e5d33000 	ldrb	r3, [r3]
40009640:	e51b2008 	ldr	r2, [fp, #-8]
40009644:	e2822001 	add	r2, r2, #1
40009648:	e50b2008 	str	r2, [fp, #-8]
4000964c:	e1a00003 	mov	r0, r3
40009650:	ebffffdc 	bl	400095c8 <putc>
40009654:	e51b3008 	ldr	r3, [fp, #-8]
40009658:	e5d33000 	ldrb	r3, [r3]
4000965c:	e3530000 	cmp	r3, #0
40009660:	1afffff4 	bne	40009638 <puts+0x14>
40009664:	e24bd004 	sub	sp, fp, #4
40009668:	e8bd4800 	pop	{fp, lr}
4000966c:	e12fff1e 	bx	lr

40009670 <getchar>:
40009670:	e52db004 	push	{fp}		; (str fp, [sp, #-4]!)
40009674:	e28db000 	add	fp, sp, #0
40009678:	e24dd004 	sub	sp, sp, #4
4000967c:	e1a00000 	nop			; (mov r0, r0)
40009680:	e59f302c 	ldr	r3, [pc, #44]	; 400096b4 <getchar+0x44>
40009684:	e5933010 	ldr	r3, [r3, #16]
40009688:	e2033001 	and	r3, r3, #1
4000968c:	e3530000 	cmp	r3, #0
40009690:	0afffffa 	beq	40009680 <getchar+0x10>
40009694:	e59f3018 	ldr	r3, [pc, #24]	; 400096b4 <getchar+0x44>
40009698:	e5933024 	ldr	r3, [r3, #36]	; 0x24
4000969c:	e54b3001 	strb	r3, [fp, #-1]
400096a0:	e55b3001 	ldrb	r3, [fp, #-1]
400096a4:	e1a00003 	mov	r0, r3
400096a8:	e28bd000 	add	sp, fp, #0
400096ac:	e8bd0800 	pop	{fp}
400096b0:	e12fff1e 	bx	lr
400096b4:	13820000 	orrne	r0, r2, #0

400096b8 <__udivsi3>:
400096b8:	e3510000 	cmp	r1, #0
400096bc:	0a00001f 	beq	40009740 <Ldiv0>
400096c0:	e3a03001 	mov	r3, #1
400096c4:	e3a02000 	mov	r2, #0
400096c8:	e1500001 	cmp	r0, r1
400096cc:	3a000019 	bcc	40009738 <Lgot_result>

400096d0 <Loop1>:
400096d0:	e3510201 	cmp	r1, #268435456	; 0x10000000
400096d4:	31510000 	cmpcc	r1, r0
400096d8:	31a01201 	lslcc	r1, r1, #4
400096dc:	31a03203 	lslcc	r3, r3, #4
400096e0:	3afffffa 	bcc	400096d0 <Loop1>

400096e4 <Lbignum>:
400096e4:	e3510102 	cmp	r1, #-2147483648	; 0x80000000
400096e8:	31510000 	cmpcc	r1, r0
400096ec:	31a01081 	lslcc	r1, r1, #1
400096f0:	31a03083 	lslcc	r3, r3, #1
400096f4:	3afffffa 	bcc	400096e4 <Lbignum>

400096f8 <Loop3>:
400096f8:	e1500001 	cmp	r0, r1
400096fc:	20400001 	subcs	r0, r0, r1
40009700:	21822003 	orrcs	r2, r2, r3
40009704:	e15000a1 	cmp	r0, r1, lsr #1
40009708:	204000a1 	subcs	r0, r0, r1, lsr #1
4000970c:	218220a3 	orrcs	r2, r2, r3, lsr #1
40009710:	e1500121 	cmp	r0, r1, lsr #2
40009714:	20400121 	subcs	r0, r0, r1, lsr #2
40009718:	21822123 	orrcs	r2, r2, r3, lsr #2
4000971c:	e15001a1 	cmp	r0, r1, lsr #3
40009720:	204001a1 	subcs	r0, r0, r1, lsr #3
40009724:	218221a3 	orrcs	r2, r2, r3, lsr #3
40009728:	e3500000 	cmp	r0, #0
4000972c:	11b03223 	lsrsne	r3, r3, #4
40009730:	11a01221 	lsrne	r1, r1, #4
40009734:	1affffef 	bne	400096f8 <Loop3>

40009738 <Lgot_result>:
40009738:	e1a00002 	mov	r0, r2
4000973c:	e1a0f00e 	mov	pc, lr

40009740 <Ldiv0>:
40009740:	e52de004 	push	{lr}		; (str lr, [sp, #-4]!)
40009744:	e3a00000 	mov	r0, #0
40009748:	e8bd8000 	pop	{pc}

4000974c <__umodsi3>:
4000974c:	e3510000 	cmp	r1, #0
40009750:	0a000026 	beq	400097f0 <Ldiv0>
40009754:	e3a03001 	mov	r3, #1
40009758:	e1500001 	cmp	r0, r1
4000975c:	31a0f00e 	movcc	pc, lr

40009760 <Loop1>:
40009760:	e3510201 	cmp	r1, #268435456	; 0x10000000
40009764:	31510000 	cmpcc	r1, r0
40009768:	31a01201 	lslcc	r1, r1, #4
4000976c:	31a03203 	lslcc	r3, r3, #4
40009770:	3afffffa 	bcc	40009760 <Loop1>

40009774 <Lbignum>:
40009774:	e3510102 	cmp	r1, #-2147483648	; 0x80000000
40009778:	31510000 	cmpcc	r1, r0
4000977c:	31a01081 	lslcc	r1, r1, #1
40009780:	31a03083 	lslcc	r3, r3, #1
40009784:	3afffffa 	bcc	40009774 <Lbignum>

40009788 <Loop3>:
40009788:	e3a02000 	mov	r2, #0
4000978c:	e1500001 	cmp	r0, r1
40009790:	20400001 	subcs	r0, r0, r1
40009794:	e15000a1 	cmp	r0, r1, lsr #1
40009798:	204000a1 	subcs	r0, r0, r1, lsr #1
4000979c:	218220e3 	orrcs	r2, r2, r3, ror #1
400097a0:	e1500121 	cmp	r0, r1, lsr #2
400097a4:	20400121 	subcs	r0, r0, r1, lsr #2
400097a8:	21822163 	orrcs	r2, r2, r3, ror #2
400097ac:	e15001a1 	cmp	r0, r1, lsr #3
400097b0:	204001a1 	subcs	r0, r0, r1, lsr #3
400097b4:	218221e3 	orrcs	r2, r2, r3, ror #3
400097b8:	e1a0c003 	mov	ip, r3
400097bc:	e3500000 	cmp	r0, #0
400097c0:	11b03223 	lsrsne	r3, r3, #4
400097c4:	11a01221 	lsrne	r1, r1, #4
400097c8:	1affffee 	bne	40009788 <Loop3>
400097cc:	e212220e 	ands	r2, r2, #-536870912	; 0xe0000000
400097d0:	01a0f00e 	moveq	pc, lr
400097d4:	e11201ec 	tst	r2, ip, ror #3
400097d8:	108001a1 	addne	r0, r0, r1, lsr #3
400097dc:	e112016c 	tst	r2, ip, ror #2
400097e0:	10800121 	addne	r0, r0, r1, lsr #2
400097e4:	e11200ec 	tst	r2, ip, ror #1
400097e8:	108000a1 	addne	r0, r0, r1, lsr #1
400097ec:	e1a0f00e 	mov	pc, lr

400097f0 <Ldiv0>:
400097f0:	e52de004 	push	{lr}		; (str lr, [sp, #-4]!)
400097f4:	e3a00000 	mov	r0, #0
400097f8:	e8bd8000 	pop	{pc}

400097fc <mydelay_ms>:
400097fc:	e52db004 	push	{fp}		; (str fp, [sp, #-4]!)
40009800:	e28db000 	add	fp, sp, #0
40009804:	e24dd00c 	sub	sp, sp, #12
40009808:	e50b000c 	str	r0, [fp, #-12]
4000980c:	ea000012 	b	4000985c <mydelay_ms+0x60>
40009810:	e3a03000 	mov	r3, #0
40009814:	e50b3004 	str	r3, [fp, #-4]
40009818:	ea00000c 	b	40009850 <mydelay_ms+0x54>
4000981c:	e3a03000 	mov	r3, #0
40009820:	e50b3008 	str	r3, [fp, #-8]
40009824:	ea000002 	b	40009834 <mydelay_ms+0x38>
40009828:	e51b3008 	ldr	r3, [fp, #-8]
4000982c:	e2833001 	add	r3, r3, #1
40009830:	e50b3008 	str	r3, [fp, #-8]
40009834:	e51b2008 	ldr	r2, [fp, #-8]
40009838:	e59f3050 	ldr	r3, [pc, #80]	; 40009890 <mydelay_ms+0x94>
4000983c:	e1520003 	cmp	r2, r3
40009840:	dafffff8 	ble	40009828 <mydelay_ms+0x2c>
40009844:	e51b3004 	ldr	r3, [fp, #-4]
40009848:	e2833001 	add	r3, r3, #1
4000984c:	e50b3004 	str	r3, [fp, #-4]
40009850:	e51b3004 	ldr	r3, [fp, #-4]
40009854:	e3530004 	cmp	r3, #4
40009858:	daffffef 	ble	4000981c <mydelay_ms+0x20>
4000985c:	e51b300c 	ldr	r3, [fp, #-12]
40009860:	e3530000 	cmp	r3, #0
40009864:	03a03000 	moveq	r3, #0
40009868:	13a03001 	movne	r3, #1
4000986c:	e20330ff 	and	r3, r3, #255	; 0xff
40009870:	e51b200c 	ldr	r2, [fp, #-12]
40009874:	e2422001 	sub	r2, r2, #1
40009878:	e50b200c 	str	r2, [fp, #-12]
4000987c:	e3530000 	cmp	r3, #0
40009880:	1affffe2 	bne	40009810 <mydelay_ms+0x14>
40009884:	e28bd000 	add	sp, fp, #0
40009888:	e8bd0800 	pop	{fp}
4000988c:	e12fff1e 	bx	lr
40009890:	00000201 	andeq	r0, r0, r1, lsl #4

40009894 <mmu_setmtt>:
40009894:	e52db004 	push	{fp}		; (str fp, [sp, #-4]!)
40009898:	e28db000 	add	fp, sp, #0
4000989c:	e24dd01c 	sub	sp, sp, #28
400098a0:	e50b0010 	str	r0, [fp, #-16]
400098a4:	e50b1014 	str	r1, [fp, #-20]
400098a8:	e50b2018 	str	r2, [fp, #-24]
400098ac:	e50b301c 	str	r3, [fp, #-28]
400098b0:	e51b3010 	ldr	r3, [fp, #-16]
400098b4:	e1a03a23 	lsr	r3, r3, #20
400098b8:	e1a03103 	lsl	r3, r3, #2
400098bc:	e2833441 	add	r3, r3, #1090519040	; 0x41000000
400098c0:	e50b3004 	str	r3, [fp, #-4]
400098c4:	e51b3014 	ldr	r3, [fp, #-20]
400098c8:	e1a02a23 	lsr	r2, r3, #20
400098cc:	e51b3010 	ldr	r3, [fp, #-16]
400098d0:	e1a03a23 	lsr	r3, r3, #20
400098d4:	e0633002 	rsb	r3, r3, r2
400098d8:	e50b300c 	str	r3, [fp, #-12]
400098dc:	e3a03000 	mov	r3, #0
400098e0:	e50b3008 	str	r3, [fp, #-8]
400098e4:	ea00000e 	b	40009924 <mmu_setmtt+0x90>
400098e8:	e51b3018 	ldr	r3, [fp, #-24]
400098ec:	e1a02a23 	lsr	r2, r3, #20
400098f0:	e51b3008 	ldr	r3, [fp, #-8]
400098f4:	e0823003 	add	r3, r2, r3
400098f8:	e1a02a03 	lsl	r2, r3, #20
400098fc:	e51b301c 	ldr	r3, [fp, #-28]
40009900:	e1822003 	orr	r2, r2, r3
40009904:	e51b3004 	ldr	r3, [fp, #-4]
40009908:	e5832000 	str	r2, [r3]
4000990c:	e51b3004 	ldr	r3, [fp, #-4]
40009910:	e2833004 	add	r3, r3, #4
40009914:	e50b3004 	str	r3, [fp, #-4]
40009918:	e51b3008 	ldr	r3, [fp, #-8]
4000991c:	e2833001 	add	r3, r3, #1
40009920:	e50b3008 	str	r3, [fp, #-8]
40009924:	e51b2008 	ldr	r2, [fp, #-8]
40009928:	e51b300c 	ldr	r3, [fp, #-12]
4000992c:	e1520003 	cmp	r2, r3
40009930:	baffffec 	blt	400098e8 <mmu_setmtt+0x54>
40009934:	e28bd000 	add	sp, fp, #0
40009938:	e8bd0800 	pop	{fp}
4000993c:	e12fff1e 	bx	lr

40009940 <main>:
40009940:	e92d4800 	push	{fp, lr}
40009944:	e28db004 	add	fp, sp, #4
40009948:	e24dd004 	sub	sp, sp, #4
4000994c:	ebffff04 	bl	40009564 <uart_init>
40009950:	e3a00000 	mov	r0, #0
40009954:	e3a014ff 	mov	r1, #-16777216	; 0xff000000
40009958:	e3a02000 	mov	r2, #0
4000995c:	e59f306c 	ldr	r3, [pc, #108]	; 400099d0 <main+0x90>
40009960:	ebffffcb 	bl	40009894 <mmu_setmtt>
40009964:	e3a00491 	mov	r0, #-1862270976	; 0x91000000
40009968:	e3a01492 	mov	r1, #-1845493760	; 0x92000000
4000996c:	e3a02411 	mov	r2, #285212672	; 0x11000000
40009970:	e59f3058 	ldr	r3, [pc, #88]	; 400099d0 <main+0x90>
40009974:	ebffffc6 	bl	40009894 <mmu_setmtt>
40009978:	ebfff9ec 	bl	40008130 <mmu_set>
4000997c:	e59f3050 	ldr	r3, [pc, #80]	; 400099d4 <main+0x94>
40009980:	e59f204c 	ldr	r2, [pc, #76]	; 400099d4 <main+0x94>
40009984:	e5922000 	ldr	r2, [r2]
40009988:	e3c2200f 	bic	r2, r2, #15
4000998c:	e3822001 	orr	r2, r2, #1
40009990:	e5832000 	str	r2, [r3]
40009994:	e59f3038 	ldr	r3, [pc, #56]	; 400099d4 <main+0x94>
40009998:	e59f2034 	ldr	r2, [pc, #52]	; 400099d4 <main+0x94>
4000999c:	e5922004 	ldr	r2, [r2, #4]
400099a0:	e3822001 	orr	r2, r2, #1
400099a4:	e5832004 	str	r2, [r3, #4]
400099a8:	e3a00f7d 	mov	r0, #500	; 0x1f4
400099ac:	ebffff92 	bl	400097fc <mydelay_ms>
400099b0:	e59f301c 	ldr	r3, [pc, #28]	; 400099d4 <main+0x94>
400099b4:	e59f2018 	ldr	r2, [pc, #24]	; 400099d4 <main+0x94>
400099b8:	e5922004 	ldr	r2, [r2, #4]
400099bc:	e3c22001 	bic	r2, r2, #1
400099c0:	e5832004 	str	r2, [r3, #4]
400099c4:	e3a00f7d 	mov	r0, #500	; 0x1f4
400099c8:	ebffff8b 	bl	400097fc <mydelay_ms>
400099cc:	eafffff0 	b	40009994 <main+0x54>
400099d0:	00000c12 	andeq	r0, r0, r2, lsl ip
400099d4:	91000c20 	tstls	r0, r0, lsr #24

Disassembly of section .rodata:

400099d8 <.rodata>:
400099d8:	33323130 	teqcc	r2, #12
400099dc:	37363534 			; <UNDEFINED> instruction: 0x37363534
400099e0:	62613938 	rsbvs	r3, r1, #917504	; 0xe0000
400099e4:	66656463 	strbtvs	r6, [r5], -r3, ror #8
400099e8:	6a696867 	bvs	41a63b8c <_ctype+0x1a5995c>
400099ec:	6e6d6c6b 	cdpvs	12, 6, cr6, cr13, cr11, {3}
400099f0:	7271706f 	rsbsvc	r7, r1, #111	; 0x6f
400099f4:	76757473 			; <UNDEFINED> instruction: 0x76757473
400099f8:	7a797877 	bvc	41e67bdc <_ctype+0x1e5d9ac>
400099fc:	00000000 	andeq	r0, r0, r0
40009a00:	33323130 	teqcc	r2, #12
40009a04:	37363534 			; <UNDEFINED> instruction: 0x37363534
40009a08:	42413938 	submi	r3, r1, #917504	; 0xe0000
40009a0c:	46454443 	strbmi	r4, [r5], -r3, asr #8
40009a10:	4a494847 	bmi	4125bb34 <_ctype+0x1251904>
40009a14:	4e4d4c4b 	cdpmi	12, 4, cr4, cr13, cr11, {2}
40009a18:	5251504f 	subspl	r5, r1, #79	; 0x4f
40009a1c:	56555453 			; <UNDEFINED> instruction: 0x56555453
40009a20:	5a595857 	bpl	4165fb84 <_ctype+0x1655954>
40009a24:	00000000 	andeq	r0, r0, r0
40009a28:	4c554e3c 	mrrcmi	14, 3, r4, r5, cr12
40009a2c:	00003e4c 	andeq	r3, r0, ip, asr #28

Disassembly of section .data:

40009a30 <stack>:
	...

4000a230 <_ctype>:
4000a230:	08080808 	stmdaeq	r8, {r3, fp}
4000a234:	08080808 	stmdaeq	r8, {r3, fp}
4000a238:	28282808 	stmdacs	r8!, {r3, fp, sp}
4000a23c:	08082828 	stmdaeq	r8, {r3, r5, fp, sp}
4000a240:	08080808 	stmdaeq	r8, {r3, fp}
4000a244:	08080808 	stmdaeq	r8, {r3, fp}
4000a248:	08080808 	stmdaeq	r8, {r3, fp}
4000a24c:	08080808 	stmdaeq	r8, {r3, fp}
4000a250:	101010a0 	andsne	r1, r0, r0, lsr #1
4000a254:	10101010 	andsne	r1, r0, r0, lsl r0
4000a258:	10101010 	andsne	r1, r0, r0, lsl r0
4000a25c:	10101010 	andsne	r1, r0, r0, lsl r0
4000a260:	04040404 	streq	r0, [r4], #-1028	; 0x404
4000a264:	04040404 	streq	r0, [r4], #-1028	; 0x404
4000a268:	10100404 	andsne	r0, r0, r4, lsl #8
4000a26c:	10101010 	andsne	r1, r0, r0, lsl r0
4000a270:	41414110 	cmpmi	r1, r0, lsl r1
4000a274:	01414141 	cmpeq	r1, r1, asr #2
4000a278:	01010101 	tsteq	r1, r1, lsl #2
4000a27c:	01010101 	tsteq	r1, r1, lsl #2
4000a280:	01010101 	tsteq	r1, r1, lsl #2
4000a284:	01010101 	tsteq	r1, r1, lsl #2
4000a288:	10010101 	andne	r0, r1, r1, lsl #2
4000a28c:	10101010 	andsne	r1, r0, r0, lsl r0
4000a290:	42424210 	submi	r4, r2, #1
4000a294:	02424242 	subeq	r4, r2, #536870916	; 0x20000004
4000a298:	02020202 	andeq	r0, r2, #536870912	; 0x20000000
4000a29c:	02020202 	andeq	r0, r2, #536870912	; 0x20000000
4000a2a0:	02020202 	andeq	r0, r2, #536870912	; 0x20000000
4000a2a4:	02020202 	andeq	r0, r2, #536870912	; 0x20000000
4000a2a8:	10020202 	andne	r0, r2, r2, lsl #4
4000a2ac:	08101010 	ldmdaeq	r0, {r4, ip}
	...
4000a2d0:	101010a0 	andsne	r1, r0, r0, lsr #1
4000a2d4:	10101010 	andsne	r1, r0, r0, lsl r0
4000a2d8:	10101010 	andsne	r1, r0, r0, lsl r0
4000a2dc:	10101010 	andsne	r1, r0, r0, lsl r0
4000a2e0:	10101010 	andsne	r1, r0, r0, lsl r0
4000a2e4:	10101010 	andsne	r1, r0, r0, lsl r0
4000a2e8:	10101010 	andsne	r1, r0, r0, lsl r0
4000a2ec:	10101010 	andsne	r1, r0, r0, lsl r0
4000a2f0:	01010101 	tsteq	r1, r1, lsl #2
4000a2f4:	01010101 	tsteq	r1, r1, lsl #2
4000a2f8:	01010101 	tsteq	r1, r1, lsl #2
4000a2fc:	01010101 	tsteq	r1, r1, lsl #2
4000a300:	01010101 	tsteq	r1, r1, lsl #2
4000a304:	10010101 	andne	r0, r1, r1, lsl #2
4000a308:	01010101 	tsteq	r1, r1, lsl #2
4000a30c:	02010101 	andeq	r0, r1, #1073741824	; 0x40000000
4000a310:	02020202 	andeq	r0, r2, #536870912	; 0x20000000
4000a314:	02020202 	andeq	r0, r2, #536870912	; 0x20000000
4000a318:	02020202 	andeq	r0, r2, #536870912	; 0x20000000
4000a31c:	02020202 	andeq	r0, r2, #536870912	; 0x20000000
4000a320:	02020202 	andeq	r0, r2, #536870912	; 0x20000000
4000a324:	10020202 	andne	r0, r2, r2, lsl #4
4000a328:	02020202 	andeq	r0, r2, #536870912	; 0x20000000
4000a32c:	02020202 	andeq	r0, r2, #536870912	; 0x20000000

Disassembly of section .ARM.attributes:

00000000 <.ARM.attributes>:
   0:	00000f41 	andeq	r0, r0, r1, asr #30
   4:	61656100 	cmnvs	r5, r0, lsl #2
   8:	01006962 	tsteq	r0, r2, ror #18
   c:	00000005 	andeq	r0, r0, r5

Disassembly of section .comment:

00000000 <.comment>:
   0:	3a434347 	bcc	10d0d24 <_start-0x3ef372dc>
   4:	4e472820 	cdpmi	8, 4, cr2, cr7, cr0, {1}
   8:	34202955 	strtcc	r2, [r0], #-2389	; 0x955
   c:	322e362e 	eorcc	r3, lr, #48234496	; 0x2e00000
	...

Disassembly of section .debug_line:

00000000 <.debug_line>:
   0:	000000a1 	andeq	r0, r0, r1, lsr #1
   4:	002c0002 	eoreq	r0, ip, r2
   8:	01020000 	mrseq	r0, (UNDEF: 2)
   c:	000d0efb 	strdeq	r0, [sp], -fp
  10:	01010101 	tsteq	r1, r1, lsl #2
  14:	01000000 	mrseq	r0, (UNDEF: 0)
  18:	73010000 	movwvc	r0, #4096	; 0x1000
  1c:	74726174 	ldrbtvc	r6, [r2], #-372	; 0x174
  20:	6f6c0000 	svcvs	0x006c0000
  24:	76656c77 			; <UNDEFINED> instruction: 0x76656c77
  28:	695f6c65 	ldmdbvs	pc, {r0, r2, r5, r6, sl, fp, sp, lr}^	; <UNPREDICTABLE>
  2c:	2e74696e 	cdpcs	9, 7, cr6, cr4, cr14, {3}
  30:	00010053 	andeq	r0, r1, r3, asr r0
  34:	05000000 	streq	r0, [r0]
  38:	00817002 	addeq	r7, r1, r2
  3c:	01100340 	tsteq	r0, r0, asr #6
  40:	312f2f2f 	teqcc	pc, pc, lsr #30
  44:	032f2f2f 	teqeq	pc, #188	; 0xbc
  48:	30312e0a 	eorscc	r2, r1, sl, lsl #28
  4c:	2f302f2f 	svccs	0x00302f2f
  50:	2f2f302f 	svccs	0x002f302f
  54:	312f2f2f 	teqcc	pc, pc, lsr #30
  58:	2f302f2f 	svccs	0x00302f2f
  5c:	2f2f302f 	svccs	0x002f302f
  60:	302f2f30 	eorcc	r2, pc, r0, lsr pc	; <UNPREDICTABLE>
  64:	2f312f2f 	svccs	0x00312f2f
  68:	2f2f302f 	svccs	0x002f302f
  6c:	312f2f30 	teqcc	pc, r0, lsr pc	; <UNPREDICTABLE>
  70:	2f302f2f 	svccs	0x00302f2f
  74:	2f2f302f 	svccs	0x002f302f
  78:	302f2f31 	eorcc	r2, pc, r1, lsr pc	; <UNPREDICTABLE>
  7c:	2f302f2f 	svccs	0x00302f2f
  80:	2f2f302f 	svccs	0x002f302f
  84:	2f2f2f30 	svccs	0x002f2f30
  88:	2f312f2f 	svccs	0x00312f2f
  8c:	2f2f2f2f 	svccs	0x002f2f2f
  90:	2f2f2f31 	svccs	0x002f2f31
  94:	2f312f2f 	svccs	0x00312f2f
  98:	2f2f2f2f 	svccs	0x002f2f2f
  9c:	2e23032f 	cdpcs	3, 2, cr0, cr3, cr15, {1}
  a0:	01004802 	tsteq	r0, r2, lsl #16
  a4:	00008301 	andeq	r8, r0, r1, lsl #6
  a8:	24000200 	strcs	r0, [r0], #-512	; 0x200
  ac:	02000000 	andeq	r0, r0, #0
  b0:	0d0efb01 	vstreq	d15, [lr, #-4]
  b4:	01010100 	mrseq	r0, (UNDEF: 17)
  b8:	00000001 	andeq	r0, r0, r1
  bc:	01000001 	tsteq	r0, r1
  c0:	72617473 	rsbvc	r7, r1, #1929379840	; 0x73000000
  c4:	73000074 	movwvc	r0, #116	; 0x74
  c8:	74726174 	ldrbtvc	r6, [r2], #-372	; 0x174
  cc:	0100532e 	tsteq	r0, lr, lsr #6
  d0:	00000000 	andeq	r0, r0, r0
  d4:	80000205 	andhi	r0, r0, r5, lsl #4
  d8:	2f154000 	svccs	0x00154000
  dc:	2f2f2f2f 	svccs	0x002f2f2f
  e0:	0d032f2f 	stceq	15, cr2, [r3, #-188]	; 0xffffff44
  e4:	2f302ff2 	svccs	0x00302ff2
  e8:	2f302f2f 	svccs	0x00302f2f
  ec:	322f2f34 	eorcc	r2, pc, #208	; 0xd0
  f0:	2f2f332f 	svccs	0x002f332f
  f4:	2f2f2f2f 	svccs	0x002f2f2f
  f8:	2f2f2f32 	svccs	0x002f2f32
  fc:	2f2f302f 	svccs	0x002f302f
 100:	2f2f302f 	svccs	0x002f302f
 104:	2f31342f 	svccs	0x0031342f
 108:	302f2f30 	eorcc	r2, pc, r0, lsr pc	; <UNPREDICTABLE>
 10c:	2f302f2f 	svccs	0x00302f2f
 110:	2f2f302f 	svccs	0x002f302f
 114:	6a302f30 	bvs	c0bddc <_start-0x3f3fc224>
 118:	302f2f2f 	eorcc	r2, pc, pc, lsr #30
 11c:	312f2f2f 	teqcc	pc, pc, lsr #30
 120:	302f2f2f 	eorcc	r2, pc, pc, lsr #30
 124:	022f2f2f 	eoreq	r2, pc, #188	; 0xbc
 128:	0101000c 	tsteq	r1, ip
 12c:	00000253 	andeq	r0, r0, r3, asr r2
 130:	00520002 	subseq	r0, r2, r2
 134:	01020000 	mrseq	r0, (UNDEF: 2)
 138:	000d0efb 	strdeq	r0, [sp], -fp
 13c:	01010101 	tsteq	r1, r1, lsl #2
 140:	01000000 	mrseq	r0, (UNDEF: 0)
 144:	2e010000 	cdpcs	0, 0, cr0, cr1, cr0, {0}
 148:	6d6f632f 	stclvs	3, cr6, [pc, #-188]!	; 94 <_start-0x40007f6c>
 14c:	2f6e6f6d 	svccs	0x006e6f6d
 150:	6c636e69 	stclvs	14, cr6, [r3], #-420	; 0xfffffe5c
 154:	00656475 	rsbeq	r6, r5, r5, ror r4
 158:	6d6d6f63 	stclvs	15, cr6, [sp, #-396]!	; 0xfffffe74
 15c:	732f6e6f 	teqvc	pc, #1776	; 0x6f0
 160:	00006372 	andeq	r6, r0, r2, ror r3
 164:	70797463 	rsbsvc	r7, r9, r3, ror #8
 168:	00682e65 	rsbeq	r2, r8, r5, ror #28
 16c:	70000001 	andvc	r0, r0, r1
 170:	746e6972 	strbtvc	r6, [lr], #-2418	; 0x972
 174:	00632e66 	rsbeq	r2, r3, r6, ror #28
 178:	73000002 	movwvc	r0, #2
 17c:	72616474 	rsbvc	r6, r1, #1946157056	; 0x74000000
 180:	00682e67 	rsbeq	r2, r8, r7, ror #28
 184:	00000001 	andeq	r0, r0, r1
 188:	70020500 	andvc	r0, r2, r0, lsl #10
 18c:	03400083 	movteq	r0, #131	; 0x83
 190:	9f0100c4 	svcls	0x000100c4
 194:	042f67bb 	strteq	r6, [pc], #-1979	; 19c <_start-0x40007e64>
 198:	7fbf0302 	svcvc	0x00bf0302
 19c:	834cbb9e 	movthi	fp, #52126	; 0xcb9e
 1a0:	04020067 	streq	r0, [r2], #-103	; 0x67
 1a4:	06820601 	streq	r0, [r2], r1, lsl #12
 1a8:	67684bf3 			; <UNDEFINED> instruction: 0x67684bf3
 1ac:	304c674d 	subcc	r6, ip, sp, asr #14
 1b0:	02007fbb 	andeq	r7, r0, #748	; 0x2ec
 1b4:	2e060104 	adfcss	f0, f6, f4
 1b8:	02040200 	andeq	r0, r4, #0
 1bc:	040200d6 	streq	r0, [r2], #-214	; 0xd6
 1c0:	0200d601 	andeq	sp, r0, #1048576	; 0x100000
 1c4:	06820204 	streq	r0, [r2], r4, lsl #4
 1c8:	040200d7 	streq	r0, [r2], #-215	; 0xd7
 1cc:	00d60603 	sbcseq	r0, r6, r3, lsl #12
 1d0:	06050402 	streq	r0, [r5], -r2, lsl #8
 1d4:	6767a365 	strbvs	sl, [r7, -r5, ror #6]!
 1d8:	83bba12f 			; <UNDEFINED> instruction: 0x83bba12f
 1dc:	039f2108 	orrseq	r2, pc, #2
 1e0:	4c838224 	sfmmi	f0, 1, [r3], {36}	; 0x24
 1e4:	0402002f 	streq	r0, [r2], #-47	; 0x2f
 1e8:	00c70801 	sbceq	r0, r7, r1, lsl #16
 1ec:	06020402 	streq	r0, [r2], -r2, lsl #8
 1f0:	2fa0069e 	svccs	0x00a0069e
 1f4:	d8822003 	stmle	r2, {r0, r1, sp}
 1f8:	834b834d 	movthi	r8, #45901	; 0xb34d
 1fc:	04020067 	streq	r0, [r2], #-103	; 0x67
 200:	06660601 	strbteq	r0, [r6], -r1, lsl #12
 204:	02004b67 	andeq	r4, r0, #105472	; 0x19c00
 208:	9e060104 	adflss	f0, f6, f4
 20c:	02040200 	andeq	r0, r4, #0
 210:	0402004a 	streq	r0, [r2], #-74	; 0x4a
 214:	02002e03 	andeq	r2, r0, #48	; 0x30
 218:	2f060304 	svccs	0x00060304
 21c:	03040200 	movweq	r0, #16896	; 0x4200
 220:	4b67834b 	blmi	19e0f54 <_start-0x3e6270ac>
 224:	4b838367 	blmi	fe0e0fc8 <_ctype+0xbe0d6d98>
 228:	694b8383 	stmdbvs	fp, {r0, r1, r7, r8, r9, pc}^
 22c:	67836783 	strvs	r6, [r3, r3, lsl #15]
 230:	08674b68 	stmdaeq	r7!, {r3, r5, r6, r8, r9, fp, lr}^
 234:	0200835a 	andeq	r8, r0, #1744830465	; 0x68000001
 238:	32020104 	andcc	r0, r2, #1
 23c:	834b6910 	movthi	r6, #47376	; 0xb910
 240:	02002f83 	andeq	r2, r0, #524	; 0x20c
 244:	08b90104 	ldmeq	r9!, {r2, r8}
 248:	83bb673e 			; <UNDEFINED> instruction: 0x83bb673e
 24c:	bb67d767 	bllt	19f5ff0 <_start-0x3e612010>
 250:	002f83d9 	ldrdeq	r8, [pc], -r9	; <UNPREDICTABLE>
 254:	b9010402 	stmdblt	r1, {r1, sl}
 258:	d52f3e08 	strle	r3, [pc, #-3592]!	; fffff458 <_ctype+0xbfff5228>
 25c:	01040200 	mrseq	r0, R12_usr
 260:	08062e06 	stmdaeq	r6, {r1, r2, r9, sl, fp, sp}
 264:	02002f5a 	andeq	r2, r0, #360	; 0x168
 268:	57080104 	strpl	r0, [r8, -r4, lsl #2]
 26c:	002f3e08 	eoreq	r3, pc, r8, lsl #28
 270:	b9010402 	stmdblt	r1, {r1, sl}
 274:	bf2f3e08 	svclt	0x002f3e08
 278:	040200a1 	streq	r0, [r2], #-161	; 0xa1
 27c:	00660601 	rsbeq	r0, r6, r1, lsl #12
 280:	08020402 	stmdaeq	r2, {r1, sl}
 284:	67840690 			; <UNDEFINED> instruction: 0x67840690
 288:	ba120384 	blt	4810a0 <_start-0x3fb86f60>
 28c:	32d78367 	sbcscc	r8, r7, #-1677721599	; 0x9c000001
 290:	2e02674c 	cdpcs	7, 0, cr6, cr2, cr12, {2}
 294:	83838313 	orrhi	r8, r3, #1275068416	; 0x4c000000
 298:	004b8683 	subeq	r8, fp, r3, lsl #13
 29c:	06010402 	streq	r0, [r1], -r2, lsl #8
 2a0:	9f830682 	svcls	0x00830682
 2a4:	679f6883 	ldrvs	r6, [pc, r3, lsl #17]
 2a8:	834b6b67 	movthi	r6, #47975	; 0xbb67
 2ac:	04020067 	streq	r0, [r2], #-103	; 0x67
 2b0:	06820601 	streq	r0, [r2], r1, lsl #12
 2b4:	68839f83 	stmvs	r3, {r0, r1, r7, r8, r9, sl, fp, ip, pc}
 2b8:	4b4e67a0 	blmi	139a140 <_start-0x3ec6dec0>
 2bc:	01040200 	mrseq	r0, R12_usr
 2c0:	02008206 	andeq	r8, r0, #1610612736	; 0x60000000
 2c4:	f3060104 	vrhadd.u8	d0, d6, d4
 2c8:	01040200 	mrseq	r0, R12_usr
 2cc:	02004b49 	andeq	r4, r0, #74752	; 0x12400
 2d0:	82060104 	andhi	r0, r6, #1
 2d4:	01040200 	mrseq	r0, R12_usr
 2d8:	02008306 	andeq	r8, r0, #402653184	; 0x18000000
 2dc:	4c490104 	stfmie	f0, [r9], {4}
 2e0:	04020067 	streq	r0, [r2], #-103	; 0x67
 2e4:	06660601 	strbteq	r0, [r6], -r1, lsl #12
 2e8:	6a684b9f 	bvs	1a1316c <_start-0x3e5f4e94>
 2ec:	01b4024c 			; <UNDEFINED> instruction: 0x01b4024c
 2f0:	002f8314 	eoreq	r8, pc, r4, lsl r3	; <UNPREDICTABLE>
 2f4:	b9010402 	stmdblt	r1, {r1, sl}
 2f8:	2f3d08bc 	svccs	0x003d08bc
 2fc:	01040200 	mrseq	r0, R12_usr
 300:	9f31bcb9 	svcls	0x0031bcb9
 304:	83bc4c67 			; <UNDEFINED> instruction: 0x83bc4c67
 308:	0402002f 	streq	r0, [r2], #-47	; 0x2f
 30c:	5a08b901 	bpl	22e718 <_start-0x3fdd98e8>
 310:	02040200 	andeq	r0, r4, #0
 314:	04020067 	streq	r0, [r2], #-103	; 0x67
 318:	003b0802 	eorseq	r0, fp, r2, lsl #16
 31c:	06010402 	streq	r0, [r1], -r2, lsl #8
 320:	2f840666 	svccs	0x00840666
 324:	01040200 	mrseq	r0, R12_usr
 328:	315a08b9 	ldrhcc	r0, [sl, #-137]	; 0xffffff77
 32c:	81694b67 	cmnhi	r9, r7, ror #22
 330:	67323f08 	ldrvs	r3, [r2, -r8, lsl #30]!
 334:	9f2ba39f 	svcls	0x002ba39f
 338:	32bb31a0 	adcscc	r3, fp, #40	; 0x28
 33c:	4b68314b 	blmi	1a0c870 <_start-0x3e5fb790>
 340:	bb316832 	bllt	c5a410 <_start-0x3f3adbf0>
 344:	672dd983 	strvs	sp, [sp, -r3, lsl #19]!
 348:	032e7803 	teqeq	lr, #196608	; 0x30000
 34c:	bb672e0f 	bllt	19cbb90 <_start-0x3e63c470>
 350:	01040200 	mrseq	r0, R12_usr
 354:	67066606 	strvs	r6, [r6, -r6, lsl #12]
 358:	67bb67bb 			; <UNDEFINED> instruction: 0x67bb67bb
 35c:	83d783d7 	bicshi	r8, r7, #1543503875	; 0x5c000003
 360:	e2039fbc 	and	r9, r3, #752	; 0x2f0
 364:	0074087e 	rsbseq	r0, r4, lr, ror r8
 368:	06010402 	streq	r0, [r1], -r2, lsl #8
 36c:	a0030666 	andge	r0, r3, r6, ror #12
 370:	67678201 	strbvs	r8, [r7, -r1, lsl #4]!
 374:	bc67a2a1 	sfmlt	f2, 3, [r7], #-644	; 0xfffffd7c
 378:	6b86a12f 	blvs	fe1a883c <_ctype+0xbe19e60c>
 37c:	080267f4 	stmdaeq	r2, {r2, r4, r5, r6, r7, r8, r9, sl, sp, lr}
 380:	85010100 	strhi	r0, [r1, #-256]	; 0x100
 384:	02000000 	andeq	r0, r0, #0
 388:	00004a00 	andeq	r4, r0, r0, lsl #20
 38c:	fb010200 	blx	40b96 <_start-0x3ffc746a>
 390:	01000d0e 	tsteq	r0, lr, lsl #26
 394:	00010101 	andeq	r0, r1, r1, lsl #2
 398:	00010000 	andeq	r0, r1, r0
 39c:	6f630100 	svcvs	0x00630100
 3a0:	6e6f6d6d 	cdpvs	13, 6, cr6, cr15, cr13, {3}
 3a4:	6372732f 	cmnvs	r2, #-1140850688	; 0xbc000000
 3a8:	632f2e00 	teqvs	pc, #0
 3ac:	6f6d6d6f 	svcvs	0x006d6d6f
 3b0:	6e692f6e 	cdpvs	15, 6, cr2, cr9, cr14, {3}
 3b4:	64756c63 	ldrbtvs	r6, [r5], #-3171	; 0xc63
 3b8:	75000065 	strvc	r0, [r0, #-101]	; 0x65
 3bc:	2e747261 	cdpcs	2, 7, cr7, cr4, cr1, {3}
 3c0:	00010063 	andeq	r0, r1, r3, rrx
 3c4:	79786500 	ldmdbvc	r8!, {r8, sl, sp, lr}^
 3c8:	5f736f6e 	svcpl	0x00736f6e
 3cc:	32313434 	eorscc	r3, r1, #872415232	; 0x34000000
 3d0:	0200682e 	andeq	r6, r0, #3014656	; 0x2e0000
 3d4:	00000000 	andeq	r0, r0, r0
 3d8:	95640205 	strbls	r0, [r4, #-517]!	; 0x205
 3dc:	4d154000 	ldcmi	0, cr4, [r5]
 3e0:	676867bc 			; <UNDEFINED> instruction: 0x676867bc
 3e4:	009fa167 	addseq	sl, pc, r7, ror #2
 3e8:	06010402 	streq	r0, [r1], -r2, lsl #8
 3ec:	679f062e 	ldrvs	r0, [pc, lr, lsr #12]
 3f0:	83844b67 	orrhi	r4, r4, #105472	; 0x19c00
 3f4:	0402002f 	streq	r0, [r2], #-47	; 0x2f
 3f8:	6984d501 	stmibvs	r4, {r0, r8, sl, ip, lr, pc}
 3fc:	04020068 	streq	r0, [r2], #-104	; 0x68
 400:	062e0601 	strteq	r0, [lr], -r1, lsl #12
 404:	022f679f 	eoreq	r6, pc, #41680896	; 0x27c0000
 408:	0101000a 	tsteq	r1, sl
 40c:	00000065 	andeq	r0, r0, r5, rrx
 410:	002c0002 	eoreq	r0, ip, r2
 414:	01020000 	mrseq	r0, (UNDEF: 2)
 418:	000d0efb 	strdeq	r0, [sp], -fp
 41c:	01010101 	tsteq	r1, r1, lsl #2
 420:	01000000 	mrseq	r0, (UNDEF: 0)
 424:	63010000 	movwvs	r0, #4096	; 0x1000
 428:	6f6d6d6f 	svcvs	0x006d6d6f
 42c:	72732f6e 	rsbsvc	r2, r3, #440	; 0x1b8
 430:	5f000063 	svcpl	0x00000063
 434:	76696475 			; <UNDEFINED> instruction: 0x76696475
 438:	2e336973 	mrccs	9, 1, r6, cr3, cr3, {3}
 43c:	00010053 	andeq	r0, r1, r3, asr r0
 440:	05000000 	streq	r0, [r0]
 444:	0096b802 	addseq	fp, r6, r2, lsl #16
 448:	01110340 	tsteq	r1, r0, asr #6
 44c:	2f2f2f2f 	svccs	0x002f2f2f
 450:	2f2f342f 	svccs	0x002f342f
 454:	2f322f2f 	svccs	0x00322f2f
 458:	342f2f2f 	strtcc	r2, [pc], #-3887	; 460 <_start-0x40007ba0>
 45c:	2f2f2f2f 	svccs	0x002f2f2f
 460:	2f2f2f2f 	svccs	0x002f2f2f
 464:	2f2f2f2f 	svccs	0x002f2f2f
 468:	302f2f2f 	eorcc	r2, pc, pc, lsr #30
 46c:	2f30302f 	svccs	0x0030302f
 470:	01000202 	tsteq	r0, r2, lsl #4
 474:	00006c01 	andeq	r6, r0, r1, lsl #24
 478:	2c000200 	sfmcs	f0, 4, [r0], {0}
 47c:	02000000 	andeq	r0, r0, #0
 480:	0d0efb01 	vstreq	d15, [lr, #-4]
 484:	01010100 	mrseq	r0, (UNDEF: 17)
 488:	00000001 	andeq	r0, r0, r1
 48c:	01000001 	tsteq	r0, r1
 490:	6d6d6f63 	stclvs	15, cr6, [sp, #-396]!	; 0xfffffe74
 494:	732f6e6f 	teqvc	pc, #1776	; 0x6f0
 498:	00006372 	andeq	r6, r0, r2, ror r3
 49c:	6f6d755f 	svcvs	0x006d755f
 4a0:	33697364 	cmncc	r9, #-1879048191	; 0x90000001
 4a4:	0100532e 	tsteq	r0, lr, lsr #6
 4a8:	00000000 	andeq	r0, r0, r0
 4ac:	974c0205 	strbls	r0, [ip, -r5, lsl #4]
 4b0:	12034000 	andne	r4, r3, #0
 4b4:	2f2f2f01 	svccs	0x002f2f01
 4b8:	2f2f342f 	svccs	0x002f342f
 4bc:	2f322f2f 	svccs	0x00322f2f
 4c0:	332f2f2f 	teqcc	pc, #188	; 0xbc
 4c4:	2f2f2f2f 	svccs	0x002f2f2f
 4c8:	2f2f2f2f 	svccs	0x002f2f2f
 4cc:	2f2f2f2f 	svccs	0x002f2f2f
 4d0:	2f2f2f2f 	svccs	0x002f2f2f
 4d4:	2f2f2f35 	svccs	0x002f2f35
 4d8:	2f2f2f2f 	svccs	0x002f2f2f
 4dc:	2f30302f 	svccs	0x0030302f
 4e0:	01000202 	tsteq	r0, r2, lsl #4
 4e4:	0000a701 	andeq	sl, r0, r1, lsl #14
 4e8:	3e000200 	cdpcc	2, 0, cr0, cr0, cr0, {0}
 4ec:	02000000 	andeq	r0, r0, #0
 4f0:	0d0efb01 	vstreq	d15, [lr, #-4]
 4f4:	01010100 	mrseq	r0, (UNDEF: 17)
 4f8:	00000001 	andeq	r0, r0, r1
 4fc:	01000001 	tsteq	r0, r1
 500:	6f632f2e 	svcvs	0x00632f2e
 504:	6e6f6d6d 	cdpvs	13, 6, cr6, cr15, cr13, {3}
 508:	636e692f 	cmnvs	lr, #770048	; 0xbc000
 50c:	6564756c 	strbvs	r7, [r4, #-1388]!	; 0x56c
 510:	6d6d0000 	stclvs	0, cr0, [sp]
 514:	00632e75 	rsbeq	r2, r3, r5, ror lr
 518:	65000000 	strvs	r0, [r0]
 51c:	6f6e7978 	svcvs	0x006e7978
 520:	34345f73 	ldrtcc	r5, [r4], #-3955	; 0xf73
 524:	682e3231 	stmdavs	lr!, {r0, r4, r5, r9, ip, sp}
 528:	00000100 	andeq	r0, r0, r0, lsl #2
 52c:	02050000 	andeq	r0, r5, #0
 530:	400097fc 	strdmi	r9, [r0], -ip
 534:	84010b03 	strhi	r0, [r1], #-2819	; 0xb03
 538:	02006730 	andeq	r6, r0, #12582912	; 0xc00000
 53c:	66060204 	strvs	r0, [r6], -r4, lsl #4
 540:	01040200 	mrseq	r0, R12_usr
 544:	00810666 	addeq	r0, r1, r6, ror #12
 548:	06010402 	streq	r0, [r1], -r2, lsl #8
 54c:	04020066 	streq	r0, [r2], #-102	; 0x66
 550:	08640601 	stmdaeq	r4!, {r0, r9, sl}^
 554:	9fd98a41 	svcls	0x00d98a41
 558:	040200bb 	streq	r0, [r2], #-187	; 0xbb
 55c:	02006702 	andeq	r6, r0, #524288	; 0x80000
 560:	73080204 	movwvc	r0, #33284	; 0x8204
 564:	01040200 	mrseq	r0, R12_usr
 568:	84066606 	strhi	r6, [r6], #-1542	; 0x606
 56c:	9f306869 	svcls	0x00306869
 570:	02002fa0 	andeq	r2, r0, #640	; 0x280
 574:	00bd0104 	adcseq	r0, sp, r4, lsl #2
 578:	9f010402 	svcls	0x00010402
 57c:	01040200 	mrseq	r0, R12_usr
 580:	0402004c 	streq	r0, [r2], #-76	; 0x4c
 584:	02009f01 	andeq	r9, r0, #4
 588:	024b0104 	subeq	r0, fp, #1
 58c:	01010006 	tsteq	r1, r6

Disassembly of section .debug_info:

00000000 <.debug_info>:
   0:	0000005f 	andeq	r0, r0, pc, asr r0
   4:	00000002 	andeq	r0, r0, r2
   8:	01040000 	mrseq	r0, (UNDEF: 4)
   c:	00000000 	andeq	r0, r0, r0
  10:	40008170 	andmi	r8, r0, r0, ror r1
  14:	40008370 	andmi	r8, r0, r0, ror r3
  18:	72617473 	rsbvc	r7, r1, #1929379840	; 0x73000000
  1c:	6f6c2f74 	svcvs	0x006c2f74
  20:	76656c77 			; <UNDEFINED> instruction: 0x76656c77
  24:	695f6c65 	ldmdbvs	pc, {r0, r2, r5, r6, sl, fp, sp, lr}^	; <UNPREDICTABLE>
  28:	2e74696e 	cdpcs	9, 7, cr6, cr4, cr14, {3}
  2c:	3a440053 	bcc	1100180 <_start-0x3ef07e80>
  30:	6c63655c 	cfstr64vs	mvdx6, [r3], #-368	; 0xfffffe90
  34:	65737069 	ldrbvs	r7, [r3, #-105]!	; 0x69
  38:	6f72705f 	svcvs	0x0072705f
  3c:	7463656a 	strbtvc	r6, [r3], #-1386	; 0x56a
  40:	53465c73 	movtpl	r5, #27763	; 0x6c73
  44:	32313434 	eorscc	r3, r1, #872415232	; 0x34000000
  48:	2d37315c 	ldfcss	f3, [r7, #-368]!	; 0xfffffe90
  4c:	5c756d6d 	ldclpl	13, cr6, [r5], #-436	; 0xfffffe4c
  50:	65646f63 	strbvs	r6, [r4, #-3939]!	; 0xf63
  54:	554e4700 	strbpl	r4, [lr, #-1792]	; 0x700
  58:	20534120 	subscs	r4, r3, r0, lsr #2
  5c:	31322e32 	teqcc	r2, r2, lsr lr
  60:	57800100 	strpl	r0, [r0, r0, lsl #2]
  64:	02000000 	andeq	r0, r0, #0
  68:	00001400 	andeq	r1, r0, r0, lsl #8
  6c:	a5010400 	strge	r0, [r1, #-1024]	; 0x400
  70:	00000000 	andeq	r0, r0, r0
  74:	64400080 	strbvs	r0, [r0], #-128	; 0x80
  78:	73400081 	movtvc	r0, #129	; 0x81
  7c:	74726174 	ldrbtvc	r6, [r2], #-372	; 0x174
  80:	6174732f 	cmnvs	r4, pc, lsr #6
  84:	532e7472 	teqpl	lr, #1912602624	; 0x72000000
  88:	5c3a4400 	cfldrspl	mvf4, [sl]
  8c:	696c6365 	stmdbvs	ip!, {r0, r2, r5, r6, r8, r9, sp, lr}^
  90:	5f657370 	svcpl	0x00657370
  94:	6a6f7270 	bvs	1bdca5c <_start-0x3e42b5a4>
  98:	73746365 	cmnvc	r4, #-1811939327	; 0x94000001
  9c:	3453465c 	ldrbcc	r4, [r3], #-1628	; 0x65c
  a0:	5c323134 	ldfpls	f3, [r2], #-208	; 0xffffff30
  a4:	6d2d3731 	stcvs	7, cr3, [sp, #-196]!	; 0xffffff3c
  a8:	635c756d 	cmpvs	ip, #457179136	; 0x1b400000
  ac:	0065646f 	rsbeq	r6, r5, pc, ror #8
  b0:	20554e47 	subscs	r4, r5, r7, asr #28
  b4:	32205341 	eorcc	r5, r0, #67108865	; 0x4000001
  b8:	0031322e 	eorseq	r3, r1, lr, lsr #4
  bc:	04be8001 	ldrteq	r8, [lr], #1
  c0:	00020000 	andeq	r0, r2, r0
  c4:	00000028 	andeq	r0, r0, r8, lsr #32
  c8:	006d0104 	rsbeq	r0, sp, r4, lsl #2
  cc:	99010000 	stmdbls	r1, {}	; <UNPREDICTABLE>
  d0:	2c000000 	stccs	0, cr0, [r0], {0}
  d4:	70000001 	andvc	r0, r0, r1
  d8:	64400083 	strbvs	r0, [r0], #-131	; 0x83
  dc:	2c400095 	mcrrcs	0, 9, r0, r0, cr5
  e0:	02000001 	andeq	r0, r0, #1
  e4:	00000041 	andeq	r0, r0, r1, asr #32
  e8:	00302803 	eorseq	r2, r0, r3, lsl #16
  ec:	04030000 	streq	r0, [r3]
  f0:	00000000 	andeq	r0, r0, r0
  f4:	00004802 	andeq	r4, r0, r2, lsl #16
  f8:	25660300 	strbcs	r0, [r6, #-768]!	; 0x300
  fc:	04000000 	streq	r0, [r0]
 100:	00000037 	andeq	r0, r0, r7, lsr r0
 104:	6a014401 	bvs	51110 <_start-0x3ffb6ef0>
 108:	70000000 	andvc	r0, r0, r0
 10c:	c0400083 	subgt	r0, r0, r3, lsl #1
 110:	00400083 	subeq	r0, r0, r3, lsl #1
 114:	6a000000 	bvs	11c <_start-0x40007ee4>
 118:	05000000 	streq	r0, [r0]
 11c:	44010063 	strmi	r0, [r1], #-99	; 0x63
 120:	0000006a 	andeq	r0, r0, sl, rrx
 124:	00789102 	rsbseq	r9, r8, r2, lsl #2
 128:	5a080106 	bpl	200548 <_start-0x3fe07ab8>
 12c:	07000000 	streq	r0, [r0, -r0]
 130:	00001201 	andeq	r1, r0, r1, lsl #4
 134:	01070200 	mrseq	r0, (UNDEF: 39)
 138:	000000d4 	ldrdeq	r0, [r0], -r4
 13c:	400083c0 	andmi	r8, r0, r0, asr #7
 140:	40008568 	andmi	r8, r0, r8, ror #10
 144:	0000002c 	andeq	r0, r0, ip, lsr #32
 148:	000000d4 	ldrdeq	r0, [r0], -r4
 14c:	00706305 	rsbseq	r6, r0, r5, lsl #6
 150:	00db0702 	sbcseq	r0, fp, r2, lsl #14
 154:	91020000 	mrsls	r0, (UNDEF: 2)
 158:	00d3086c 	sbcseq	r0, r3, ip, ror #16
 15c:	07020000 	streq	r0, [r2, -r0]
 160:	000000ed 	andeq	r0, r0, sp, ror #1
 164:	08689102 	stmdaeq	r8!, {r1, r8, ip, pc}^
 168:	00000068 	andeq	r0, r0, r8, rrx
 16c:	00f90702 	rscseq	r0, r9, r2, lsl #14
 170:	91020000 	mrsls	r0, (UNDEF: 2)
 174:	00bd0964 	adcseq	r0, sp, r4, ror #18
 178:	09020000 	stmdbeq	r2, {}	; <UNPREDICTABLE>
 17c:	000000d4 	ldrdeq	r0, [r0], -r4
 180:	09749102 	ldmdbeq	r4!, {r1, r8, ip, pc}^
 184:	00000021 	andeq	r0, r0, r1, lsr #32
 188:	00d40902 	sbcseq	r0, r4, r2, lsl #18
 18c:	91020000 	mrsls	r0, (UNDEF: 2)
 190:	04060070 	streq	r0, [r6], #-112	; 0x70
 194:	00007907 	andeq	r7, r0, r7, lsl #18
 198:	e1040a00 	tst	r4, r0, lsl #20
 19c:	0b000000 	bleq	1a4 <_start-0x40007e5c>
 1a0:	000000e6 	andeq	r0, r0, r6, ror #1
 1a4:	63080106 	movwvs	r0, #33030	; 0x8106
 1a8:	0a000000 	beq	1b0 <_start-0x40007e50>
 1ac:	0000f304 	andeq	pc, r0, r4, lsl #6
 1b0:	e6040a00 	str	r0, [r4], -r0, lsl #20
 1b4:	06000000 	streq	r0, [r0], -r0
 1b8:	007e0704 	rsbseq	r0, lr, r4, lsl #14
 1bc:	01070000 	mrseq	r0, (UNDEF: 7)
 1c0:	0000008b 	andeq	r0, r0, fp, lsl #1
 1c4:	47012202 	strmi	r2, [r1, -r2, lsl #4]
 1c8:	68000001 	stmdavs	r0, {r0}
 1cc:	d8400085 	stmdale	r0, {r0, r2, r7}^
 1d0:	58400085 	stmdapl	r0, {r0, r2, r7}^
 1d4:	47000000 	strmi	r0, [r0, -r0]
 1d8:	05000001 	streq	r0, [r0, #-1]
 1dc:	02007063 	andeq	r7, r0, #99	; 0x63
 1e0:	0000db22 	andeq	sp, r0, r2, lsr #22
 1e4:	74910200 	ldrvc	r0, [r1], #512	; 0x200
 1e8:	0000d308 	andeq	sp, r0, r8, lsl #6
 1ec:	ed220200 	sfm	f0, 4, [r2]
 1f0:	02000000 	andeq	r0, r0, #0
 1f4:	68087091 	stmdavs	r8, {r0, r4, r7, ip, sp, lr}
 1f8:	02000000 	andeq	r0, r0, #0
 1fc:	0000f922 	andeq	pc, r0, r2, lsr #18
 200:	6c910200 	lfmvs	f0, 4, [r1], {0}
 204:	05040600 	streq	r0, [r4, #-1536]	; 0x600
 208:	0000010a 	andeq	r0, r0, sl, lsl #2
 20c:	00002d04 	andeq	r2, r0, r4, lsl #26
 210:	014a0200 	mrseq	r0, (UNDEF: 106)
 214:	00000183 	andeq	r0, r0, r3, lsl #3
 218:	400085d8 	ldrdmi	r8, [r0], -r8	; <UNPREDICTABLE>
 21c:	4000866c 	andmi	r8, r0, ip, ror #12
 220:	00000084 	andeq	r0, r0, r4, lsl #1
 224:	00000183 	andeq	r0, r0, r3, lsl #3
 228:	02007305 	andeq	r7, r0, #335544320	; 0x14000000
 22c:	00018a4a 	andeq	r8, r1, sl, asr #20
 230:	74910200 	ldrvc	r0, [r1], #512	; 0x200
 234:	0200690c 	andeq	r6, r0, #196608	; 0x30000
 238:	0001834c 	andeq	r8, r1, ip, asr #6
 23c:	78910200 	ldmvc	r1, {r9}
 240:	05040d00 	streq	r0, [r4, #-3328]	; 0xd00
 244:	00746e69 	rsbseq	r6, r4, r9, ror #28
 248:	00db040a 	sbcseq	r0, fp, sl, lsl #8
 24c:	03040000 	movweq	r0, #16384	; 0x4000
 250:	02000001 	andeq	r0, r0, #1
 254:	00f3016f 	rscseq	r0, r3, pc, ror #2
 258:	866c0000 	strbthi	r0, [ip], -r0
 25c:	8b044000 	blhi	110264 <_start-0x3fef7d9c>
 260:	00b04000 	adcseq	r4, r0, r0
 264:	02600000 	rsbeq	r0, r0, #0
 268:	73050000 	movwvc	r0, #20480	; 0x5000
 26c:	02007274 	andeq	r7, r0, #1073741831	; 0x40000007
 270:	0000f36f 	andeq	pc, r0, pc, ror #6
 274:	9c910300 	ldcls	3, cr0, [r1], {0}
 278:	756e057f 	strbvc	r0, [lr, #-1407]!	; 0x57f
 27c:	6f02006d 	svcvs	0x0002006d
 280:	00000147 	andeq	r0, r0, r7, asr #2
 284:	7f989103 	svcvc	0x00989103
 288:	00006808 	andeq	r6, r0, r8, lsl #16
 28c:	f96f0200 			; <UNDEFINED> instruction: 0xf96f0200
 290:	03000000 	movweq	r0, #0
 294:	087f9491 	ldmdaeq	pc!, {r0, r4, r7, sl, ip, pc}^	; <UNPREDICTABLE>
 298:	0000011e 	andeq	r0, r0, lr, lsl r1
 29c:	01836f02 	orreq	r6, r3, r2, lsl #30
 2a0:	91030000 	mrsls	r0, (UNDEF: 3)
 2a4:	50087f90 	mulpl	r8, r0, pc	; <UNPREDICTABLE>
 2a8:	02000000 	andeq	r0, r0, #0
 2ac:	0001836f 	andeq	r8, r1, pc, ror #6
 2b0:	00910200 	addseq	r0, r1, r0, lsl #4
 2b4:	0000da08 	andeq	sp, r0, r8, lsl #20
 2b8:	836f0200 	cmnhi	pc, #0
 2bc:	02000001 	andeq	r0, r0, #1
 2c0:	630c0491 	movwvs	r0, #50321	; 0xc491
 2c4:	e6720200 	ldrbt	r0, [r2], -r0, lsl #4
 2c8:	02000000 	andeq	r0, r0, #0
 2cc:	13096b91 	movwne	r6, #39825	; 0x9b91
 2d0:	02000001 	andeq	r0, r0, #1
 2d4:	0000e672 	andeq	lr, r0, r2, ror r6
 2d8:	77910200 	ldrvc	r0, [r1, r0, lsl #4]
 2dc:	706d740c 	rsbvc	r7, sp, ip, lsl #8
 2e0:	60720200 	rsbsvs	r0, r2, r0, lsl #4
 2e4:	03000002 	movweq	r0, #2
 2e8:	097fa091 	ldmdbeq	pc!, {r0, r4, r7, sp, pc}^	; <UNPREDICTABLE>
 2ec:	000000df 	ldrdeq	r0, [r0], -pc	; <UNPREDICTABLE>
 2f0:	00db7302 	sbcseq	r7, fp, r2, lsl #6
 2f4:	91020000 	mrsls	r0, (UNDEF: 2)
 2f8:	00690c70 	rsbeq	r0, r9, r0, ror ip
 2fc:	01837402 	orreq	r7, r3, r2, lsl #8
 300:	91020000 	mrsls	r0, (UNDEF: 2)
 304:	88300e6c 	ldmdahi	r0!, {r2, r3, r5, r6, r9, sl, fp}
 308:	88644000 	stmdahi	r4!, {lr}^
 30c:	18094000 	stmdane	r9, {lr}
 310:	02000001 	andeq	r0, r0, #1
 314:	00018396 	muleq	r1, r6, r3
 318:	64910200 	ldrvs	r0, [r1], #512	; 0x200
 31c:	e60f0000 	str	r0, [pc], -r0
 320:	70000000 	andvc	r0, r0, r0
 324:	10000002 	andne	r0, r0, r2
 328:	000000d4 	ldrdeq	r0, [r0], -r4
 32c:	01070041 	tsteq	r7, r1, asr #32
 330:	000000cb 	andeq	r0, r0, fp, asr #1
 334:	f901b402 			; <UNDEFINED> instruction: 0xf901b402
 338:	04000000 	streq	r0, [r0]
 33c:	8440008b 	strbhi	r0, [r0], #-139	; 0x8b
 340:	dc40008b 	mcrrle	0, 8, r0, r0, cr11
 344:	b5000000 	strlt	r0, [r0]
 348:	05000002 	streq	r0, [r0, #-2]
 34c:	b4020073 	strlt	r0, [r2], #-115	; 0x73
 350:	000000db 	ldrdeq	r0, [r0], -fp
 354:	08749102 	ldmdaeq	r4!, {r1, r8, ip, pc}^
 358:	00000027 	andeq	r0, r0, r7, lsr #32
 35c:	00f9b402 	rscseq	fp, r9, r2, lsl #8
 360:	91020000 	mrsls	r0, (UNDEF: 2)
 364:	63730c70 	cmnvs	r3, #28672	; 0x7000
 368:	dbb60200 	blle	fed80b70 <_ctype+0xbed76940>
 36c:	02000000 	andeq	r0, r0, #0
 370:	07007891 			; <UNDEFINED> instruction: 0x07007891
 374:	00012301 	andeq	r2, r1, r1, lsl #6
 378:	01bc0200 			; <UNDEFINED> instruction: 0x01bc0200
 37c:	00000183 	andeq	r0, r0, r3, lsl #3
 380:	40008b84 	andmi	r8, r0, r4, lsl #23
 384:	400094bc 			; <UNDEFINED> instruction: 0x400094bc
 388:	00000108 	andeq	r0, r0, r8, lsl #2
 38c:	000003c5 	andeq	r0, r0, r5, asr #7
 390:	66756205 	ldrbtvs	r6, [r5], -r5, lsl #4
 394:	f3bc0200 	vpaddl.s<illegal width 64>	d0, d0
 398:	02000000 	andeq	r0, r0, #0
 39c:	66054491 			; <UNDEFINED> instruction: 0x66054491
 3a0:	0200746d 	andeq	r7, r0, #1828716544	; 0x6d000000
 3a4:	0000dbbc 			; <UNDEFINED> instruction: 0x0000dbbc
 3a8:	40910200 	addsmi	r0, r1, r0, lsl #4
 3ac:	0000fe08 	andeq	pc, r0, r8, lsl #28
 3b0:	36bc0200 	ldrtcc	r0, [ip], r0, lsl #4
 3b4:	03000000 	movweq	r0, #0
 3b8:	0c7fbc91 	ldcleq	12, cr11, [pc], #-580	; 17c <_start-0x40007e84>
 3bc:	006e656c 	rsbeq	r6, lr, ip, ror #10
 3c0:	0183be02 	orreq	fp, r3, r2, lsl #28
 3c4:	91020000 	mrsls	r0, (UNDEF: 2)
 3c8:	756e0c50 	strbvc	r0, [lr, #-3152]!	; 0xc50
 3cc:	c202006d 	andgt	r0, r2, #109	; 0x6d
 3d0:	000000d4 	ldrdeq	r0, [r0], -r4
 3d4:	0c749102 	ldfeqp	f1, [r4], #-8
 3d8:	c4020069 	strgt	r0, [r2], #-105	; 0x69
 3dc:	00000183 	andeq	r0, r0, r3, lsl #3
 3e0:	09709102 	ldmdbeq	r0!, {r1, r8, ip, pc}^
 3e4:	00000068 	andeq	r0, r0, r8, rrx
 3e8:	0183c402 	orreq	ip, r3, r2, lsl #8
 3ec:	91020000 	mrsls	r0, (UNDEF: 2)
 3f0:	74730c6c 	ldrbtvc	r0, [r3], #-3180	; 0xc6c
 3f4:	c5020072 	strgt	r0, [r2, #-114]	; 0x72
 3f8:	000000f3 	strdeq	r0, [r0], -r3
 3fc:	0c689102 	stfeqp	f1, [r8], #-8
 400:	c6020073 			; <UNDEFINED> instruction: 0xc6020073
 404:	000000db 	ldrdeq	r0, [r0], -fp
 408:	09649102 	stmdbeq	r4!, {r1, r8, ip, pc}^
 40c:	000000ad 	andeq	r0, r0, sp, lsr #1
 410:	0183c802 	orreq	ip, r3, r2, lsl #16
 414:	91020000 	mrsls	r0, (UNDEF: 2)
 418:	00f20960 	rscseq	r0, r2, r0, ror #18
 41c:	ca020000 	bgt	80424 <_start-0x3ff87bdc>
 420:	00000183 	andeq	r0, r0, r3, lsl #3
 424:	095c9102 	ldmdbeq	ip, {r1, r8, ip, pc}^
 428:	00000050 	andeq	r0, r0, r0, asr r0
 42c:	0183cb02 	orreq	ip, r3, r2, lsl #22
 430:	91020000 	mrsls	r0, (UNDEF: 2)
 434:	00b30958 	adcseq	r0, r3, r8, asr r9
 438:	cd020000 	stcgt	0, cr0, [r2]
 43c:	00000183 	andeq	r0, r0, r3, lsl #3
 440:	11549102 	cmpne	r4, r2, lsl #2
 444:	000000c4 	andeq	r0, r0, r4, asr #1
 448:	8be0d702 	blhi	ff836058 <_ctype+0xbf82be28>
 44c:	38124000 	ldmdacc	r2, {lr}
 450:	60400092 	umaalvs	r0, r0, r2, r0
 454:	ac400092 	mcrrge	0, 9, r0, r0, cr2
 458:	13000003 	movwne	r0, #3
 45c:	02007069 	andeq	r7, r0, #105	; 0x69
 460:	03c50135 	biceq	r0, r5, #1073741837	; 0x4000000d
 464:	91020000 	mrsls	r0, (UNDEF: 2)
 468:	640e004c 	strvs	r0, [lr], #-76	; 0x4c
 46c:	8c400092 	mcrrhi	0, 9, r0, r0, cr2
 470:	13400092 	movtne	r0, #146	; 0x92
 474:	02007069 	andeq	r7, r0, #105	; 0x69
 478:	03cb0138 	biceq	r0, fp, #14
 47c:	91020000 	mrsls	r0, (UNDEF: 2)
 480:	0a000048 	beq	5a8 <_start-0x40007a58>
 484:	00014704 	andeq	r4, r1, r4, lsl #14
 488:	83040a00 	movwhi	r0, #18944	; 0x4a00
 48c:	14000001 	strne	r0, [r0], #-1
 490:	00012401 	andeq	r2, r1, r1, lsl #8
 494:	01730200 	cmneq	r3, r0, lsl #4
 498:	00018301 	andeq	r8, r1, r1, lsl #6
 49c:	0094bc00 	addseq	fp, r4, r0, lsl #24
 4a0:	00950c40 	addseq	r0, r5, r0, asr #24
 4a4:	00013440 	andeq	r3, r1, r0, asr #8
 4a8:	00042b00 	andeq	r2, r4, r0, lsl #22
 4ac:	75621500 	strbvc	r1, [r2, #-1280]!	; 0x500
 4b0:	73020066 	movwvc	r0, #8294	; 0x2066
 4b4:	0000f301 	andeq	pc, r0, r1, lsl #6
 4b8:	60910200 	addsvs	r0, r1, r0, lsl #4
 4bc:	746d6615 	strbtvc	r6, [sp], #-1557	; 0x615
 4c0:	01730200 	cmneq	r3, r0, lsl #4
 4c4:	000000db 	ldrdeq	r0, [r0], -fp
 4c8:	16749102 	ldrbtne	r9, [r4], -r2, lsl #2
 4cc:	0000fe17 	andeq	pc, r0, r7, lsl lr	; <UNPREDICTABLE>
 4d0:	01750200 	cmneq	r5, r0, lsl #4
 4d4:	00000036 	andeq	r0, r0, r6, lsr r0
 4d8:	13649102 	cmnne	r4, #-2147483648	; 0x80000000
 4dc:	76020069 	strvc	r0, [r2], -r9, rrx
 4e0:	00018301 	andeq	r8, r1, r1, lsl #6
 4e4:	68910200 	ldmvs	r1, {r9}
 4e8:	25011800 	strcs	r1, [r1, #-2048]	; 0x800
 4ec:	02000001 	andeq	r0, r0, #1
 4f0:	0c01017e 	stfeqs	f0, [r1], {126}	; 0x7e
 4f4:	64400095 	strbvs	r0, [r0], #-149	; 0x95
 4f8:	6c400095 	mcrrvs	0, 9, r0, r0, cr5
 4fc:	82000001 	andhi	r0, r0, #1
 500:	15000004 	strne	r0, [r0, #-4]
 504:	00746d66 	rsbseq	r6, r4, r6, ror #26
 508:	db017e02 	blle	5fd18 <_start-0x3ffa82e8>
 50c:	02000000 	andeq	r0, r0, #0
 510:	17167091 			; <UNDEFINED> instruction: 0x17167091
 514:	000000fe 	strdeq	r0, [r0], -lr
 518:	36018002 	strcc	r8, [r1], -r2
 51c:	02000000 	andeq	r0, r0, #0
 520:	69136091 	ldmdbvs	r3, {r0, r4, r7, sp, lr}
 524:	01810200 	orreq	r0, r1, r0, lsl #4
 528:	000000f9 	strdeq	r0, [r0], -r9
 52c:	17649102 	strbne	r9, [r4, -r2, lsl #2]!
 530:	000000e6 	andeq	r0, r0, r6, ror #1
 534:	82018202 	andhi	r8, r1, #536870912	; 0x20000000
 538:	03000004 	movweq	r0, #4
 53c:	007efc91 			; <UNDEFINED> instruction: 0x007efc91
 540:	0000e60f 	andeq	lr, r0, pc, lsl #12
 544:	00049200 	andeq	r9, r4, r0, lsl #4
 548:	00d41000 	sbcseq	r1, r4, r0
 54c:	00630000 	rsbeq	r0, r3, r0
 550:	00006a0f 	andeq	r6, r0, pc, lsl #20
 554:	0004a200 	andeq	sl, r4, r0, lsl #4
 558:	00d41000 	sbcseq	r1, r4, r0
 55c:	00ff0000 	rscseq	r0, pc, r0
 560:	0000d819 	andeq	sp, r0, r9, lsl r8
 564:	92110100 	andsls	r0, r1, #0
 568:	01000004 	tsteq	r0, r4
 56c:	00d81a01 	sbcseq	r1, r8, r1, lsl #20
 570:	11010000 	mrsne	r0, (UNDEF: 1)
 574:	00000492 	muleq	r0, r2, r4
 578:	30030501 	andcc	r0, r3, r1, lsl #10
 57c:	004000a2 	subeq	r0, r0, r2, lsr #1
 580:	0000023d 	andeq	r0, r0, sp, lsr r2
 584:	019b0002 	orrseq	r0, fp, r2
 588:	01040000 	mrseq	r0, (UNDEF: 4)
 58c:	0000006d 	andeq	r0, r0, sp, rrx
 590:	0001e701 	andeq	lr, r1, r1, lsl #14
 594:	00012c00 	andeq	r2, r1, r0, lsl #24
 598:	00956400 	addseq	r6, r5, r0, lsl #8
 59c:	0096b840 	addseq	fp, r6, r0, asr #16
 5a0:	00038340 	andeq	r8, r3, r0, asr #6
 5a4:	07040200 	streq	r0, [r4, -r0, lsl #4]
 5a8:	0000007e 	andeq	r0, r0, lr, ror r0
 5ac:	b0021803 	andlt	r1, r2, r3, lsl #16
 5b0:	00009001 	andeq	r9, r0, r1
 5b4:	4f430400 	svcmi	0x00430400
 5b8:	b102004e 	tstlt	r2, lr, asr #32
 5bc:	00002501 	andeq	r2, r0, r1, lsl #10
 5c0:	00230200 	eoreq	r0, r3, r0, lsl #4
 5c4:	54414404 	strbpl	r4, [r1], #-1028	; 0x404
 5c8:	01b20200 			; <UNDEFINED> instruction: 0x01b20200
 5cc:	00000025 	andeq	r0, r0, r5, lsr #32
 5d0:	04042302 	streq	r2, [r4], #-770	; 0x302
 5d4:	00445550 	subeq	r5, r4, r0, asr r5
 5d8:	2501b302 	strcs	fp, [r1, #-770]	; 0x302
 5dc:	02000000 	andeq	r0, r0, #0
 5e0:	44040823 	strmi	r0, [r4], #-2083	; 0x823
 5e4:	02005652 	andeq	r5, r0, #85983232	; 0x5200000
 5e8:	002501b4 			; <UNDEFINED> instruction: 0x002501b4
 5ec:	23020000 	movwcs	r0, #8192	; 0x2000
 5f0:	01a2050c 			; <UNDEFINED> instruction: 0x01a2050c
 5f4:	b5020000 	strlt	r0, [r2]
 5f8:	00002501 	andeq	r2, r0, r1, lsl #10
 5fc:	10230200 	eorne	r0, r3, r0, lsl #4
 600:	0001e005 	andeq	lr, r1, r5
 604:	01b60200 			; <UNDEFINED> instruction: 0x01b60200
 608:	00000025 	andeq	r0, r0, r5, lsr #32
 60c:	00142302 	andseq	r2, r4, r2, lsl #6
 610:	0001cd06 	andeq	ip, r1, r6, lsl #26
 614:	01b70200 			; <UNDEFINED> instruction: 0x01b70200
 618:	0000002c 	andeq	r0, r0, ip, lsr #32
 61c:	f5023c03 			; <UNDEFINED> instruction: 0xf5023c03
 620:	00018703 	andeq	r8, r1, r3, lsl #14
 624:	01c60500 	biceq	r0, r6, r0, lsl #10
 628:	f6020000 			; <UNDEFINED> instruction: 0xf6020000
 62c:	00002503 	andeq	r2, r0, r3, lsl #10
 630:	00230200 	eoreq	r0, r3, r0, lsl #4
 634:	0001a905 	andeq	sl, r1, r5, lsl #18
 638:	03f70200 	mvnseq	r0, #0
 63c:	00000025 	andeq	r0, r0, r5, lsr #32
 640:	05042302 	streq	r2, [r4, #-770]	; 0x302
 644:	00000195 	muleq	r0, r5, r1
 648:	2503f802 	strcs	pc, [r3, #-2050]	; 0x802
 64c:	02000000 	andeq	r0, r0, #0
 650:	fe050823 	cdp2	8, 0, cr0, cr5, cr3, {1}
 654:	02000001 	andeq	r0, r0, #1
 658:	002503f9 	strdeq	r0, [r5], -r9	; <UNPREDICTABLE>
 65c:	23020000 	movwcs	r0, #8192	; 0x2000
 660:	017d050c 	cmneq	sp, ip, lsl #10
 664:	fa020000 	blx	8066c <_start-0x3ff87994>
 668:	00002503 	andeq	r2, r0, r3, lsl #10
 66c:	10230200 	eorne	r0, r3, r0, lsl #4
 670:	0001d705 	andeq	sp, r1, r5, lsl #14
 674:	03fb0200 	mvnseq	r0, #0
 678:	00000025 	andeq	r0, r0, r5, lsr #32
 67c:	05142302 	ldreq	r2, [r4, #-770]	; 0x302
 680:	00000175 	andeq	r0, r0, r5, ror r1
 684:	2503fc02 	strcs	pc, [r3, #-3074]	; 0xc02
 688:	02000000 	andeq	r0, r0, #0
 68c:	af051823 	svcge	0x00051823
 690:	02000001 	andeq	r0, r0, #1
 694:	002503fd 	strdeq	r0, [r5], -sp	; <UNPREDICTABLE>
 698:	23020000 	movwcs	r0, #8192	; 0x2000
 69c:	019c051c 	orrseq	r0, ip, ip, lsl r5
 6a0:	fe020000 	cdp2	0, 0, cr0, cr2, cr0, {0}
 6a4:	00002503 	andeq	r2, r0, r3, lsl #10
 6a8:	20230200 	eorcs	r0, r3, r0, lsl #4
 6ac:	00020505 	andeq	r0, r2, r5, lsl #10
 6b0:	03ff0200 	mvnseq	r0, #0
 6b4:	00000025 	andeq	r0, r0, r5, lsr #32
 6b8:	05242302 	streq	r2, [r4, #-770]!	; 0x302
 6bc:	00000168 	andeq	r0, r0, r8, ror #2
 6c0:	25040002 	strcs	r0, [r4, #-2]
 6c4:	02000000 	andeq	r0, r0, #0
 6c8:	0b052823 	bleq	14a75c <_start-0x3febd8a4>
 6cc:	02000002 	andeq	r0, r0, #2
 6d0:	00250401 	eoreq	r0, r5, r1, lsl #8
 6d4:	23020000 	movwcs	r0, #8192	; 0x2000
 6d8:	0159052c 	cmpeq	r9, ip, lsr #10
 6dc:	02020000 	andeq	r0, r2, #0
 6e0:	00002504 	andeq	r2, r0, r4, lsl #10
 6e4:	30230200 	eorcc	r0, r3, r0, lsl #4
 6e8:	00016005 	andeq	r6, r1, r5
 6ec:	04030200 	streq	r0, [r3], #-512	; 0x200
 6f0:	00000025 	andeq	r0, r0, r5, lsr #32
 6f4:	05342302 	ldreq	r2, [r4, #-770]!	; 0x302
 6f8:	000001b7 			; <UNDEFINED> instruction: 0x000001b7
 6fc:	25040402 	strcs	r0, [r4, #-1026]	; 0x402
 700:	02000000 	andeq	r0, r0, #0
 704:	06003823 	streq	r3, [r0], -r3, lsr #16
 708:	00000153 	andeq	r0, r0, r3, asr r1
 70c:	9c040502 	cfstr32ls	mvfx0, [r4], {2}
 710:	02000000 	andeq	r0, r0, #0
 714:	00790704 	rsbseq	r0, r9, r4, lsl #14
 718:	01070000 	mrseq	r0, (UNDEF: 7)
 71c:	00000186 	andeq	r0, r0, r6, lsl #3
 720:	95640301 	strbls	r0, [r4, #-769]!	; 0x301
 724:	95c84000 	strbls	r4, [r8]
 728:	01a44000 			; <UNDEFINED> instruction: 0x01a44000
 72c:	01080000 	mrseq	r0, (UNDEF: 8)
 730:	000001d2 	ldrdeq	r0, [r0], -r2
 734:	c8011001 	stmdagt	r1, {r0, ip}
 738:	24400095 	strbcs	r0, [r0], #-149	; 0x95
 73c:	d0400096 	umaalle	r0, r0, r6, r0
 740:	d6000001 	strle	r0, [r0], -r1
 744:	09000001 	stmdbeq	r0, {r0}
 748:	00000190 	muleq	r0, r0, r1
 74c:	01d61001 	bicseq	r1, r6, r1
 750:	91020000 	mrsls	r0, (UNDEF: 2)
 754:	db0a0074 	blle	28092c <_start-0x3fd876d4>
 758:	02000001 	andeq	r0, r0, #1
 75c:	00630801 	rsbeq	r0, r3, r1, lsl #16
 760:	01080000 	mrseq	r0, (UNDEF: 8)
 764:	000001f9 	strdeq	r0, [r0], -r9
 768:	24011701 	strcs	r1, [r1], #-1793	; 0x701
 76c:	70400096 	umaalvc	r0, r0, r6, r0
 770:	fc400096 	mcrr2	0, 9, r0, r0, cr6
 774:	0a000001 	beq	780 <_start-0x40007880>
 778:	09000002 	stmdbeq	r0, {r1}
 77c:	00000170 	andeq	r0, r0, r0, ror r1
 780:	020a1701 	andeq	r1, sl, #262144	; 0x40000
 784:	91020000 	mrsls	r0, (UNDEF: 2)
 788:	040b0074 	streq	r0, [fp], #-116	; 0x74
 78c:	000001d6 	ldrdeq	r0, [r0], -r6
 790:	01be010c 			; <UNDEFINED> instruction: 0x01be010c
 794:	1d010000 	stcne	0, cr0, [r1]
 798:	00000239 	andeq	r0, r0, r9, lsr r2
 79c:	40009670 	andmi	r9, r0, r0, ror r6
 7a0:	400096b8 			; <UNDEFINED> instruction: 0x400096b8
 7a4:	00000228 	andeq	r0, r0, r8, lsr #4
 7a8:	00000239 	andeq	r0, r0, r9, lsr r2
 7ac:	0100630d 	tsteq	r0, sp, lsl #6
 7b0:	0002391f 	andeq	r3, r2, pc, lsl r9
 7b4:	7b910200 	blvc	fe440fbc <_ctype+0xbe436d8c>
 7b8:	08010200 	stmdaeq	r1, {r9}
 7bc:	0000005a 	andeq	r0, r0, sl, asr r0
 7c0:	00005f00 	andeq	r5, r0, r0, lsl #30
 7c4:	61000200 	mrsvs	r0, R8_usr
 7c8:	04000002 	streq	r0, [r0], #-2
 7cc:	00040c01 	andeq	r0, r4, r1, lsl #24
 7d0:	0096b800 	addseq	fp, r6, r0, lsl #16
 7d4:	00974c40 	addseq	r4, r7, r0, asr #24
 7d8:	6d6f6340 	stclvs	3, cr6, [pc, #-256]!	; 6e0 <_start-0x40007920>
 7dc:	2f6e6f6d 	svccs	0x006e6f6d
 7e0:	2f637273 	svccs	0x00637273
 7e4:	6964755f 	stmdbvs	r4!, {r0, r1, r2, r3, r4, r6, r8, sl, ip, sp, lr}^
 7e8:	33697376 	cmncc	r9, #-671088639	; 0xd8000001
 7ec:	4400532e 	strmi	r5, [r0], #-814	; 0x32e
 7f0:	63655c3a 	cmnvs	r5, #14848	; 0x3a00
 7f4:	7370696c 	cmnvc	r0, #1769472	; 0x1b0000
 7f8:	72705f65 	rsbsvc	r5, r0, #404	; 0x194
 7fc:	63656a6f 	cmnvs	r5, #454656	; 0x6f000
 800:	465c7374 			; <UNDEFINED> instruction: 0x465c7374
 804:	31343453 	teqcc	r4, r3, asr r4
 808:	37315c32 			; <UNDEFINED> instruction: 0x37315c32
 80c:	756d6d2d 	strbvc	r6, [sp, #-3373]!	; 0xd2d
 810:	646f635c 	strbtvs	r6, [pc], #-860	; 818 <_start-0x400077e8>
 814:	4e470065 	cdpmi	0, 4, cr0, cr7, cr5, {3}
 818:	53412055 	movtpl	r2, #4181	; 0x1055
 81c:	322e3220 	eorcc	r3, lr, #2
 820:	80010031 	andhi	r0, r1, r1, lsr r0
 824:	0000005f 	andeq	r0, r0, pc, asr r0
 828:	02750002 	rsbseq	r0, r5, #2
 82c:	01040000 	mrseq	r0, (UNDEF: 4)
 830:	00000475 	andeq	r0, r0, r5, ror r4
 834:	4000974c 	andmi	r9, r0, ip, asr #14
 838:	400097fc 	strdmi	r9, [r0], -ip
 83c:	6d6d6f63 	stclvs	15, cr6, [sp, #-396]!	; 0xfffffe74
 840:	732f6e6f 	teqvc	pc, #1776	; 0x6f0
 844:	5f2f6372 	svcpl	0x002f6372
 848:	646f6d75 	strbtvs	r6, [pc], #-3445	; 850 <_start-0x400077b0>
 84c:	2e336973 	mrccs	9, 1, r6, cr3, cr3, {3}
 850:	3a440053 	bcc	11009a4 <_start-0x3ef0765c>
 854:	6c63655c 	cfstr64vs	mvdx6, [r3], #-368	; 0xfffffe90
 858:	65737069 	ldrbvs	r7, [r3, #-105]!	; 0x69
 85c:	6f72705f 	svcvs	0x0072705f
 860:	7463656a 	strbtvc	r6, [r3], #-1386	; 0x56a
 864:	53465c73 	movtpl	r5, #27763	; 0x6c73
 868:	32313434 	eorscc	r3, r1, #872415232	; 0x34000000
 86c:	2d37315c 	ldfcss	f3, [r7, #-368]!	; 0xfffffe90
 870:	5c756d6d 	ldclpl	13, cr6, [r5], #-436	; 0xfffffe4c
 874:	65646f63 	strbvs	r6, [r4, #-3939]!	; 0xf63
 878:	554e4700 	strbpl	r4, [lr, #-1792]	; 0x700
 87c:	20534120 	subscs	r4, r3, r0, lsr #2
 880:	31322e32 	teqcc	r2, r2, lsr lr
 884:	83800100 	orrhi	r0, r0, #0
 888:	02000001 	andeq	r0, r0, #1
 88c:	00028900 	andeq	r8, r2, r0, lsl #18
 890:	6d010400 	cfstrsvs	mvf0, [r1]
 894:	01000000 	mrseq	r0, (UNDEF: 0)
 898:	00000220 	andeq	r0, r0, r0, lsr #4
 89c:	0000012c 	andeq	r0, r0, ip, lsr #2
 8a0:	400097fc 	strdmi	r9, [r0], -ip
 8a4:	400099d8 	ldrdmi	r9, [r0], -r8
 8a8:	000004e5 	andeq	r0, r0, r5, ror #9
 8ac:	7e070402 	cdpvc	4, 0, cr0, cr7, cr2, {0}
 8b0:	03000000 	movweq	r0, #0
 8b4:	02270210 	eoreq	r0, r7, #1
 8b8:	00000072 	andeq	r0, r0, r2, ror r0
 8bc:	4e4f4304 	cdpmi	3, 4, cr4, cr15, cr4, {0}
 8c0:	02280200 	eoreq	r0, r8, #0
 8c4:	00000025 	andeq	r0, r0, r5, lsr #32
 8c8:	04002302 	streq	r2, [r0], #-770	; 0x302
 8cc:	00544144 	subseq	r4, r4, r4, asr #2
 8d0:	25022902 	strcs	r2, [r2, #-2306]	; 0x902
 8d4:	02000000 	andeq	r0, r0, #0
 8d8:	50040423 	andpl	r0, r4, r3, lsr #8
 8dc:	02004455 	andeq	r4, r0, #1426063360	; 0x55000000
 8e0:	0025022a 	eoreq	r0, r5, sl, lsr #4
 8e4:	23020000 	movwcs	r0, #8192	; 0x2000
 8e8:	52440408 	subpl	r0, r4, #134217728	; 0x8000000
 8ec:	2b020056 	blcs	80a4c <_start-0x3ff875b4>
 8f0:	00002502 	andeq	r2, r0, r2, lsl #10
 8f4:	0c230200 	sfmeq	f0, 4, [r3]
 8f8:	02400500 	subeq	r0, r0, #0
 8fc:	2c020000 	stccs	0, cr0, [r2], {0}
 900:	00002c02 	andeq	r2, r0, r2, lsl #24
 904:	07040200 	streq	r0, [r4, -r0, lsl #4]
 908:	00000079 	andeq	r0, r0, r9, ror r0
 90c:	02620106 	rsbeq	r0, r2, #-2147483647	; 0x80000001
 910:	0b010000 	bleq	40918 <_start-0x3ffc76e8>
 914:	0097fc01 	addseq	pc, r7, r1, lsl #24
 918:	00989440 	addseq	r9, r8, r0, asr #8
 91c:	00025440 	andeq	r5, r2, r0, asr #8
 920:	0000c500 	andeq	ip, r0, r0, lsl #10
 924:	02260700 	eoreq	r0, r6, #0
 928:	0b010000 	bleq	40930 <_start-0x3ffc76d0>
 92c:	000000c5 	andeq	r0, r0, r5, asr #1
 930:	08709102 	ldmdaeq	r0!, {r1, r8, ip, pc}^
 934:	0d010069 	stceq	0, cr0, [r1, #-420]	; 0xfffffe5c
 938:	000000c5 	andeq	r0, r0, r5, asr #1
 93c:	08789102 	ldmdaeq	r8!, {r1, r8, ip, pc}^
 940:	0d01006a 	stceq	0, cr0, [r1, #-424]	; 0xfffffe58
 944:	000000c5 	andeq	r0, r0, r5, asr #1
 948:	00749102 	rsbseq	r9, r4, r2, lsl #2
 94c:	69050409 	stmdbvs	r5, {r0, r3, sl}
 950:	0600746e 	streq	r7, [r0], -lr, ror #8
 954:	00022b01 	andeq	r2, r2, r1, lsl #22
 958:	011a0100 	tsteq	sl, r0, lsl #2
 95c:	40009894 	mulmi	r0, r4, r8
 960:	40009940 	andmi	r9, r0, r0, asr #18
 964:	00000280 	andeq	r0, r0, r0, lsl #5
 968:	00000150 	andeq	r0, r0, r0, asr r1
 96c:	00025707 	andeq	r5, r2, r7, lsl #14
 970:	251a0100 	ldrcs	r0, [sl, #-256]	; 0x100
 974:	02000000 	andeq	r0, r0, #0
 978:	4e076c91 	mcrmi	12, 0, r6, cr7, cr1, {4}
 97c:	01000002 	tsteq	r0, r2
 980:	0000251a 	andeq	r2, r0, sl, lsl r5
 984:	68910200 	ldmvs	r1, {r9}
 988:	00021507 	andeq	r1, r2, r7, lsl #10
 98c:	251a0100 	ldrcs	r0, [sl, #-256]	; 0x100
 990:	02000000 	andeq	r0, r0, #0
 994:	36076491 			; <UNDEFINED> instruction: 0x36076491
 998:	01000002 	tsteq	r0, r2
 99c:	0000c51a 	andeq	ip, r0, sl, lsl r5
 9a0:	60910200 	addsvs	r0, r1, r0, lsl #4
 9a4:	74747008 	ldrbtvc	r7, [r4], #-8
 9a8:	501c0100 	andspl	r0, ip, r0, lsl #2
 9ac:	02000001 	andeq	r0, r0, #1
 9b0:	69087891 	stmdbvs	r8, {r0, r4, r7, fp, ip, sp, lr}
 9b4:	c51d0100 	ldrgt	r0, [sp, #-256]	; 0x100
 9b8:	02000000 	andeq	r0, r0, #0
 9bc:	450a7491 	strmi	r7, [sl, #-1169]	; 0x491
 9c0:	01000002 	tsteq	r0, r2
 9c4:	0000c51d 	andeq	ip, r0, sp, lsl r5
 9c8:	70910200 	addsvc	r0, r1, r0, lsl #4
 9cc:	0074740b 	rsbseq	r7, r4, fp, lsl #8
 9d0:	00c51d01 	sbceq	r1, r5, r1, lsl #26
 9d4:	0c000000 	stceq	0, cr0, [r0], {0}
 9d8:	00002504 	andeq	r2, r0, r4, lsl #10
 9dc:	3b010d00 	blcc	43de4 <_start-0x3ffc421c>
 9e0:	01000002 	tsteq	r0, r2
 9e4:	0000c524 	andeq	ip, r0, r4, lsr #10
 9e8:	00994000 	addseq	r4, r9, r0
 9ec:	0099d840 	addseq	sp, r9, r0, asr #16
 9f0:	0002ac40 	andeq	sl, r2, r0, asr #24
 9f4:	00018100 	andeq	r8, r1, r0, lsl #2
 9f8:	00270a00 	eoreq	r0, r7, r0, lsl #20
 9fc:	26010000 	strcs	r0, [r1], -r0
 a00:	00000181 	andeq	r0, r0, r1, lsl #3
 a04:	00749102 	rsbseq	r9, r4, r2, lsl #2
 a08:	0000c50e 	andeq	ip, r0, lr, lsl #10
	...

Disassembly of section .debug_abbrev:

00000000 <.debug_abbrev>:
   0:	10001101 	andne	r1, r0, r1, lsl #2
   4:	12011106 	andne	r1, r1, #-2147483647	; 0x80000001
   8:	1b080301 	blne	200c14 <_start-0x3fe073ec>
   c:	13082508 	movwne	r2, #34056	; 0x8508
  10:	00000005 	andeq	r0, r0, r5
  14:	10001101 	andne	r1, r0, r1, lsl #2
  18:	12011106 	andne	r1, r1, #-2147483647	; 0x80000001
  1c:	1b080301 	blne	200c28 <_start-0x3fe073d8>
  20:	13082508 	movwne	r2, #34056	; 0x8508
  24:	00000005 	andeq	r0, r0, r5
  28:	25011101 	strcs	r1, [r1, #-257]	; 0x101
  2c:	030b130e 	movweq	r1, #45838	; 0xb30e
  30:	110e1b0e 	tstne	lr, lr, lsl #22
  34:	10011201 	andne	r1, r1, r1, lsl #4
  38:	02000006 	andeq	r0, r0, #6
  3c:	0e030016 	mcreq	0, 0, r0, cr3, cr6, {0}
  40:	0b3b0b3a 	bleq	ec2d30 <_start-0x3f1452d0>
  44:	00001349 	andeq	r1, r0, r9, asr #6
  48:	0b000f03 	bleq	3c5c <_start-0x400043a4>
  4c:	000e030b 	andeq	r0, lr, fp, lsl #6
  50:	012e0400 	teqeq	lr, r0, lsl #8
  54:	0b3a0e03 	bleq	e83868 <_start-0x3f184798>
  58:	0c270b3b 	stceq	11, cr0, [r7], #-236	; 0xffffff14
  5c:	01111349 	tsteq	r1, r9, asr #6
  60:	06400112 			; <UNDEFINED> instruction: 0x06400112
  64:	00001301 	andeq	r1, r0, r1, lsl #6
  68:	03000505 	movweq	r0, #1285	; 0x505
  6c:	3b0b3a08 	blcc	2ce894 <_start-0x3fd3976c>
  70:	0213490b 	andseq	r4, r3, #180224	; 0x2c000
  74:	0600000a 	streq	r0, [r0], -sl
  78:	0b0b0024 	bleq	2c0110 <_start-0x3fd47ef0>
  7c:	0e030b3e 	vmoveq.16	d3[0], r0
  80:	2e070000 	cdpcs	0, 0, cr0, cr7, cr0, {0}
  84:	030c3f01 	movweq	r3, #52993	; 0xcf01
  88:	3b0b3a0e 	blcc	2ce8c8 <_start-0x3fd39738>
  8c:	490c270b 	stmdbmi	ip, {r0, r1, r3, r8, r9, sl, sp}
  90:	12011113 	andne	r1, r1, #-1073741820	; 0xc0000004
  94:	01064001 	tsteq	r6, r1
  98:	08000013 	stmdaeq	r0, {r0, r1, r4}
  9c:	0e030005 	cdpeq	0, 0, cr0, cr3, cr5, {0}
  a0:	0b3b0b3a 	bleq	ec2d90 <_start-0x3f145270>
  a4:	0a021349 	beq	84dd0 <_start-0x3ff83230>
  a8:	34090000 	strcc	r0, [r9]
  ac:	3a0e0300 	bcc	380cb4 <_start-0x3fc8734c>
  b0:	490b3b0b 	stmdbmi	fp, {r0, r1, r3, r8, r9, fp, ip, sp}
  b4:	000a0213 	andeq	r0, sl, r3, lsl r2
  b8:	000f0a00 	andeq	r0, pc, r0, lsl #20
  bc:	13490b0b 	movtne	r0, #39691	; 0x9b0b
  c0:	260b0000 	strcs	r0, [fp], -r0
  c4:	00134900 	andseq	r4, r3, r0, lsl #18
  c8:	00340c00 	eorseq	r0, r4, r0, lsl #24
  cc:	0b3a0803 	bleq	e820e0 <_start-0x3f185f20>
  d0:	13490b3b 	movtne	r0, #39739	; 0x9b3b
  d4:	00000a02 	andeq	r0, r0, r2, lsl #20
  d8:	0b00240d 	bleq	9114 <_start-0x3fffeeec>
  dc:	030b3e0b 	movweq	r3, #48651	; 0xbe0b
  e0:	0e000008 	cdpeq	0, 0, cr0, cr0, cr8, {0}
  e4:	0111010b 	tsteq	r1, fp, lsl #2
  e8:	00000112 	andeq	r0, r0, r2, lsl r1
  ec:	4901010f 	stmdbmi	r1, {r0, r1, r2, r3, r8}
  f0:	00130113 	andseq	r0, r3, r3, lsl r1
  f4:	00211000 	eoreq	r1, r1, r0
  f8:	0b2f1349 	bleq	bc4e24 <_start-0x3f4431dc>
  fc:	0a110000 	beq	440104 <_start-0x3fbc7efc>
 100:	3a0e0300 	bcc	380d08 <_start-0x3fc872f8>
 104:	110b3b0b 	tstne	fp, fp, lsl #22
 108:	12000001 	andne	r0, r0, #1
 10c:	0111010b 	tsteq	r1, fp, lsl #2
 110:	13010112 	movwne	r0, #4370	; 0x1112
 114:	34130000 	ldrcc	r0, [r3]
 118:	3a080300 	bcc	200d20 <_start-0x3fe072e0>
 11c:	49053b0b 	stmdbmi	r5, {r0, r1, r3, r8, r9, fp, ip, sp}
 120:	000a0213 	andeq	r0, sl, r3, lsl r2
 124:	012e1400 	teqeq	lr, r0, lsl #8
 128:	0e030c3f 	mcreq	12, 0, r0, cr3, cr15, {1}
 12c:	053b0b3a 	ldreq	r0, [fp, #-2874]!	; 0xb3a
 130:	13490c27 	movtne	r0, #39975	; 0x9c27
 134:	01120111 	tsteq	r2, r1, lsl r1
 138:	13010640 	movwne	r0, #5696	; 0x1640
 13c:	05150000 	ldreq	r0, [r5]
 140:	3a080300 	bcc	200d48 <_start-0x3fe072b8>
 144:	49053b0b 	stmdbmi	r5, {r0, r1, r3, r8, r9, fp, ip, sp}
 148:	000a0213 	andeq	r0, sl, r3, lsl r2
 14c:	00181600 	andseq	r1, r8, r0, lsl #12
 150:	34170000 	ldrcc	r0, [r7]
 154:	3a0e0300 	bcc	380d5c <_start-0x3fc872a4>
 158:	49053b0b 	stmdbmi	r5, {r0, r1, r3, r8, r9, fp, ip, sp}
 15c:	000a0213 	andeq	r0, sl, r3, lsl r2
 160:	012e1800 	teqeq	lr, r0, lsl #16
 164:	0e030c3f 	mcreq	12, 0, r0, cr3, cr15, {1}
 168:	053b0b3a 	ldreq	r0, [fp, #-2874]!	; 0xb3a
 16c:	01110c27 	tsteq	r1, r7, lsr #24
 170:	06400112 			; <UNDEFINED> instruction: 0x06400112
 174:	00001301 	andeq	r1, r0, r1, lsl #6
 178:	03003419 	movweq	r3, #1049	; 0x419
 17c:	3b0b3a0e 	blcc	2ce9bc <_start-0x3fd39644>
 180:	3f13490b 	svccc	0x0013490b
 184:	000c3c0c 	andeq	r3, ip, ip, lsl #24
 188:	00341a00 	eorseq	r1, r4, r0, lsl #20
 18c:	0b3a0e03 	bleq	e839a0 <_start-0x3f184660>
 190:	13490b3b 	movtne	r0, #39739	; 0x9b3b
 194:	0a020c3f 	beq	83298 <_start-0x3ff84d68>
 198:	01000000 	mrseq	r0, (UNDEF: 0)
 19c:	0e250111 	mcreq	1, 1, r0, cr5, cr1, {0}
 1a0:	0e030b13 	vmoveq.32	d3[0], r0
 1a4:	01110e1b 	tsteq	r1, fp, lsl lr
 1a8:	06100112 			; <UNDEFINED> instruction: 0x06100112
 1ac:	24020000 	strcs	r0, [r2]
 1b0:	3e0b0b00 	vmlacc.f64	d0, d11, d0
 1b4:	000e030b 	andeq	r0, lr, fp, lsl #6
 1b8:	01130300 	tsteq	r3, r0, lsl #6
 1bc:	0b3a0b0b 	bleq	e82df0 <_start-0x3f185210>
 1c0:	1301053b 	movwne	r0, #5435	; 0x153b
 1c4:	0d040000 	stceq	0, cr0, [r4]
 1c8:	3a080300 	bcc	200dd0 <_start-0x3fe07230>
 1cc:	49053b0b 	stmdbmi	r5, {r0, r1, r3, r8, r9, fp, ip, sp}
 1d0:	000a3813 	andeq	r3, sl, r3, lsl r8
 1d4:	000d0500 	andeq	r0, sp, r0, lsl #10
 1d8:	0b3a0e03 	bleq	e839ec <_start-0x3f184614>
 1dc:	1349053b 	movtne	r0, #38203	; 0x953b
 1e0:	00000a38 	andeq	r0, r0, r8, lsr sl
 1e4:	03001606 	movweq	r1, #1542	; 0x606
 1e8:	3b0b3a0e 	blcc	2cea28 <_start-0x3fd395d8>
 1ec:	00134905 	andseq	r4, r3, r5, lsl #18
 1f0:	002e0700 	eoreq	r0, lr, r0, lsl #14
 1f4:	0e030c3f 	mcreq	12, 0, r0, cr3, cr15, {1}
 1f8:	0b3b0b3a 	bleq	ec2ee8 <_start-0x3f145118>
 1fc:	01120111 	tsteq	r2, r1, lsl r1
 200:	00000640 	andeq	r0, r0, r0, asr #12
 204:	3f012e08 	svccc	0x00012e08
 208:	3a0e030c 	bcc	380e40 <_start-0x3fc871c0>
 20c:	270b3b0b 	strcs	r3, [fp, -fp, lsl #22]
 210:	1201110c 	andne	r1, r1, #3
 214:	01064001 	tsteq	r6, r1
 218:	09000013 	stmdbeq	r0, {r0, r1, r4}
 21c:	0e030005 	cdpeq	0, 0, cr0, cr3, cr5, {0}
 220:	0b3b0b3a 	bleq	ec2f10 <_start-0x3f1450f0>
 224:	0a021349 	beq	84f50 <_start-0x3ff830b0>
 228:	260a0000 	strcs	r0, [sl], -r0
 22c:	00134900 	andseq	r4, r3, r0, lsl #18
 230:	000f0b00 	andeq	r0, pc, r0, lsl #22
 234:	13490b0b 	movtne	r0, #39691	; 0x9b0b
 238:	2e0c0000 	cdpcs	0, 0, cr0, cr12, cr0, {0}
 23c:	030c3f01 	movweq	r3, #52993	; 0xcf01
 240:	3b0b3a0e 	blcc	2cea80 <_start-0x3fd39580>
 244:	1113490b 	tstne	r3, fp, lsl #18
 248:	40011201 	andmi	r1, r1, r1, lsl #4
 24c:	00130106 	andseq	r0, r3, r6, lsl #2
 250:	00340d00 	eorseq	r0, r4, r0, lsl #26
 254:	0b3a0803 	bleq	e82268 <_start-0x3f185d98>
 258:	13490b3b 	movtne	r0, #39739	; 0x9b3b
 25c:	00000a02 	andeq	r0, r0, r2, lsl #20
 260:	00110100 	andseq	r0, r1, r0, lsl #2
 264:	01110610 	tsteq	r1, r0, lsl r6
 268:	08030112 	stmdaeq	r3, {r1, r4, r8}
 26c:	0825081b 	stmdaeq	r5!, {r0, r1, r3, r4, fp}
 270:	00000513 	andeq	r0, r0, r3, lsl r5
 274:	00110100 	andseq	r0, r1, r0, lsl #2
 278:	01110610 	tsteq	r1, r0, lsl r6
 27c:	08030112 	stmdaeq	r3, {r1, r4, r8}
 280:	0825081b 	stmdaeq	r5!, {r0, r1, r3, r4, fp}
 284:	00000513 	andeq	r0, r0, r3, lsl r5
 288:	01110100 	tsteq	r1, r0, lsl #2
 28c:	0b130e25 	bleq	4c3b28 <_start-0x3fb444d8>
 290:	0e1b0e03 	cdpeq	14, 1, cr0, cr11, cr3, {0}
 294:	01120111 	tsteq	r2, r1, lsl r1
 298:	00000610 	andeq	r0, r0, r0, lsl r6
 29c:	0b002402 	bleq	92ac <_start-0x3fffed54>
 2a0:	030b3e0b 	movweq	r3, #48651	; 0xbe0b
 2a4:	0300000e 	movweq	r0, #14
 2a8:	0b0b0113 	bleq	2c06fc <_start-0x3fd47904>
 2ac:	053b0b3a 	ldreq	r0, [fp, #-2874]!	; 0xb3a
 2b0:	00001301 	andeq	r1, r0, r1, lsl #6
 2b4:	03000d04 	movweq	r0, #3332	; 0xd04
 2b8:	3b0b3a08 	blcc	2ceae0 <_start-0x3fd39520>
 2bc:	38134905 	ldmdacc	r3, {r0, r2, r8, fp, lr}
 2c0:	0500000a 	streq	r0, [r0, #-10]
 2c4:	0e030016 	mcreq	0, 0, r0, cr3, cr6, {0}
 2c8:	053b0b3a 	ldreq	r0, [fp, #-2874]!	; 0xb3a
 2cc:	00001349 	andeq	r1, r0, r9, asr #6
 2d0:	3f012e06 	svccc	0x00012e06
 2d4:	3a0e030c 	bcc	380f0c <_start-0x3fc870f4>
 2d8:	270b3b0b 	strcs	r3, [fp, -fp, lsl #22]
 2dc:	1201110c 	andne	r1, r1, #3
 2e0:	01064001 	tsteq	r6, r1
 2e4:	07000013 	smladeq	r0, r3, r0, r0
 2e8:	0e030005 	cdpeq	0, 0, cr0, cr3, cr5, {0}
 2ec:	0b3b0b3a 	bleq	ec2fdc <_start-0x3f145024>
 2f0:	0a021349 	beq	8501c <_start-0x3ff82fe4>
 2f4:	34080000 	strcc	r0, [r8]
 2f8:	3a080300 	bcc	200f00 <_start-0x3fe07100>
 2fc:	490b3b0b 	stmdbmi	fp, {r0, r1, r3, r8, r9, fp, ip, sp}
 300:	000a0213 	andeq	r0, sl, r3, lsl r2
 304:	00240900 	eoreq	r0, r4, r0, lsl #18
 308:	0b3e0b0b 	bleq	f82f3c <_start-0x3f0850c4>
 30c:	00000803 	andeq	r0, r0, r3, lsl #16
 310:	0300340a 	movweq	r3, #1034	; 0x40a
 314:	3b0b3a0e 	blcc	2ceb54 <_start-0x3fd394ac>
 318:	0213490b 	andseq	r4, r3, #180224	; 0x2c000
 31c:	0b00000a 	bleq	34c <_start-0x40007cb4>
 320:	08030034 	stmdaeq	r3, {r2, r4, r5}
 324:	0b3b0b3a 	bleq	ec3014 <_start-0x3f144fec>
 328:	00001349 	andeq	r1, r0, r9, asr #6
 32c:	0b000f0c 	bleq	3f64 <_start-0x4000409c>
 330:	0013490b 	andseq	r4, r3, fp, lsl #18
 334:	012e0d00 	teqeq	lr, r0, lsl #26
 338:	0e030c3f 	mcreq	12, 0, r0, cr3, cr15, {1}
 33c:	0b3b0b3a 	bleq	ec302c <_start-0x3f144fd4>
 340:	01111349 	tsteq	r1, r9, asr #6
 344:	06400112 			; <UNDEFINED> instruction: 0x06400112
 348:	00001301 	andeq	r1, r0, r1, lsl #6
 34c:	4900350e 	stmdbmi	r0, {r1, r2, r3, r8, sl, ip, sp}
 350:	00000013 	andeq	r0, r0, r3, lsl r0

Disassembly of section .debug_aranges:

00000000 <.debug_aranges>:
   0:	0000001c 	andeq	r0, r0, ip, lsl r0
   4:	00000002 	andeq	r0, r0, r2
   8:	00040000 	andeq	r0, r4, r0
   c:	00000000 	andeq	r0, r0, r0
  10:	40008170 	andmi	r8, r0, r0, ror r1
  14:	00000200 	andeq	r0, r0, r0, lsl #4
	...
  20:	0000001c 	andeq	r0, r0, ip, lsl r0
  24:	00630002 	rsbeq	r0, r3, r2
  28:	00040000 	andeq	r0, r4, r0
  2c:	00000000 	andeq	r0, r0, r0
  30:	40008000 	andmi	r8, r0, r0
  34:	00000164 	andeq	r0, r0, r4, ror #2
	...
  40:	0000001c 	andeq	r0, r0, ip, lsl r0
  44:	00be0002 	adcseq	r0, lr, r2
  48:	00040000 	andeq	r0, r4, r0
  4c:	00000000 	andeq	r0, r0, r0
  50:	40008370 	andmi	r8, r0, r0, ror r3
  54:	000011f4 	strdeq	r1, [r0], -r4
	...
  60:	0000001c 	andeq	r0, r0, ip, lsl r0
  64:	05800002 	streq	r0, [r0, #2]
  68:	00040000 	andeq	r0, r4, r0
  6c:	00000000 	andeq	r0, r0, r0
  70:	40009564 	andmi	r9, r0, r4, ror #10
  74:	00000154 	andeq	r0, r0, r4, asr r1
	...
  80:	0000001c 	andeq	r0, r0, ip, lsl r0
  84:	07c10002 	strbeq	r0, [r1, r2]
  88:	00040000 	andeq	r0, r4, r0
  8c:	00000000 	andeq	r0, r0, r0
  90:	400096b8 			; <UNDEFINED> instruction: 0x400096b8
  94:	00000094 	muleq	r0, r4, r0
	...
  a0:	0000001c 	andeq	r0, r0, ip, lsl r0
  a4:	08240002 	stmdaeq	r4!, {r1}
  a8:	00040000 	andeq	r0, r4, r0
  ac:	00000000 	andeq	r0, r0, r0
  b0:	4000974c 	andmi	r9, r0, ip, asr #14
  b4:	000000b0 	strheq	r0, [r0], -r0	; <UNPREDICTABLE>
	...
  c0:	0000001c 	andeq	r0, r0, ip, lsl r0
  c4:	08870002 	stmeq	r7, {r1}
  c8:	00040000 	andeq	r0, r4, r0
  cc:	00000000 	andeq	r0, r0, r0
  d0:	400097fc 	strdmi	r9, [r0], -ip
  d4:	000001dc 	ldrdeq	r0, [r0], -ip
	...

Disassembly of section .debug_loc:

00000000 <.debug_loc>:
   0:	00000000 	andeq	r0, r0, r0
   4:	00000004 	andeq	r0, r0, r4
   8:	007d0002 	rsbseq	r0, sp, r2
   c:	00000004 	andeq	r0, r0, r4
  10:	00000008 	andeq	r0, r0, r8
  14:	047d0002 	ldrbteq	r0, [sp], #-2
  18:	00000008 	andeq	r0, r0, r8
  1c:	00000050 	andeq	r0, r0, r0, asr r0
  20:	047b0002 	ldrbteq	r0, [fp], #-2
	...
  2c:	00000050 	andeq	r0, r0, r0, asr r0
  30:	00000054 	andeq	r0, r0, r4, asr r0
  34:	007d0002 	rsbseq	r0, sp, r2
  38:	00000054 	andeq	r0, r0, r4, asr r0
  3c:	00000058 	andeq	r0, r0, r8, asr r0
  40:	087d0002 	ldmdaeq	sp!, {r1}^
  44:	00000058 	andeq	r0, r0, r8, asr r0
  48:	000001f8 	strdeq	r0, [r0], -r8
  4c:	047b0002 	ldrbteq	r0, [fp], #-2
	...
  58:	000001f8 	strdeq	r0, [r0], -r8
  5c:	000001fc 	strdeq	r0, [r0], -ip
  60:	007d0002 	rsbseq	r0, sp, r2
  64:	000001fc 	strdeq	r0, [r0], -ip
  68:	00000200 	andeq	r0, r0, r0, lsl #4
  6c:	087d0002 	ldmdaeq	sp!, {r1}^
  70:	00000200 	andeq	r0, r0, r0, lsl #4
  74:	00000268 	andeq	r0, r0, r8, ror #4
  78:	047b0002 	ldrbteq	r0, [fp], #-2
	...
  84:	00000268 	andeq	r0, r0, r8, ror #4
  88:	0000026c 	andeq	r0, r0, ip, ror #4
  8c:	007d0002 	rsbseq	r0, sp, r2
  90:	0000026c 	andeq	r0, r0, ip, ror #4
  94:	00000270 	andeq	r0, r0, r0, ror r2
  98:	047d0002 	ldrbteq	r0, [sp], #-2
  9c:	00000270 	andeq	r0, r0, r0, ror r2
  a0:	000002fc 	strdeq	r0, [r0], -ip
  a4:	047b0002 	ldrbteq	r0, [fp], #-2
	...
  b0:	000002fc 	strdeq	r0, [r0], -ip
  b4:	00000300 	andeq	r0, r0, r0, lsl #6
  b8:	007d0002 	rsbseq	r0, sp, r2
  bc:	00000300 	andeq	r0, r0, r0, lsl #6
  c0:	00000304 	andeq	r0, r0, r4, lsl #6
  c4:	087d0002 	ldmdaeq	sp!, {r1}^
  c8:	00000304 	andeq	r0, r0, r4, lsl #6
  cc:	00000794 	muleq	r0, r4, r7
  d0:	047b0002 	ldrbteq	r0, [fp], #-2
	...
  dc:	00000794 	muleq	r0, r4, r7
  e0:	00000798 	muleq	r0, r8, r7
  e4:	007d0002 	rsbseq	r0, sp, r2
  e8:	00000798 	muleq	r0, r8, r7
  ec:	0000079c 	muleq	r0, ip, r7
  f0:	047d0002 	ldrbteq	r0, [sp], #-2
  f4:	0000079c 	muleq	r0, ip, r7
  f8:	00000814 	andeq	r0, r0, r4, lsl r8
  fc:	047b0002 	ldrbteq	r0, [fp], #-2
	...
 108:	00000814 	andeq	r0, r0, r4, lsl r8
 10c:	00000818 	andeq	r0, r0, r8, lsl r8
 110:	007d0002 	rsbseq	r0, sp, r2
 114:	00000818 	andeq	r0, r0, r8, lsl r8
 118:	0000081c 	andeq	r0, r0, ip, lsl r8
 11c:	087d0002 	ldmdaeq	sp!, {r1}^
 120:	0000081c 	andeq	r0, r0, ip, lsl r8
 124:	0000114c 	andeq	r1, r0, ip, asr #2
 128:	047b0002 	ldrbteq	r0, [fp], #-2
	...
 134:	0000114c 	andeq	r1, r0, ip, asr #2
 138:	00001150 	andeq	r1, r0, r0, asr r1
 13c:	007d0002 	rsbseq	r0, sp, r2
 140:	00001150 	andeq	r1, r0, r0, asr r1
 144:	00001154 	andeq	r1, r0, r4, asr r1
 148:	0c7d0002 	ldcleq	0, cr0, [sp], #-8
 14c:	00001154 	andeq	r1, r0, r4, asr r1
 150:	00001158 	andeq	r1, r0, r8, asr r1
 154:	147d0002 	ldrbtne	r0, [sp], #-2
 158:	00001158 	andeq	r1, r0, r8, asr r1
 15c:	0000119c 	muleq	r0, ip, r1
 160:	107b0002 	rsbsne	r0, fp, r2
	...
 16c:	0000119c 	muleq	r0, ip, r1
 170:	000011a0 	andeq	r1, r0, r0, lsr #3
 174:	007d0002 	rsbseq	r0, sp, r2
 178:	000011a0 	andeq	r1, r0, r0, lsr #3
 17c:	000011a4 	andeq	r1, r0, r4, lsr #3
 180:	107d0002 	rsbsne	r0, sp, r2
 184:	000011a4 	andeq	r1, r0, r4, lsr #3
 188:	000011a8 	andeq	r1, r0, r8, lsr #3
 18c:	187d0002 	ldmdane	sp!, {r1}^
 190:	000011a8 	andeq	r1, r0, r8, lsr #3
 194:	000011f4 	strdeq	r1, [r0], -r4
 198:	147b0002 	ldrbtne	r0, [fp], #-2
	...
 1a8:	00000004 	andeq	r0, r0, r4
 1ac:	007d0002 	rsbseq	r0, sp, r2
 1b0:	00000004 	andeq	r0, r0, r4
 1b4:	00000008 	andeq	r0, r0, r8
 1b8:	047d0002 	ldrbteq	r0, [sp], #-2
 1bc:	00000008 	andeq	r0, r0, r8
 1c0:	00000064 	andeq	r0, r0, r4, rrx
 1c4:	047b0002 	ldrbteq	r0, [fp], #-2
	...
 1d0:	00000064 	andeq	r0, r0, r4, rrx
 1d4:	00000068 	andeq	r0, r0, r8, rrx
 1d8:	007d0002 	rsbseq	r0, sp, r2
 1dc:	00000068 	andeq	r0, r0, r8, rrx
 1e0:	0000006c 	andeq	r0, r0, ip, rrx
 1e4:	087d0002 	ldmdaeq	sp!, {r1}^
 1e8:	0000006c 	andeq	r0, r0, ip, rrx
 1ec:	000000c0 	andeq	r0, r0, r0, asr #1
 1f0:	047b0002 	ldrbteq	r0, [fp], #-2
	...
 1fc:	000000c0 	andeq	r0, r0, r0, asr #1
 200:	000000c4 	andeq	r0, r0, r4, asr #1
 204:	007d0002 	rsbseq	r0, sp, r2
 208:	000000c4 	andeq	r0, r0, r4, asr #1
 20c:	000000c8 	andeq	r0, r0, r8, asr #1
 210:	087d0002 	ldmdaeq	sp!, {r1}^
 214:	000000c8 	andeq	r0, r0, r8, asr #1
 218:	0000010c 	andeq	r0, r0, ip, lsl #2
 21c:	047b0002 	ldrbteq	r0, [fp], #-2
	...
 228:	0000010c 	andeq	r0, r0, ip, lsl #2
 22c:	00000110 	andeq	r0, r0, r0, lsl r1
 230:	007d0002 	rsbseq	r0, sp, r2
 234:	00000110 	andeq	r0, r0, r0, lsl r1
 238:	00000114 	andeq	r0, r0, r4, lsl r1
 23c:	047d0002 	ldrbteq	r0, [sp], #-2
 240:	00000114 	andeq	r0, r0, r4, lsl r1
 244:	00000154 	andeq	r0, r0, r4, asr r1
 248:	047b0002 	ldrbteq	r0, [fp], #-2
	...
 258:	00000004 	andeq	r0, r0, r4
 25c:	007d0002 	rsbseq	r0, sp, r2
 260:	00000004 	andeq	r0, r0, r4
 264:	00000008 	andeq	r0, r0, r8
 268:	047d0002 	ldrbteq	r0, [sp], #-2
 26c:	00000008 	andeq	r0, r0, r8
 270:	00000098 	muleq	r0, r8, r0
 274:	047b0002 	ldrbteq	r0, [fp], #-2
	...
 280:	00000098 	muleq	r0, r8, r0
 284:	0000009c 	muleq	r0, ip, r0
 288:	007d0002 	rsbseq	r0, sp, r2
 28c:	0000009c 	muleq	r0, ip, r0
 290:	000000a0 	andeq	r0, r0, r0, lsr #1
 294:	047d0002 	ldrbteq	r0, [sp], #-2
 298:	000000a0 	andeq	r0, r0, r0, lsr #1
 29c:	00000144 	andeq	r0, r0, r4, asr #2
 2a0:	047b0002 	ldrbteq	r0, [fp], #-2
	...
 2ac:	00000144 	andeq	r0, r0, r4, asr #2
 2b0:	00000148 	andeq	r0, r0, r8, asr #2
 2b4:	007d0002 	rsbseq	r0, sp, r2
 2b8:	00000148 	andeq	r0, r0, r8, asr #2
 2bc:	0000014c 	andeq	r0, r0, ip, asr #2
 2c0:	087d0002 	ldmdaeq	sp!, {r1}^
 2c4:	0000014c 	andeq	r0, r0, ip, asr #2
 2c8:	000001dc 	ldrdeq	r0, [r0], -ip
 2cc:	047b0002 	ldrbteq	r0, [fp], #-2
	...

Disassembly of section .debug_str:

00000000 <.debug_str>:
   0:	75625f5f 	strbvc	r5, [r2, #-3935]!	; 0xf5f
   4:	69746c69 	ldmdbvs	r4!, {r0, r3, r5, r6, sl, fp, sp, lr}^
   8:	61765f6e 	cmnvs	r6, lr, ror #30
   c:	73696c5f 	cmnvc	r9, #24320	; 0x5f00
  10:	69730074 	ldmdbvs	r3!, {r2, r4, r5, r6}^
  14:	656c706d 	strbvs	r7, [ip, #-109]!	; 0x6d
  18:	7274735f 	rsbsvc	r7, r4, #2080374785	; 0x7c000001
  1c:	6c756f74 	ldclvs	15, cr6, [r5], #-464	; 0xfffffe30
  20:	6c617600 	stclvs	6, cr7, [r1]
  24:	63006575 	movwvs	r6, #1397	; 0x575
  28:	746e756f 	strbtvc	r7, [lr], #-1391	; 0x56f
  2c:	696b7300 	stmdbvs	fp!, {r8, r9, ip, sp, lr}^
  30:	74615f70 	strbtvc	r5, [r1], #-3952	; 0xf70
  34:	5f00696f 	svcpl	0x0000696f
  38:	756f745f 	strbvc	r7, [pc, #-1119]!	; fffffbe1 <_ctype+0xbfff59b1>
  3c:	72657070 	rsbvc	r7, r5, #112	; 0x70
  40:	675f5f00 	ldrbvs	r5, [pc, -r0, lsl #30]
  44:	5f63756e 	svcpl	0x0063756e
  48:	6c5f6176 	ldfvse	f6, [pc], {118}	; 0x76
  4c:	00747369 	rsbseq	r7, r4, r9, ror #6
  50:	63657270 	cmnvs	r5, #7
  54:	6f697369 	svcvs	0x00697369
  58:	6e75006e 	cdpvs	0, 7, cr0, cr5, cr14, {3}
  5c:	6e676973 	mcrvs	9, 3, r6, cr7, cr3, {3}
  60:	63206465 	teqvs	r0, #1694498816	; 0x65000000
  64:	00726168 	rsbseq	r6, r2, r8, ror #2
  68:	65736162 	ldrbvs	r6, [r3, #-354]!	; 0x162
  6c:	554e4700 	strbpl	r4, [lr, #-1792]	; 0x700
  70:	34204320 	strtcc	r4, [r0], #-800	; 0x320
  74:	322e362e 	eorcc	r3, lr, #48234496	; 0x2e00000
  78:	6e6f6c00 	cdpvs	12, 6, cr6, cr15, cr0, {0}
  7c:	6e752067 	cdpvs	0, 7, cr2, cr5, cr7, {3}
  80:	6e676973 	mcrvs	9, 3, r6, cr7, cr3, {3}
  84:	69206465 	stmdbvs	r0!, {r0, r2, r5, r6, sl, sp, lr}
  88:	7300746e 	movwvc	r7, #1134	; 0x46e
  8c:	6c706d69 	ldclvs	13, cr6, [r0], #-420	; 0xfffffe5c
  90:	74735f65 	ldrbtvc	r5, [r3], #-3941	; 0xf65
  94:	6c6f7472 	cfstrdvs	mvd7, [pc], #-456	; fffffed4 <_ctype+0xbfff5ca4>
  98:	6d6f6300 	stclvs	3, cr6, [pc]	; a0 <_start-0x40007f60>
  9c:	2f6e6f6d 	svccs	0x006e6f6d
  a0:	2f637273 	svccs	0x00637273
  a4:	6e697270 	mcrvs	2, 3, r7, cr9, cr0, {3}
  a8:	632e6674 	teqvs	lr, #121634816	; 0x7400000
  ac:	616c6600 	cmnvs	ip, r0, lsl #12
  b0:	71007367 	tstvc	r0, r7, ror #6
  b4:	696c6175 	stmdbvs	ip!, {r0, r2, r4, r5, r6, r8, sp, lr}^
  b8:	72656966 	rsbvc	r6, r5, #1671168	; 0x198000
  bc:	73657200 	cmnvc	r5, #0
  c0:	00746c75 	rsbseq	r6, r4, r5, ror ip
  c4:	65706572 	ldrbvs	r6, [r0, #-1394]!	; 0x572
  c8:	73007461 	movwvc	r7, #1121	; 0x461
  cc:	6c6e7274 	sfmvs	f7, 2, [lr], #-464	; 0xfffffe30
  d0:	65006e65 	strvs	r6, [r0, #-3685]	; 0xe65
  d4:	0070646e 	rsbseq	r6, r0, lr, ror #8
  d8:	7974635f 	ldmdbvc	r4!, {r0, r1, r2, r3, r4, r6, r8, r9, sp, lr}^
  dc:	64006570 	strvs	r6, [r0], #-1392	; 0x570
  e0:	74696769 	strbtvc	r6, [r9], #-1897	; 0x769
  e4:	72700073 	rsbsvc	r0, r0, #115	; 0x73
  e8:	62746e69 	rsbsvs	r6, r4, #1680	; 0x690
  ec:	65666675 	strbvs	r6, [r6, #-1653]!	; 0x675
  f0:	69660072 	stmdbvs	r6!, {r1, r4, r5, r6}^
  f4:	5f646c65 	svcpl	0x00646c65
  f8:	74646977 	strbtvc	r6, [r4], #-2423	; 0x977
  fc:	72610068 	rsbvc	r0, r1, #104	; 0x68
 100:	6e007367 	cdpvs	3, 0, cr7, cr0, cr7, {3}
 104:	65626d75 	strbvs	r6, [r2, #-3445]!	; 0xd75
 108:	6f6c0072 	svcvs	0x006c0072
 10c:	6920676e 	stmdbvs	r0!, {r1, r2, r3, r5, r6, r8, r9, sl, sp, lr}
 110:	7300746e 	movwvc	r7, #1134	; 0x46e
 114:	006e6769 	rsbeq	r6, lr, r9, ror #14
 118:	65725f5f 	ldrbvs	r5, [r2, #-3935]!	; 0xf5f
 11c:	69730073 	ldmdbvs	r3!, {r0, r1, r4, r5, r6}^
 120:	7600657a 			; <UNDEFINED> instruction: 0x7600657a
 124:	69727073 	ldmdbvs	r2!, {r0, r1, r4, r5, r6, ip, sp, lr}^
 128:	0066746e 	rsbeq	r7, r6, lr, ror #8
 12c:	655c3a44 	ldrbvs	r3, [ip, #-2628]	; 0xa44
 130:	70696c63 	rsbvc	r6, r9, r3, ror #24
 134:	705f6573 	subsvc	r6, pc, r3, ror r5	; <UNPREDICTABLE>
 138:	656a6f72 	strbvs	r6, [sl, #-3954]!	; 0xf72
 13c:	5c737463 	cfldrdpl	mvd7, [r3], #-396	; 0xfffffe74
 140:	34345346 	ldrtcc	r5, [r4], #-838	; 0x346
 144:	315c3231 	cmpcc	ip, r1, lsr r2
 148:	6d6d2d37 	stclvs	13, cr2, [sp, #-220]!	; 0xffffff24
 14c:	6f635c75 	svcvs	0x00635c75
 150:	75006564 	strvc	r6, [r0, #-1380]	; 0x564
 154:	32747261 	rsbscc	r7, r4, #268435462	; 0x10000006
 158:	4e495500 	cdpmi	5, 4, cr5, cr9, cr0, {0}
 15c:	00325054 	eorseq	r5, r2, r4, asr r0
 160:	544e4955 	strbpl	r4, [lr], #-2389	; 0x955
 164:	00325053 	eorseq	r5, r2, r3, asr r0
 168:	44524255 	ldrbmi	r4, [r2], #-597	; 0x255
 16c:	00325649 	eorseq	r5, r2, r9, asr #12
 170:	72747370 	rsbsvc	r7, r4, #-1073741823	; 0xc0000001
 174:	53465500 	movtpl	r5, #25856	; 0x6500
 178:	32544154 	subscc	r4, r4, #21
 17c:	52545500 	subspl	r5, r4, #0
 180:	54415453 	strbpl	r5, [r1], #-1107	; 0x453
 184:	61750032 	cmnvs	r5, r2, lsr r0
 188:	695f7472 	ldmdbvs	pc, {r1, r4, r5, r6, sl, ip, sp, lr}^	; <UNPREDICTABLE>
 18c:	0074696e 	rsbseq	r6, r4, lr, ror #18
 190:	61746164 	cmnvs	r4, r4, ror #2
 194:	43465500 	movtmi	r5, #25856	; 0x6500
 198:	00324e4f 	eorseq	r4, r2, pc, asr #28
 19c:	48585455 	ldmdami	r8, {r0, r2, r4, r6, sl, ip, lr}^
 1a0:	4f430032 	svcmi	0x00430032
 1a4:	4e44504e 	cdpmi	0, 4, cr5, cr4, cr14, {2}
 1a8:	4f435500 	svcmi	0x00435500
 1ac:	5500324e 	strpl	r3, [r0, #-590]	; 0x24e
 1b0:	4154534d 	cmpmi	r4, sp, asr #6
 1b4:	55003254 	strpl	r3, [r0, #-596]	; 0x254
 1b8:	4d544e49 	ldclmi	14, cr4, [r4, #-292]	; 0xfffffedc
 1bc:	65670032 	strbvs	r0, [r7, #-50]!	; 0x32
 1c0:	61686374 	smcvs	34356	; 0x8634
 1c4:	4c550072 	mrrcmi	0, 7, r0, r5, cr2
 1c8:	324e4f43 	subcc	r4, lr, #268	; 0x10c
 1cc:	61706700 	cmnvs	r0, r0, lsl #14
 1d0:	75700031 	ldrbvc	r0, [r0, #-49]!	; 0x31
 1d4:	55006374 	strpl	r6, [r0, #-884]	; 0x374
 1d8:	54535245 	ldrbpl	r5, [r3], #-581	; 0x245
 1dc:	00325441 	eorseq	r5, r2, r1, asr #8
 1e0:	50445550 	subpl	r5, r4, r0, asr r5
 1e4:	63004e44 	movwvs	r4, #3652	; 0xe44
 1e8:	6f6d6d6f 	svcvs	0x006d6d6f
 1ec:	72732f6e 	rsbsvc	r2, r3, #440	; 0x1b8
 1f0:	61752f63 	cmnvs	r5, r3, ror #30
 1f4:	632e7472 	teqvs	lr, #1912602624	; 0x72000000
 1f8:	74757000 	ldrbtvc	r7, [r5]
 1fc:	4d550073 	ldclmi	0, cr0, [r5, #-460]	; 0xfffffe34
 200:	324e4f43 	subcc	r4, lr, #268	; 0x10c
 204:	58525500 	ldmdapl	r2, {r8, sl, ip, lr}^
 208:	55003248 	strpl	r3, [r0, #-584]	; 0x248
 20c:	43415246 	movtmi	r5, #4678	; 0x1246
 210:	324c4156 	subcc	r4, ip, #-2147483627	; 0x80000015
 214:	64617000 	strbtvs	r7, [r1]
 218:	74737264 	ldrbtvc	r7, [r3], #-612	; 0x264
 21c:	00747261 	rsbseq	r7, r4, r1, ror #4
 220:	2e756d6d 	cdpcs	13, 7, cr6, cr5, cr13, {3}
 224:	69740063 	ldmdbvs	r4!, {r0, r1, r5, r6}^
 228:	6d00656d 	cfstr32vs	mvfx6, [r0, #-436]	; 0xfffffe4c
 22c:	735f756d 	cmpvc	pc, #457179136	; 0x1b400000
 230:	746d7465 	strbtvc	r7, [sp], #-1125	; 0x465
 234:	74610074 	strbtvc	r0, [r1], #-116	; 0x74
 238:	6d007274 	sfmvs	f7, 4, [r0, #-464]	; 0xfffffe30
 23c:	006e6961 	rsbeq	r6, lr, r1, ror #18
 240:	31787067 	cmncc	r8, r7, rrx
 244:	65736e00 	ldrbvs	r6, [r3, #-3584]!	; 0xe00
 248:	6f697463 	svcvs	0x00697463
 24c:	6176006e 	cmnvs	r6, lr, rrx
 250:	65726464 	ldrbvs	r6, [r2, #-1124]!	; 0x464
 254:	7600646e 	strvc	r6, [r0], -lr, ror #8
 258:	72646461 	rsbvc	r6, r4, #1627389952	; 0x61000000
 25c:	72617473 	rsbvc	r7, r1, #1929379840	; 0x73000000
 260:	796d0074 	stmdbvc	sp!, {r2, r4, r5, r6}^
 264:	616c6564 	cmnvs	ip, r4, ror #10
 268:	736d5f79 	cmnvc	sp, #484	; 0x1e4
	...

Disassembly of section .debug_frame:

00000000 <.debug_frame>:
   0:	0000000c 	andeq	r0, r0, ip
   4:	ffffffff 			; <UNDEFINED> instruction: 0xffffffff
   8:	7c020001 	stcvc	0, cr0, [r2], {1}
   c:	000d0c0e 	andeq	r0, sp, lr, lsl #24
  10:	00000014 	andeq	r0, r0, r4, lsl r0
  14:	00000000 	andeq	r0, r0, r0
  18:	40008370 	andmi	r8, r0, r0, ror r3
  1c:	00000050 	andeq	r0, r0, r0, asr r0
  20:	8b040e42 	blhi	103930 <_start-0x3ff046d0>
  24:	0b0d4201 	bleq	350830 <_start-0x3fcb77d0>
  28:	00000018 	andeq	r0, r0, r8, lsl r0
  2c:	00000000 	andeq	r0, r0, r0
  30:	400083c0 	andmi	r8, r0, r0, asr #7
  34:	000001a8 	andeq	r0, r0, r8, lsr #3
  38:	8e080e42 	cdphi	14, 0, cr0, cr8, cr2, {2}
  3c:	42028b01 	andmi	r8, r2, #1024	; 0x400
  40:	00040b0c 	andeq	r0, r4, ip, lsl #22
  44:	00000018 	andeq	r0, r0, r8, lsl r0
  48:	00000000 	andeq	r0, r0, r0
  4c:	40008568 	andmi	r8, r0, r8, ror #10
  50:	00000070 	andeq	r0, r0, r0, ror r0
  54:	8e080e42 	cdphi	14, 0, cr0, cr8, cr2, {2}
  58:	42028b01 	andmi	r8, r2, #1024	; 0x400
  5c:	00040b0c 	andeq	r0, r4, ip, lsl #22
  60:	00000014 	andeq	r0, r0, r4, lsl r0
  64:	00000000 	andeq	r0, r0, r0
  68:	400085d8 	ldrdmi	r8, [r0], -r8	; <UNPREDICTABLE>
  6c:	00000094 	muleq	r0, r4, r0
  70:	8b040e42 	blhi	103980 <_start-0x3ff04680>
  74:	0b0d4201 	bleq	350880 <_start-0x3fcb7780>
  78:	00000018 	andeq	r0, r0, r8, lsl r0
  7c:	00000000 	andeq	r0, r0, r0
  80:	4000866c 	andmi	r8, r0, ip, ror #12
  84:	00000498 	muleq	r0, r8, r4
  88:	8e080e42 	cdphi	14, 0, cr0, cr8, cr2, {2}
  8c:	42028b01 	andmi	r8, r2, #1024	; 0x400
  90:	00040b0c 	andeq	r0, r4, ip, lsl #22
  94:	00000014 	andeq	r0, r0, r4, lsl r0
  98:	00000000 	andeq	r0, r0, r0
  9c:	40008b04 	andmi	r8, r0, r4, lsl #22
  a0:	00000080 	andeq	r0, r0, r0, lsl #1
  a4:	8b040e42 	blhi	1039b4 <_start-0x3ff0464c>
  a8:	0b0d4201 	bleq	3508b4 <_start-0x3fcb774c>
  ac:	00000018 	andeq	r0, r0, r8, lsl r0
  b0:	00000000 	andeq	r0, r0, r0
  b4:	40008b84 	andmi	r8, r0, r4, lsl #23
  b8:	00000938 	andeq	r0, r0, r8, lsr r9
  bc:	8e080e42 	cdphi	14, 0, cr0, cr8, cr2, {2}
  c0:	42028b01 	andmi	r8, r2, #1024	; 0x400
  c4:	00040b0c 	andeq	r0, r4, ip, lsl #22
  c8:	00000020 	andeq	r0, r0, r0, lsr #32
  cc:	00000000 	andeq	r0, r0, r0
  d0:	400094bc 			; <UNDEFINED> instruction: 0x400094bc
  d4:	00000050 	andeq	r0, r0, r0, asr r0
  d8:	830c0e42 	movwhi	r0, #52802	; 0xce42
  dc:	81028201 	tsthi	r2, r1, lsl #4
  e0:	140e4203 	strne	r4, [lr], #-515	; 0x203
  e4:	058b048e 	streq	r0, [fp, #1166]	; 0x48e
  e8:	100b0c42 	andne	r0, fp, r2, asr #24
  ec:	00000024 	andeq	r0, r0, r4, lsr #32
  f0:	00000000 	andeq	r0, r0, r0
  f4:	4000950c 	andmi	r9, r0, ip, lsl #10
  f8:	00000058 	andeq	r0, r0, r8, asr r0
  fc:	83100e42 	tsthi	r0, #1056	; 0x420
 100:	81028201 	tsthi	r2, r1, lsl #4
 104:	42048003 	andmi	r8, r4, #3
 108:	058e180e 	streq	r1, [lr, #2062]	; 0x80e
 10c:	0c42068b 	mcrreq	6, 8, r0, r2, cr11
 110:	0000140b 	andeq	r1, r0, fp, lsl #8
 114:	0000000c 	andeq	r0, r0, ip
 118:	ffffffff 			; <UNDEFINED> instruction: 0xffffffff
 11c:	7c020001 	stcvc	0, cr0, [r2], {1}
 120:	000d0c0e 	andeq	r0, sp, lr, lsl #24
 124:	00000014 	andeq	r0, r0, r4, lsl r0
 128:	00000114 	andeq	r0, r0, r4, lsl r1
 12c:	40009564 	andmi	r9, r0, r4, ror #10
 130:	00000064 	andeq	r0, r0, r4, rrx
 134:	8b040e42 	blhi	103a44 <_start-0x3ff045bc>
 138:	0b0d4201 	bleq	350944 <_start-0x3fcb76bc>
 13c:	00000018 	andeq	r0, r0, r8, lsl r0
 140:	00000114 	andeq	r0, r0, r4, lsl r1
 144:	400095c8 	andmi	r9, r0, r8, asr #11
 148:	0000005c 	andeq	r0, r0, ip, asr r0
 14c:	8e080e42 	cdphi	14, 0, cr0, cr8, cr2, {2}
 150:	42028b01 	andmi	r8, r2, #1024	; 0x400
 154:	00040b0c 	andeq	r0, r4, ip, lsl #22
 158:	00000018 	andeq	r0, r0, r8, lsl r0
 15c:	00000114 	andeq	r0, r0, r4, lsl r1
 160:	40009624 	andmi	r9, r0, r4, lsr #12
 164:	0000004c 	andeq	r0, r0, ip, asr #32
 168:	8e080e42 	cdphi	14, 0, cr0, cr8, cr2, {2}
 16c:	42028b01 	andmi	r8, r2, #1024	; 0x400
 170:	00040b0c 	andeq	r0, r4, ip, lsl #22
 174:	00000014 	andeq	r0, r0, r4, lsl r0
 178:	00000114 	andeq	r0, r0, r4, lsl r1
 17c:	40009670 	andmi	r9, r0, r0, ror r6
 180:	00000048 	andeq	r0, r0, r8, asr #32
 184:	8b040e42 	blhi	103a94 <_start-0x3ff0456c>
 188:	0b0d4201 	bleq	350994 <_start-0x3fcb766c>
 18c:	0000000c 	andeq	r0, r0, ip
 190:	ffffffff 			; <UNDEFINED> instruction: 0xffffffff
 194:	7c020001 	stcvc	0, cr0, [r2], {1}
 198:	000d0c0e 	andeq	r0, sp, lr, lsl #24
 19c:	00000014 	andeq	r0, r0, r4, lsl r0
 1a0:	0000018c 	andeq	r0, r0, ip, lsl #3
 1a4:	400097fc 	strdmi	r9, [r0], -ip
 1a8:	00000098 	muleq	r0, r8, r0
 1ac:	8b040e42 	blhi	103abc <_start-0x3ff04544>
 1b0:	0b0d4201 	bleq	3509bc <_start-0x3fcb7644>
 1b4:	00000014 	andeq	r0, r0, r4, lsl r0
 1b8:	0000018c 	andeq	r0, r0, ip, lsl #3
 1bc:	40009894 	mulmi	r0, r4, r8
 1c0:	000000ac 	andeq	r0, r0, ip, lsr #1
 1c4:	8b040e42 	blhi	103ad4 <_start-0x3ff0452c>
 1c8:	0b0d4201 	bleq	3509d4 <_start-0x3fcb762c>
 1cc:	00000018 	andeq	r0, r0, r8, lsl r0
 1d0:	0000018c 	andeq	r0, r0, ip, lsl #3
 1d4:	40009940 	andmi	r9, r0, r0, asr #18
 1d8:	00000098 	muleq	r0, r8, r0
 1dc:	8e080e42 	cdphi	14, 0, cr0, cr8, cr2, {2}
 1e0:	42028b01 	andmi	r8, r2, #1024	; 0x400
 1e4:	00040b0c 	andeq	r0, r4, ip, lsl #22
